 xlslib

 Timestamp is 5b3d4f6c (Thu Jul  5 07:51:24 2018)

 Preferred load address is 0000000180000000

 Start         Length     Name                   Class
 0001:00000000 000155e0H .text                   CODE
 0001:000155e0 00000030H .text$di                CODE
 0001:00015610 00033f10H .text$mn                CODE
 0001:00049520 00000020H .text$mn$00             CODE
 0001:00049540 000013b0H .text$x                 CODE
 0001:0004a8f0 0000002fH .text$yd                CODE
 0002:00000000 00000560H .idata$5                DATA
 0002:00000560 00000010H .00cfg                  DATA
 0002:00000570 00000008H .CRT$XCA                DATA
 0002:00000578 00000008H .CRT$XCL                DATA
 0002:00000580 00000008H .CRT$XCU                DATA
 0002:00000588 00000008H .CRT$XCZ                DATA
 0002:00000590 00000008H .CRT$XIA                DATA
 0002:00000598 00000008H .CRT$XIC                DATA
 0002:000005a0 00000008H .CRT$XIZ                DATA
 0002:000005a8 00000008H .CRT$XPA                DATA
 0002:000005b0 00000008H .CRT$XPZ                DATA
 0002:000005b8 00000008H .CRT$XTA                DATA
 0002:000005c0 00000010H .CRT$XTZ                DATA
 0002:000005d0 000d0130H .rdata                  DATA
 0002:000d0700 000031fcH .rdata$r                DATA
 0002:000d38fc 00000304H .rdata$zzzdbg           DATA
 0002:000d3c00 00000008H .rtc$IAA                DATA
 0002:000d3c08 00000008H .rtc$IZZ                DATA
 0002:000d3c10 00000008H .rtc$TAA                DATA
 0002:000d3c18 00000008H .rtc$TZZ                DATA
 0002:000d3c20 00006060H .xdata                  DATA
 0002:000d9c80 000001e0H .xdata$x                DATA
 0002:000d9e60 00000114H .edata                  DATA
 0002:000d9f74 000000b4H .idata$2                DATA
 0002:000da028 00000018H .idata$3                DATA
 0002:000da040 00000560H .idata$4                DATA
 0002:000da5a0 00001a5eH .idata$6                DATA
 0003:00000000 000010c0H .data                   DATA
 0003:000010c0 00001450H .data$r                 DATA
 0003:00002510 00000690H .bss                    DATA
 0004:00000000 00004590H .pdata                  DATA
 0005:00000000 00000304H .gfids$y                DATA
 0006:00000000 00000060H .rsrc$01                DATA
 0006:00000060 00000180H .rsrc$02                DATA

  Address         Publics by Value              Rva+Base               Lib:Object

 0000:00000000       __guard_fids_table         0000000000000000     <absolute>
 0000:00000000       __guard_fids_count         0000000000000000     <absolute>
 0000:00000000       __guard_longjmp_count      0000000000000000     <absolute>
 0000:00000000       __dynamic_value_reloc_table 0000000000000000     <absolute>
 0000:00000000       __guard_longjmp_table      0000000000000000     <absolute>
 0000:00000000       ___safe_se_handler_table   0000000000000000     <absolute>
 0000:00000000       ___safe_se_handler_count   0000000000000000     <absolute>
 0000:00000000       __guard_iat_table          0000000000000000     <absolute>
 0000:00000000       __guard_iat_count          0000000000000000     <absolute>
 0000:00000100       __guard_flags              0000000000000100     <absolute>
 0000:00000000       __ImageBase                0000000180000000     <linker-defined>
 0001:000143b0       aliases_lookup             00000001800153b0 f   libiconv:iconv.obj
 0001:00014440       aliases2_lookup            0000000180015440 f   libiconv:iconv.obj
 0001:000144b0       libiconv_open              00000001800154b0 f   libiconv:iconv.obj
 0001:00014990       libiconv                   0000000180015990 f   libiconv:iconv.obj
 0001:000149d0       libiconv_close             00000001800159d0 f   libiconv:iconv.obj
 0001:000149f0       libiconv_open_into         00000001800159f0 f   libiconv:iconv.obj
 0001:00014ed0       libiconvctl                0000000180015ed0 f   libiconv:iconv.obj
 0001:000150d0       libiconvlist               00000001800160d0 f   libiconv:iconv.obj
 0001:00015290       iconv_canonicalize         0000000180016290 f   libiconv:iconv.obj
 0001:00015500       locale_charset             0000000180016500 f   libiconv:localcharset.obj
 0001:00015610       ?address@?$_Wrap_alloc@V?$allocator@D@std@@@std@@QEBAPEADAEAD@Z 0000000180016610 f i binfile.obj
 0001:00015610       ?get_allocator@?$basic_string@DU?$char_traits@D@std@@V?$allocator@D@2@@std@@QEBA?AV?$allocator@D@2@XZ 0000000180016610 f i olefs.obj
 0001:00015610       ?select_on_container_copy_construction@?$_Wrap_alloc@V?$allocator@_W@std@@@std@@QEBA?AU12@U_Nil@2@@Z 0000000180016610 f i cbridge.obj
 0001:00015610       ?_Kfn@?$_Tree@V?$_Tset_traits@U?$pair@PEAVxf_t@xlslib_core@@UborderedXft@2@@std@@VxfSorter@xlslib_core@@V?$allocator@U?$pair@PEAVxf_t@xlslib_core@@UborderedXft@2@@std@@@2@$0A@@std@@@std@@IEBAAEBU?$pair@PEAVxf_t@xlslib_core@@UborderedXft@2@@2@AEBU32@@Z 0000000180016610 f i range.obj
 0001:00015610       ??2@YAPEAX_KPEAX@Z         0000000180016610 f i assert_assist.obj
 0001:00015610       ?_Kfn@?$_Tree@V?$_Tset_traits@PEAVHPSFitem@xlslib_core@@Vinsertsort2@2@V?$allocator@PEAVHPSFitem@xlslib_core@@@std@@$0A@@std@@@std@@IEBAAEBQEAVHPSFitem@xlslib_core@@AEBQEAV34@@Z 0000000180016610 f i HPSF.obj
 0001:00015610       ?address@?$_Wrap_alloc@V?$allocator@_S@std@@@std@@QEBAPEA_SAEA_S@Z 0000000180016610 f i sheetrec.obj
 0001:00015610       ?_Kfn@?$_Tree@V?$_Tset_traits@PEAUcolinfo_t@xlslib_core@@Vcolinfosort@2@V?$allocator@PEAUcolinfo_t@xlslib_core@@@std@@$0A@@std@@@std@@IEBAAEBQEAUcolinfo_t@xlslib_core@@AEBQEAU34@@Z 0000000180016610 f i sheetrec.obj
 0001:00015610       ?select_on_container_copy_construction@?$_Wrap_alloc@V?$allocator@D@std@@@std@@QEBA?AU12@U_Nil@2@@Z 0000000180016610 f i assert_assist.obj
 0001:00015610       ?address@?$_Wrap_alloc@V?$allocator@D@std@@@std@@QEBAPEBDAEBD@Z 0000000180016610 f i globalrec.obj
 0001:00015610       ?select_on_container_copy_construction@?$_Wrap_alloc@V?$allocator@_S@std@@@std@@QEBA?AU12@U_Nil@2@@Z 0000000180016610 f i datast.obj
 0001:00015610       ?_Kfn@?$_Tree@V?$_Tset_traits@PEAVrowheight_t@xlslib_core@@Vrowheightsort@2@V?$allocator@PEAVrowheight_t@xlslib_core@@@std@@$0A@@std@@@std@@IEBAAEBQEAVrowheight_t@xlslib_core@@AEBQEAV34@@Z 0000000180016610 f i sheetrec.obj
 0001:00015610       ?address@?$_Wrap_alloc@V?$allocator@_S@std@@@std@@QEBAPEB_SAEB_S@Z 0000000180016610 f i globalrec.obj
 0001:00015610       ?_Kfn@?$_Tree@V?$_Tset_traits@PEAVcell_t@xlslib_core@@Vinsertsort@2@V?$allocator@PEAVcell_t@xlslib_core@@@std@@$0A@@std@@@std@@IEBAAEBQEAVcell_t@xlslib_core@@AEBQEAV34@@Z 0000000180016610 f i sheetrec.obj
 0001:00015620       ?copy@?$char_traits@D@std@@SAPEADPEADPEBD_K@Z 0000000180016620 f i assert_assist.obj
 0001:00015640       ?move@?$char_traits@D@std@@SAPEADPEADPEBD_K@Z 0000000180016640 f i assert_assist.obj
 0001:00015650       ?assign@?$char_traits@D@std@@SAXAEADAEBD@Z 0000000180016650 f i assert_assist.obj
 0001:00015660       ?eq@?$char_traits@D@std@@SA_NAEBD0@Z 0000000180016660 f i assert_assist.obj
 0001:00015670       ?to_int_type@?$char_traits@D@std@@SAHAEBD@Z 0000000180016670 f i assert_assist.obj
 0001:00015670       ?to_char_type@?$char_traits@D@std@@SADAEBH@Z 0000000180016670 f i assert_assist.obj
 0001:00015680       ?eq_int_type@?$char_traits@D@std@@SA_NAEBH0@Z 0000000180016680 f i assert_assist.obj
 0001:00015690       ?not_eof@?$char_traits@D@std@@SAHAEBH@Z 0000000180016690 f i assert_assist.obj
 0001:000156a0       ?eof@?$char_traits@D@std@@SAHXZ 00000001800166a0 f i assert_assist.obj
 0001:000156b0       ?_Allocate@std@@YAPEAX_K0_N@Z 00000001800166b0 f i assert_assist.obj
 0001:00015720       ?_Deallocate@std@@YAXPEAX_K1@Z 0000000180016720 f i assert_assist.obj
 0001:00015790       ??0str_stream@@QEAA@XZ     0000000180016790 f i assert_assist.obj
 0001:000157b0       ?_Getal@?$_Vector_alloc@U?$_Vec_base_types@V?$basic_string@DU?$char_traits@D@std@@V?$allocator@D@2@@std@@V?$allocator@V?$basic_string@DU?$char_traits@D@std@@V?$allocator@D@2@@std@@@2@@std@@@std@@QEBAAEBU?$_Wrap_alloc@V?$allocator@V?$basic_string@DU?$char_traits@D@std@@V?$allocator@D@2@@std@@@std@@@2@XZ 00000001800167b0 f i cbridge.obj
 0001:000157b0       ??$forward@AEAPEAVxf_t@xlslib_core@@@std@@YAAEAPEAVxf_t@xlslib_core@@AEAPEAV12@@Z 00000001800167b0 f i globalrec.obj
 0001:000157b0       ?_Get_data@?$_Tree_comp_alloc@V?$_Tset_traits@U?$pair@PEAVxf_t@xlslib_core@@UborderedXft@2@@std@@VxfSorter@xlslib_core@@V?$allocator@U?$pair@PEAVxf_t@xlslib_core@@UborderedXft@2@@std@@@2@$0A@@std@@@std@@QEBAAEBV?$_Tree_val@U?$_Tree_simple_types@U?$pair@PEAVxf_t@xlslib_core@@UborderedXft@2@@std@@@std@@@2@XZ 00000001800167b0 f i range.obj
 0001:000157b0       ?_Myhead@?$_Tree_comp_alloc@V?$_Tset_traits@PEAVcell_t@xlslib_core@@Vinsertsort@2@V?$allocator@PEAVcell_t@xlslib_core@@@std@@$0A@@std@@@std@@QEBAAEBQEAU?$_Tree_node@PEAVcell_t@xlslib_core@@PEAX@2@XZ 00000001800167b0 f i sheetrec.obj
 0001:000157b0       ?_Get_data@?$_Vector_alloc@U?$_Vec_base_types@PEAVfont_t@xlslib_core@@V?$allocator@PEAVfont_t@xlslib_core@@@std@@@std@@@std@@QEBAAEBV?$_Vector_val@U?$_Simple_types@PEAVfont_t@xlslib_core@@@std@@@2@XZ 00000001800167b0 f i globalrec.obj
 0001:000157b0       ??0?$allocator@D@std@@QEAA@XZ 00000001800167b0 f i assert_assist.obj
 0001:000157b0       ?_Left@?$_Tree_comp_alloc@V?$_Tset_traits@PEAVrowheight_t@xlslib_core@@Vrowheightsort@2@V?$allocator@PEAVrowheight_t@xlslib_core@@@std@@$0A@@std@@@std@@SAAEAPEAU?$_Tree_node@PEAVrowheight_t@xlslib_core@@PEAX@2@PEAU32@@Z 00000001800167b0 f i sheetrec.obj
 0001:000157b0       ?_Get_second@?$_Compressed_pair@U?$_Wrap_alloc@V?$allocator@D@std@@@std@@V?$_String_val@U?$_Simple_types@D@std@@@2@$00@std@@QEBAAEBV?$_String_val@U?$_Simple_types@D@std@@@2@XZ 00000001800167b0 f i assert_assist.obj
 0001:000157b0       ??0?$allocator@_K@std@@QEAA@XZ 00000001800167b0 f i sheetrec.obj
 0001:000157b0       ?_Get_data@?$_Tree_comp_alloc@V?$_Tset_traits@PEAUcolinfo_t@xlslib_core@@Vcolinfosort@2@V?$allocator@PEAUcolinfo_t@xlslib_core@@@std@@$0A@@std@@@std@@QEAAAEAV?$_Tree_val@U?$_Tree_simple_types@PEAUcolinfo_t@xlslib_core@@@std@@@2@XZ 00000001800167b0 f i sheetrec.obj
 0001:000157b0       ?_Get_data@?$_Vector_alloc@U?$_Vec_base_types@_KV?$allocator@_K@std@@@std@@@std@@QEAAAEAV?$_Vector_val@U?$_Simple_types@_K@std@@@2@XZ 00000001800167b0 f i sheetrec.obj
 0001:000157b0       ??0?$allocator@PEAVrange@xlslib_core@@@std@@QEAA@XZ 00000001800167b0 f i sheetrec.obj
 0001:000157b0       ?_Get_second@?$_Compressed_pair@U?$_Wrap_alloc@V?$allocator@PEAVCOleProp@xlslib_core@@@std@@@std@@V?$_Vector_val@U?$_Simple_types@PEAVCOleProp@xlslib_core@@@std@@@2@$00@std@@QEBAAEBV?$_Vector_val@U?$_Simple_types@PEAVCOleProp@xlslib_core@@@std@@@2@XZ 00000001800167b0 f i olefs.obj
 0001:000157b0       ??0?$allocator@PEAVfont_t@xlslib_core@@@std@@QEAA@XZ 00000001800167b0 f i globalrec.obj
 0001:000157b0       ?_Get_first@?$_Compressed_pair@VxfSorter@xlslib_core@@V?$_Compressed_pair@U?$_Wrap_alloc@V?$allocator@U?$_Tree_node@U?$pair@PEAVxf_t@xlslib_core@@UborderedXft@2@@std@@PEAX@std@@@std@@@std@@V?$_Tree_val@U?$_Tree_simple_types@U?$pair@PEAVxf_t@xlslib_core@@UborderedXft@2@@std@@@std@@@2@$00@std@@$00@std@@QEBAAEBVxfSorter@xlslib_core@@XZ 00000001800167b0 f i range.obj
 0001:000157b0       ??$_Unchecked@PEA_K@std@@YAPEA_KPEA_K@Z 00000001800167b0 f i sheetrec.obj
 0001:000157b0       ?_Getal@?$_Vector_alloc@U?$_Vec_base_types@PEBVlabel_t@xlslib_core@@V?$allocator@PEBVlabel_t@xlslib_core@@@std@@@std@@@std@@QEAAAEAU?$_Wrap_alloc@V?$allocator@PEBVlabel_t@xlslib_core@@@std@@@2@XZ 00000001800167b0 f i globalrec.obj
 0001:000157b0       ??$forward@U?$_Wrap_alloc@V?$allocator@D@std@@@std@@@std@@YA$$QEAU?$_Wrap_alloc@V?$allocator@D@std@@@0@AEAU10@@Z 00000001800167b0 f i assert_assist.obj
 0001:000157b0       ??$forward@AEAPEAVformat_t@xlslib_core@@@std@@YAAEAPEAVformat_t@xlslib_core@@AEAPEAV12@@Z 00000001800167b0 f i globalrec.obj
 0001:000157b0       ??$_Ptr_move_cat@PEAVboundsheet_t@xlslib_core@@PEAV12@@std@@YA?AU_Really_trivial_ptr_iterator_tag@0@AEBQEAPEAVboundsheet_t@xlslib_core@@0@Z 00000001800167b0 f i globalrec.obj
 0001:000157b0       ??$forward@AEAPEAU?$_Tree_node@PEAUcolinfo_t@xlslib_core@@PEAX@std@@@std@@YAAEAPEAU?$_Tree_node@PEAUcolinfo_t@xlslib_core@@PEAX@0@AEAPEAU10@@Z 00000001800167b0 f i sheetrec.obj
 0001:000157b0       ?_Myfirst@?$_Vector_alloc@U?$_Vec_base_types@PEAUDataValidation@xlslib_core@@V?$allocator@PEAUDataValidation@xlslib_core@@@std@@@std@@@std@@QEAAAEAPEAPEAUDataValidation@xlslib_core@@XZ 00000001800167b0 f i sheetrec.obj
 0001:000157b0       ?_Getcomp@?$_Tree_comp_alloc@V?$_Tset_traits@PEAVHPSFitem@xlslib_core@@Vinsertsort2@2@V?$allocator@PEAVHPSFitem@xlslib_core@@@std@@$0A@@std@@@std@@QEAAAEAVinsertsort2@xlslib_core@@XZ 00000001800167b0 f i HPSF.obj
 0001:000157b0       ??0?$_Wrap_alloc@V?$allocator@PEAVrange_t@xlslib_core@@@std@@@std@@QEAA@XZ 00000001800167b0 f i sheetrec.obj
 0001:000157b0       ?_Get_second@?$_Compressed_pair@U?$_Wrap_alloc@V?$allocator@N@std@@@std@@V?$_Vector_val@U?$_Simple_types@N@std@@@2@$00@std@@QEBAAEBV?$_Vector_val@U?$_Simple_types@N@std@@@2@XZ 00000001800167b0 f i cbridge.obj
 0001:000157b0       ??$forward@U?$_Wrap_alloc@V?$allocator@_S@std@@@std@@@std@@YA$$QEAU?$_Wrap_alloc@V?$allocator@_S@std@@@0@AEAU10@@Z 00000001800167b0 f i datast.obj
 0001:000157b0       ?_Getal@?$_String_alloc@U?$_String_base_types@_SV?$allocator@_S@std@@@std@@@std@@QEAAAEAU?$_Wrap_alloc@V?$allocator@_S@std@@@2@XZ 00000001800167b0 f i datast.obj
 0001:000157b0       ??$forward@AEAN@std@@YAAEANAEAN@Z 00000001800167b0 f i cbridge.obj
 0001:000157b0       ?_Get_first@?$_Compressed_pair@U?$_Wrap_alloc@V?$allocator@U?$_Tree_node@PEAVHPSFitem@xlslib_core@@PEAX@std@@@std@@@std@@V?$_Tree_val@U?$_Tree_simple_types@PEAVHPSFitem@xlslib_core@@@std@@@2@$00@std@@QEAAAEAU?$_Wrap_alloc@V?$allocator@U?$_Tree_node@PEAVHPSFitem@xlslib_core@@PEAX@std@@@std@@@2@XZ 00000001800167b0 f i HPSF.obj
 0001:000157b0       ?_Get_second@?$_Compressed_pair@U?$_Wrap_alloc@V?$allocator@Urowblocksize_t@xlslib_core@@@std@@@std@@V?$_Vector_val@U?$_Simple_types@Urowblocksize_t@xlslib_core@@@std@@@2@$00@std@@QEBAAEBV?$_Vector_val@U?$_Simple_types@Urowblocksize_t@xlslib_core@@@std@@@2@XZ 00000001800167b0 f i sheetrec.obj
 0001:000157b0       ??$addressof@QEAVCUnit@xlslib_core@@@std@@YAPEBQEAVCUnit@xlslib_core@@AEBQEAV12@@Z 00000001800167b0 f i datast.obj
 0001:000157b0       ?_Get_first@?$_Compressed_pair@U?$_Wrap_alloc@V?$allocator@PEAVCOleProp@xlslib_core@@@std@@@std@@V?$_Vector_val@U?$_Simple_types@PEAVCOleProp@xlslib_core@@@std@@@2@$00@std@@QEAAAEAU?$_Wrap_alloc@V?$allocator@PEAVCOleProp@xlslib_core@@@std@@@2@XZ 00000001800167b0 f i oledoc.obj
 0001:000157b0       ??$forward@AEAPEAU?$_Tree_node@U?$pair@PEAVxf_t@xlslib_core@@UborderedXft@2@@std@@PEAX@std@@@std@@YAAEAPEAU?$_Tree_node@U?$pair@PEAVxf_t@xlslib_core@@UborderedXft@2@@std@@PEAX@0@AEAPEAU10@@Z 00000001800167b0 f i range.obj
 0001:000157b0       ??$move@AEAD@std@@YA$$QEADAEAD@Z 00000001800167b0 f i HPSF.obj
 0001:000157b0       ?_Get_first@?$_Compressed_pair@U?$_Wrap_alloc@V?$allocator@PEAVformula_t@xlslib_core@@@std@@@std@@V?$_Vector_val@U?$_Simple_types@PEAVformula_t@xlslib_core@@@std@@@2@$00@std@@QEAAAEAU?$_Wrap_alloc@V?$allocator@PEAVformula_t@xlslib_core@@@std@@@2@XZ 00000001800167b0 f i sheetrec.obj
 0001:000157b0       ??$forward@U_Zero_then_variadic_args_t@std@@@std@@YA$$QEAU_Zero_then_variadic_args_t@0@AEAU10@@Z 00000001800167b0 f i HPSF.obj
 0001:000157b0       ?_Get_second@?$_Compressed_pair@Vinsertsort@xlslib_core@@V?$_Compressed_pair@U?$_Wrap_alloc@V?$allocator@U?$_Tree_node@PEAVcell_t@xlslib_core@@PEAX@std@@@std@@@std@@V?$_Tree_val@U?$_Tree_simple_types@PEAVcell_t@xlslib_core@@@std@@@2@$00@std@@$00@std@@QEBAAEBV?$_Compressed_pair@U?$_Wrap_alloc@V?$allocator@U?$_Tree_node@PEAVcell_t@xlslib_core@@PEAX@std@@@std@@@std@@V?$_Tree_val@U?$_Tree_simple_types@PEAVcell_t@xlslib_core@@@std@@@2@$00@2@XZ 00000001800167b0 f i sheetrec.obj
 0001:000157b0       ?_Getcomp@?$_Tree_comp_alloc@V?$_Tset_traits@PEAVcell_t@xlslib_core@@Vinsertsort@2@V?$allocator@PEAVcell_t@xlslib_core@@@std@@$0A@@std@@@std@@QEBAAEBVinsertsort@xlslib_core@@XZ 00000001800167b0 f i sheetrec.obj
 0001:000157b0       ??0?$allocator@_W@std@@QEAA@AEBV01@@Z 00000001800167b0 f i cbridge.obj
 0001:000157b0       ?_Get_data@?$_Vector_alloc@U?$_Vec_base_types@PEAUHyperLink@xlslib_core@@V?$allocator@PEAUHyperLink@xlslib_core@@@std@@@std@@@std@@QEBAAEBV?$_Vector_val@U?$_Simple_types@PEAUHyperLink@xlslib_core@@@std@@@2@XZ 00000001800167b0 f i sheetrec.obj
 0001:000157b0       ?_Getcomp@?$_Tree_comp_alloc@V?$_Tset_traits@PEAVcell_t@xlslib_core@@Vinsertsort@2@V?$allocator@PEAVcell_t@xlslib_core@@@std@@$0A@@std@@@std@@QEAAAEAVinsertsort@xlslib_core@@XZ 00000001800167b0 f i sheetrec.obj
 0001:000157b0       ??$forward@AEBQEAVrange@xlslib_core@@@std@@YAAEBQEAVrange@xlslib_core@@AEBQEAV12@@Z 00000001800167b0 f i sheetrec.obj
 0001:000157b0       ??$_Ptr_move_cat@PEAVworksheet@xlslib_core@@PEAV12@@std@@YA?AU_Really_trivial_ptr_iterator_tag@0@AEBQEAPEAVworksheet@xlslib_core@@0@Z 00000001800167b0 f i workbook.obj
 0001:000157b0       ?_Getal@?$_Vector_alloc@U?$_Vec_base_types@NV?$allocator@N@std@@@std@@@std@@QEAAAEAU?$_Wrap_alloc@V?$allocator@N@std@@@2@XZ 00000001800167b0 f i cbridge.obj
 0001:000157b0       ?_Get_data@?$_Vector_alloc@U?$_Vec_base_types@PEAUstyle_t@xlslib_core@@V?$allocator@PEAUstyle_t@xlslib_core@@@std@@@std@@@std@@QEBAAEBV?$_Vector_val@U?$_Simple_types@PEAUstyle_t@xlslib_core@@@std@@@2@XZ 00000001800167b0 f i globalrec.obj
 0001:000157b0       ??0?$_Wrap_alloc@V?$allocator@PEAVCOleProp@xlslib_core@@@std@@@std@@QEAA@XZ 00000001800167b0 f i oledoc.obj
 0001:000157b0       ?_Myhead@?$_Tree_comp_alloc@V?$_Tset_traits@PEAUcolinfo_t@xlslib_core@@Vcolinfosort@2@V?$allocator@PEAUcolinfo_t@xlslib_core@@@std@@$0A@@std@@@std@@QEAAAEAPEAU?$_Tree_node@PEAUcolinfo_t@xlslib_core@@PEAX@2@XZ 00000001800167b0 f i sheetrec.obj
 0001:000157b0       ?_Get_first@?$_Compressed_pair@U?$_Wrap_alloc@V?$allocator@V?$basic_string@DU?$char_traits@D@std@@V?$allocator@D@2@@std@@@std@@@std@@V?$_Vector_val@U?$_Simple_types@V?$basic_string@DU?$char_traits@D@std@@V?$allocator@D@2@@std@@@std@@@2@$00@std@@QEBAAEBU?$_Wrap_alloc@V?$allocator@V?$basic_string@DU?$char_traits@D@std@@V?$allocator@D@2@@std@@@std@@@2@XZ 00000001800167b0 f i cbridge.obj
 0001:000157b0       ??0?$allocator@PEAUHyperLink@xlslib_core@@@std@@QEAA@XZ 00000001800167b0 f i sheetrec.obj
 0001:000157b0       ??$forward@U?$_Wrap_alloc@V?$allocator@_W@std@@@std@@@std@@YA$$QEAU?$_Wrap_alloc@V?$allocator@_W@std@@@0@AEAU10@@Z 00000001800167b0 f i cbridge.obj
 0001:000157b0       ?_Get_first@?$_Compressed_pair@U?$_Wrap_alloc@V?$allocator@PEBVlabel_t@xlslib_core@@@std@@@std@@V?$_Vector_val@U?$_Simple_types@PEBVlabel_t@xlslib_core@@@std@@@2@$00@std@@QEBAAEBU?$_Wrap_alloc@V?$allocator@PEBVlabel_t@xlslib_core@@@std@@@2@XZ 00000001800167b0 f i globalrec.obj
 0001:000157b0       ??$addressof@QEAVboundsheet_t@xlslib_core@@@std@@YAPEBQEAVboundsheet_t@xlslib_core@@AEBQEAV12@@Z 00000001800167b0 f i globalrec.obj
 0001:000157b0       ?_Get_second@?$_Compressed_pair@U?$_Wrap_alloc@V?$allocator@PEAVformula_t@xlslib_core@@@std@@@std@@V?$_Vector_val@U?$_Simple_types@PEAVformula_t@xlslib_core@@@std@@@2@$00@std@@QEAAAEAV?$_Vector_val@U?$_Simple_types@PEAVformula_t@xlslib_core@@@std@@@2@XZ 00000001800167b0 f i sheetrec.obj
 0001:000157b0       ?_Getal@?$_String_alloc@U?$_String_base_types@_WV?$allocator@_W@std@@@std@@@std@@QEAAAEAU?$_Wrap_alloc@V?$allocator@_W@std@@@2@XZ 00000001800167b0 f i cbridge.obj
 0001:000157b0       ?_Myfirst@?$_Vector_alloc@U?$_Vec_base_types@PEAVxf_t@xlslib_core@@V?$allocator@PEAVxf_t@xlslib_core@@@std@@@std@@@std@@QEBAAEBQEAPEAVxf_t@xlslib_core@@XZ 00000001800167b0 f i globalrec.obj
 0001:000157b0       ?_Getal@?$_Vector_alloc@U?$_Vec_base_types@_KV?$allocator@_K@std@@@std@@@std@@QEAAAEAU?$_Wrap_alloc@V?$allocator@_K@std@@@2@XZ 00000001800167b0 f i sheetrec.obj
 0001:000157b0       ?GetName@COleProp@xlslib_core@@QEBAAEBV?$basic_string@DU?$char_traits@D@std@@V?$allocator@D@2@@std@@XZ 00000001800167b0 f i oleprop.obj
 0001:000157b0       ?_Get_second@?$_Compressed_pair@U?$_Wrap_alloc@V?$allocator@U?$_List_node@PEAV?$basic_string@DU?$char_traits@D@std@@V?$allocator@D@2@@std@@PEAX@std@@@std@@@std@@V?$_List_val@U?$_List_simple_types@PEAV?$basic_string@DU?$char_traits@D@std@@V?$allocator@D@2@@std@@@std@@@2@$00@std@@QEAAAEAV?$_List_val@U?$_List_simple_types@PEAV?$basic_string@DU?$char_traits@D@std@@V?$allocator@D@2@@std@@@std@@@2@XZ 00000001800167b0 f i olefs.obj
 0001:000157b0       ?_Kfn@?$_Tset_traits@PEAVHPSFitem@xlslib_core@@Vinsertsort2@2@V?$allocator@PEAVHPSFitem@xlslib_core@@@std@@$0A@@std@@SAAEBQEAVHPSFitem@xlslib_core@@AEBQEAV34@@Z 00000001800167b0 f i HPSF.obj
 0001:000157b0       ?_Get_first@?$_Compressed_pair@U?$_Wrap_alloc@V?$allocator@U?$_Tree_node@U?$pair@PEAVxf_t@xlslib_core@@UborderedXft@2@@std@@PEAX@std@@@std@@@std@@V?$_Tree_val@U?$_Tree_simple_types@U?$pair@PEAVxf_t@xlslib_core@@UborderedXft@2@@std@@@std@@@2@$00@std@@QEAAAEAU?$_Wrap_alloc@V?$allocator@U?$_Tree_node@U?$pair@PEAVxf_t@xlslib_core@@UborderedXft@2@@std@@PEAX@std@@@std@@@2@XZ 00000001800167b0 f i range.obj
 0001:000157b0       ??$addressof@QEAVrange_t@xlslib_core@@@std@@YAPEBQEAVrange_t@xlslib_core@@AEBQEAV12@@Z 00000001800167b0 f i sheetrec.obj
 0001:000157b0       ??$_Unchecked@PEAN@std@@YAPEANPEAN@Z 00000001800167b0 f i cbridge.obj
 0001:000157b0       ?_Get_second@?$_Compressed_pair@U?$_Wrap_alloc@V?$allocator@PEAVCUnit@xlslib_core@@@std@@@std@@V?$_Vector_val@U?$_Simple_types@PEAVCUnit@xlslib_core@@@std@@@2@$00@std@@QEBAAEBV?$_Vector_val@U?$_Simple_types@PEAVCUnit@xlslib_core@@@std@@@2@XZ 00000001800167b0 f i datast.obj
 0001:000157b0       ?_Getal@?$_Vector_alloc@U?$_Vec_base_types@PEAVrange_t@xlslib_core@@V?$allocator@PEAVrange_t@xlslib_core@@@std@@@std@@@std@@QEBAAEBU?$_Wrap_alloc@V?$allocator@PEAVrange_t@xlslib_core@@@std@@@2@XZ 00000001800167b0 f i sheetrec.obj
 0001:000157b0       ??$addressof@PEAD@std@@YAPEAPEADAEAPEAD@Z 00000001800167b0 f i assert_assist.obj
 0001:000157b0       ??0?$_Wrap_alloc@V?$allocator@PEAVformat_t@xlslib_core@@@std@@@std@@QEAA@XZ 00000001800167b0 f i globalrec.obj
 0001:000157b0       ??$_Unfancy@PEAVfont_t@xlslib_core@@@std@@YAPEAPEAVfont_t@xlslib_core@@PEAPEAV12@@Z 00000001800167b0 f i globalrec.obj
 0001:000157b0       ?_Myfirst@?$_Vector_alloc@U?$_Vec_base_types@PEAVformula_t@xlslib_core@@V?$allocator@PEAVformula_t@xlslib_core@@@std@@@std@@@std@@QEBAAEBQEAPEAVformula_t@xlslib_core@@XZ 00000001800167b0 f i sheetrec.obj
 0001:000157b0       ?_Get_second@?$_Compressed_pair@U?$_Wrap_alloc@V?$allocator@PEBVlabel_t@xlslib_core@@@std@@@std@@V?$_Vector_val@U?$_Simple_types@PEBVlabel_t@xlslib_core@@@std@@@2@$00@std@@QEAAAEAV?$_Vector_val@U?$_Simple_types@PEBVlabel_t@xlslib_core@@@std@@@2@XZ 00000001800167b0 f i globalrec.obj
 0001:000157b0       ??$_Unfancy@PEBVlabel_t@xlslib_core@@@std@@YAPEAPEBVlabel_t@xlslib_core@@PEAPEBV12@@Z 00000001800167b0 f i globalrec.obj
 0001:000157b0       ??$forward@AEAPEAU?$_Tree_node@PEAVcell_t@xlslib_core@@PEAX@std@@@std@@YAAEAPEAU?$_Tree_node@PEAVcell_t@xlslib_core@@PEAX@0@AEAPEAU10@@Z 00000001800167b0 f i sheetrec.obj
 0001:000157b0       ??$addressof@PEAVcell_t@xlslib_core@@@std@@YAPEAPEAVcell_t@xlslib_core@@AEAPEAV12@@Z 00000001800167b0 f i sheetrec.obj
 0001:000157b0       ?_Get_data@?$_Vector_alloc@U?$_Vec_base_types@PEAVformat_t@xlslib_core@@V?$allocator@PEAVformat_t@xlslib_core@@@std@@@std@@@std@@QEBAAEBV?$_Vector_val@U?$_Simple_types@PEAVformat_t@xlslib_core@@@std@@@2@XZ 00000001800167b0 f i globalrec.obj
 0001:000157b0       ?_Get_first@?$_Compressed_pair@Vinsertsort2@xlslib_core@@V?$_Compressed_pair@U?$_Wrap_alloc@V?$allocator@U?$_Tree_node@PEAVHPSFitem@xlslib_core@@PEAX@std@@@std@@@std@@V?$_Tree_val@U?$_Tree_simple_types@PEAVHPSFitem@xlslib_core@@@std@@@2@$00@std@@$00@std@@QEBAAEBVinsertsort2@xlslib_core@@XZ 00000001800167b0 f i HPSF.obj
 0001:000157b0       ?_Getal@?$_Vector_alloc@U?$_Vec_base_types@PEAVformula_t@xlslib_core@@V?$allocator@PEAVformula_t@xlslib_core@@@std@@@std@@@std@@QEBAAEBU?$_Wrap_alloc@V?$allocator@PEAVformula_t@xlslib_core@@@std@@@2@XZ 00000001800167b0 f i sheetrec.obj
 0001:000157b0       ?_Get_first@?$_Compressed_pair@U?$_Wrap_alloc@V?$allocator@Urowblocksize_t@xlslib_core@@@std@@@std@@V?$_Vector_val@U?$_Simple_types@Urowblocksize_t@xlslib_core@@@std@@@2@$00@std@@QEBAAEBU?$_Wrap_alloc@V?$allocator@Urowblocksize_t@xlslib_core@@@std@@@2@XZ 00000001800167b0 f i sheetrec.obj
 0001:000157b0       ??$forward@AEBQEAVxf_t@xlslib_core@@@std@@YAAEBQEAVxf_t@xlslib_core@@AEBQEAV12@@Z 00000001800167b0 f i globalrec.obj
 0001:000157b0       ??$_Unfancy@_S@std@@YAPEA_SPEA_S@Z 00000001800167b0 f i datast.obj
 0001:000157b0       ?_Get_second@?$_Compressed_pair@Vcolinfosort@xlslib_core@@V?$_Compressed_pair@U?$_Wrap_alloc@V?$allocator@U?$_Tree_node@PEAUcolinfo_t@xlslib_core@@PEAX@std@@@std@@@std@@V?$_Tree_val@U?$_Tree_simple_types@PEAUcolinfo_t@xlslib_core@@@std@@@2@$00@std@@$00@std@@QEAAAEAV?$_Compressed_pair@U?$_Wrap_alloc@V?$allocator@U?$_Tree_node@PEAUcolinfo_t@xlslib_core@@PEAX@std@@@std@@@std@@V?$_Tree_val@U?$_Tree_simple_types@PEAUcolinfo_t@xlslib_core@@@std@@@2@$00@2@XZ 00000001800167b0 f i sheetrec.obj
 0001:000157b0       ?_Get_first@?$_Compressed_pair@U?$_Wrap_alloc@V?$allocator@V?$basic_string@DU?$char_traits@D@std@@V?$allocator@D@2@@std@@@std@@@std@@V?$_Vector_val@U?$_Simple_types@V?$basic_string@DU?$char_traits@D@std@@V?$allocator@D@2@@std@@@std@@@2@$00@std@@QEAAAEAU?$_Wrap_alloc@V?$allocator@V?$basic_string@DU?$char_traits@D@std@@V?$allocator@D@2@@std@@@std@@@2@XZ 00000001800167b0 f i cbridge.obj
 0001:000157b0       ??$addressof@QEAUHyperLink@xlslib_core@@@std@@YAPEBQEAUHyperLink@xlslib_core@@AEBQEAU12@@Z 00000001800167b0 f i sheetrec.obj
 0001:000157b0       ??$addressof@PEAV?$basic_string@DU?$char_traits@D@std@@V?$allocator@D@2@@std@@@std@@YAPEAPEAV?$basic_string@DU?$char_traits@D@std@@V?$allocator@D@2@@0@AEAPEAV10@@Z 00000001800167b0 f i olefs.obj
 0001:000157b0       ??0?$allocator@PEAVworksheet@xlslib_core@@@std@@QEAA@XZ 00000001800167b0 f i workbook.obj
 0001:000157b0       ??0?$_Wrap_alloc@V?$allocator@PEAVxf_t@xlslib_core@@@std@@@std@@QEAA@XZ 00000001800167b0 f i globalrec.obj
 0001:000157b0       ?_Get_data@?$_Vector_alloc@U?$_Vec_base_types@NV?$allocator@N@std@@@std@@@std@@QEBAAEBV?$_Vector_val@U?$_Simple_types@N@std@@@2@XZ 00000001800167b0 f i cbridge.obj
 0001:000157b0       ?_Getal@?$_Vector_alloc@U?$_Vec_base_types@_KV?$allocator@_K@std@@@std@@@std@@QEBAAEBU?$_Wrap_alloc@V?$allocator@_K@std@@@2@XZ 00000001800167b0 f i sheetrec.obj
 0001:000157b0       ?_Myfirst@?$_Vector_alloc@U?$_Vec_base_types@V?$basic_string@_WU?$char_traits@_W@std@@V?$allocator@_W@2@@std@@V?$allocator@V?$basic_string@_WU?$char_traits@_W@std@@V?$allocator@_W@2@@std@@@2@@std@@@std@@QEBAAEBQEAV?$basic_string@_WU?$char_traits@_W@std@@V?$allocator@_W@2@@2@XZ 00000001800167b0 f i cbridge.obj
 0001:000157b0       ?_Get_second@?$_Compressed_pair@Vrowheightsort@xlslib_core@@V?$_Compressed_pair@U?$_Wrap_alloc@V?$allocator@U?$_Tree_node@PEAVrowheight_t@xlslib_core@@PEAX@std@@@std@@@std@@V?$_Tree_val@U?$_Tree_simple_types@PEAVrowheight_t@xlslib_core@@@std@@@2@$00@std@@$00@std@@QEBAAEBV?$_Compressed_pair@U?$_Wrap_alloc@V?$allocator@U?$_Tree_node@PEAVrowheight_t@xlslib_core@@PEAX@std@@@std@@@std@@V?$_Tree_val@U?$_Tree_simple_types@PEAVrowheight_t@xlslib_core@@@std@@@2@$00@2@XZ 00000001800167b0 f i sheetrec.obj
 0001:000157b0       ?_Get_data@?$_Vector_alloc@U?$_Vec_base_types@PEAVboundsheet_t@xlslib_core@@V?$allocator@PEAVboundsheet_t@xlslib_core@@@std@@@std@@@std@@QEAAAEAV?$_Vector_val@U?$_Simple_types@PEAVboundsheet_t@xlslib_core@@@std@@@2@XZ 00000001800167b0 f i globalrec.obj
 0001:000157b0       ?_Myfirst@?$_Vector_alloc@U?$_Vec_base_types@PEAVrange_t@xlslib_core@@V?$allocator@PEAVrange_t@xlslib_core@@@std@@@std@@@std@@QEBAAEBQEAPEAVrange_t@xlslib_core@@XZ 00000001800167b0 f i sheetrec.obj
 0001:000157b0       ?_Get_data@?$_Tree_comp_alloc@V?$_Tset_traits@PEAVHPSFitem@xlslib_core@@Vinsertsort2@2@V?$allocator@PEAVHPSFitem@xlslib_core@@@std@@$0A@@std@@@std@@QEBAAEBV?$_Tree_val@U?$_Tree_simple_types@PEAVHPSFitem@xlslib_core@@@std@@@2@XZ 00000001800167b0 f i HPSF.obj
 0001:000157b0       ??$addressof@PEAU?$_List_node@PEAV?$basic_string@DU?$char_traits@D@std@@V?$allocator@D@2@@std@@PEAX@std@@@std@@YAPEAPEAU?$_List_node@PEAV?$basic_string@DU?$char_traits@D@std@@V?$allocator@D@2@@std@@PEAX@0@AEAPEAU10@@Z 00000001800167b0 f i olefs.obj
 0001:000157b0       ?_Get_second@?$_Compressed_pair@U?$_Wrap_alloc@V?$allocator@PEAVboundsheet_t@xlslib_core@@@std@@@std@@V?$_Vector_val@U?$_Simple_types@PEAVboundsheet_t@xlslib_core@@@std@@@2@$00@std@@QEAAAEAV?$_Vector_val@U?$_Simple_types@PEAVboundsheet_t@xlslib_core@@@std@@@2@XZ 00000001800167b0 f i globalrec.obj
 0001:000157b0       ??$_Ptr_move_cat@PEAUstyle_t@xlslib_core@@PEAU12@@std@@YA?AU_Really_trivial_ptr_iterator_tag@0@AEBQEAPEAUstyle_t@xlslib_core@@0@Z 00000001800167b0 f i globalrec.obj
 0001:000157b0       ??0?$allocator@U?$_Tree_node@PEAVcell_t@xlslib_core@@PEAX@std@@@std@@QEAA@XZ 00000001800167b0 f i sheetrec.obj
 0001:000157b0       ??$forward@AEAPEAU?$_List_node@PEAV?$basic_string@DU?$char_traits@D@std@@V?$allocator@D@2@@std@@PEAX@std@@@std@@YAAEAPEAU?$_List_node@PEAV?$basic_string@DU?$char_traits@D@std@@V?$allocator@D@2@@std@@PEAX@0@AEAPEAU10@@Z 00000001800167b0 f i olefs.obj
 0001:000157b0       ??$addressof@PEAU?$_Tree_node@PEAVcell_t@xlslib_core@@PEAX@std@@@std@@YAPEAPEAU?$_Tree_node@PEAVcell_t@xlslib_core@@PEAX@0@AEAPEAU10@@Z 00000001800167b0 f i sheetrec.obj
 0001:000157b0       ?_Get_second@?$_Compressed_pair@U?$_Wrap_alloc@V?$allocator@PEAVformat_t@xlslib_core@@@std@@@std@@V?$_Vector_val@U?$_Simple_types@PEAVformat_t@xlslib_core@@@std@@@2@$00@std@@QEAAAEAV?$_Vector_val@U?$_Simple_types@PEAVformat_t@xlslib_core@@@std@@@2@XZ 00000001800167b0 f i globalrec.obj
 0001:000157b0       ??$forward@AEBV?$basic_string@DU?$char_traits@D@std@@V?$allocator@D@2@@std@@@std@@YAAEBV?$basic_string@DU?$char_traits@D@std@@V?$allocator@D@2@@0@AEBV10@@Z 00000001800167b0 f i cbridge.obj
 0001:000157b0       ?_Myfirst@?$_Vector_alloc@U?$_Vec_base_types@PEAUHyperLink@xlslib_core@@V?$allocator@PEAUHyperLink@xlslib_core@@@std@@@std@@@std@@QEBAAEBQEAPEAUHyperLink@xlslib_core@@XZ 00000001800167b0 f i sheetrec.obj
 0001:000157b0       ?_Getal@?$_Vector_alloc@U?$_Vec_base_types@PEAUHyperLink@xlslib_core@@V?$allocator@PEAUHyperLink@xlslib_core@@@std@@@std@@@std@@QEBAAEBU?$_Wrap_alloc@V?$allocator@PEAUHyperLink@xlslib_core@@@std@@@2@XZ 00000001800167b0 f i sheetrec.obj
 0001:000157b0       ??$move@AEAV?$basic_string@DU?$char_traits@D@std@@V?$allocator@D@2@@std@@@std@@YA$$QEAV?$basic_string@DU?$char_traits@D@std@@V?$allocator@D@2@@0@AEAV10@@Z 00000001800167b0 f i cbridge.obj
 0001:000157b0       ??$_Unfancy@PEAUDataValidation@xlslib_core@@@std@@YAPEAPEAUDataValidation@xlslib_core@@PEAPEAU12@@Z 00000001800167b0 f i sheetrec.obj
 0001:000157b0       ??$addressof@QEAVfont_t@xlslib_core@@@std@@YAPEBQEAVfont_t@xlslib_core@@AEBQEAV12@@Z 00000001800167b0 f i globalrec.obj
 0001:000157b0       ?_Get_data@?$_Vector_alloc@U?$_Vec_base_types@_KV?$allocator@_K@std@@@std@@@std@@QEBAAEBV?$_Vector_val@U?$_Simple_types@_K@std@@@2@XZ 00000001800167b0 f i sheetrec.obj
 0001:000157b0       ?_Get_second@?$_Compressed_pair@U?$_Wrap_alloc@V?$allocator@PEAVxf_t@xlslib_core@@@std@@@std@@V?$_Vector_val@U?$_Simple_types@PEAVxf_t@xlslib_core@@@std@@@2@$00@std@@QEAAAEAV?$_Vector_val@U?$_Simple_types@PEAVxf_t@xlslib_core@@@std@@@2@XZ 00000001800167b0 f i globalrec.obj
 0001:000157b0       ??0?$_Wrap_alloc@V?$allocator@U?$_Tree_node@U?$pair@PEAVxf_t@xlslib_core@@UborderedXft@2@@std@@PEAX@std@@@std@@@std@@QEAA@XZ 00000001800167b0 f i range.obj
 0001:000157b0       ??$move@AEAUrowblocksize_t@xlslib_core@@@std@@YA$$QEAUrowblocksize_t@xlslib_core@@AEAU12@@Z 00000001800167b0 f i sheetrec.obj
 0001:000157b0       ?_Getal@?$_Vector_alloc@U?$_Vec_base_types@PEAUstyle_t@xlslib_core@@V?$allocator@PEAUstyle_t@xlslib_core@@@std@@@std@@@std@@QEBAAEBU?$_Wrap_alloc@V?$allocator@PEAUstyle_t@xlslib_core@@@std@@@2@XZ 00000001800167b0 f i globalrec.obj
 0001:000157b0       ?_Get_data@?$_Vector_alloc@U?$_Vec_base_types@PEAUstyle_t@xlslib_core@@V?$allocator@PEAUstyle_t@xlslib_core@@@std@@@std@@@std@@QEAAAEAV?$_Vector_val@U?$_Simple_types@PEAUstyle_t@xlslib_core@@@std@@@2@XZ 00000001800167b0 f i globalrec.obj
 0001:000157b0       ?_Get_data@?$_Vector_alloc@U?$_Vec_base_types@PEAVCOleProp@xlslib_core@@V?$allocator@PEAVCOleProp@xlslib_core@@@std@@@std@@@std@@QEAAAEAV?$_Vector_val@U?$_Simple_types@PEAVCOleProp@xlslib_core@@@std@@@2@XZ 00000001800167b0 f i oledoc.obj
 0001:000157b0       ?_Myhead@?$_Tree_comp_alloc@V?$_Tset_traits@PEAUcolinfo_t@xlslib_core@@Vcolinfosort@2@V?$allocator@PEAUcolinfo_t@xlslib_core@@@std@@$0A@@std@@@std@@QEBAAEBQEAU?$_Tree_node@PEAUcolinfo_t@xlslib_core@@PEAX@2@XZ 00000001800167b0 f i sheetrec.obj
 0001:000157b0       ??$_Unchecked@PEAPEAUDataValidation@xlslib_core@@@std@@YAPEAPEAUDataValidation@xlslib_core@@PEAPEAU12@@Z 00000001800167b0 f i sheetrec.obj
 0001:000157b0       ??0?$_Wrap_alloc@V?$allocator@U?$_List_node@PEAV?$basic_string@DU?$char_traits@D@std@@V?$allocator@D@2@@std@@PEAX@std@@@std@@@std@@QEAA@XZ 00000001800167b0 f i olefs.obj
 0001:000157b0       ?_Kfn@?$_Tset_traits@PEAVrowheight_t@xlslib_core@@Vrowheightsort@2@V?$allocator@PEAVrowheight_t@xlslib_core@@@std@@$0A@@std@@SAAEBQEAVrowheight_t@xlslib_core@@AEBQEAV34@@Z 00000001800167b0 f i sheetrec.obj
 0001:000157b0       ?_Get_second@?$_Compressed_pair@U?$_Wrap_alloc@V?$allocator@V?$basic_string@DU?$char_traits@D@std@@V?$allocator@D@2@@std@@@std@@@std@@V?$_Vector_val@U?$_Simple_types@V?$basic_string@DU?$char_traits@D@std@@V?$allocator@D@2@@std@@@std@@@2@$00@std@@QEAAAEAV?$_Vector_val@U?$_Simple_types@V?$basic_string@DU?$char_traits@D@std@@V?$allocator@D@2@@std@@@std@@@2@XZ 00000001800167b0 f i cbridge.obj
 0001:000157b0       ?_Getal@?$_Vector_alloc@U?$_Vec_base_types@NV?$allocator@N@std@@@std@@@std@@QEBAAEBU?$_Wrap_alloc@V?$allocator@N@std@@@2@XZ 00000001800167b0 f i cbridge.obj
 0001:000157b0       ?_Getcomp@?$_Tree_comp_alloc@V?$_Tset_traits@U?$pair@PEAVxf_t@xlslib_core@@UborderedXft@2@@std@@VxfSorter@xlslib_core@@V?$allocator@U?$pair@PEAVxf_t@xlslib_core@@UborderedXft@2@@std@@@2@$0A@@std@@@std@@QEAAAEAVxfSorter@xlslib_core@@XZ 00000001800167b0 f i range.obj
 0001:000157b0       ?_Get_first@?$_Compressed_pair@U?$_Wrap_alloc@V?$allocator@VCUnitStore@xlslib_core@@@std@@@std@@V?$_Vector_val@U?$_Simple_types@VCUnitStore@xlslib_core@@@std@@@2@$00@std@@QEBAAEBU?$_Wrap_alloc@V?$allocator@VCUnitStore@xlslib_core@@@std@@@2@XZ 00000001800167b0 f i datast.obj
 0001:000157b0       ?_Get_data@?$_Vector_alloc@U?$_Vec_base_types@PEAVxf_t@xlslib_core@@V?$allocator@PEAVxf_t@xlslib_core@@@std@@@std@@@std@@QEBAAEBV?$_Vector_val@U?$_Simple_types@PEAVxf_t@xlslib_core@@@std@@@2@XZ 00000001800167b0 f i globalrec.obj
 0001:000157b0       ?_Getcomp@?$_Tree_comp_alloc@V?$_Tset_traits@PEAVrowheight_t@xlslib_core@@Vrowheightsort@2@V?$allocator@PEAVrowheight_t@xlslib_core@@@std@@$0A@@std@@@std@@QEAAAEAVrowheightsort@xlslib_core@@XZ 00000001800167b0 f i sheetrec.obj
 0001:000157b0       ??$_Unchecked@PEAPEAVrange_t@xlslib_core@@@std@@YAPEAPEAVrange_t@xlslib_core@@PEAPEAV12@@Z 00000001800167b0 f i sheetrec.obj
 0001:000157b0       ??$forward@AEBU?$pair@PEAVxf_t@xlslib_core@@UborderedXft@2@@std@@@std@@YAAEBU?$pair@PEAVxf_t@xlslib_core@@UborderedXft@2@@0@AEBU10@@Z 00000001800167b0 f i range.obj
 0001:000157b0       ??$addressof@QEAVformat_t@xlslib_core@@@std@@YAPEBQEAVformat_t@xlslib_core@@AEBQEAV12@@Z 00000001800167b0 f i globalrec.obj
 0001:000157b0       ??$forward@AEAV?$basic_string@DU?$char_traits@D@std@@V?$allocator@D@2@@std@@@std@@YAAEAV?$basic_string@DU?$char_traits@D@std@@V?$allocator@D@2@@0@AEAV10@@Z 00000001800167b0 f i cbridge.obj
 0001:000157b0       ??0?$_Wrap_alloc@V?$allocator@_K@std@@@std@@QEAA@XZ 00000001800167b0 f i sheetrec.obj
 0001:000157b0       ?_Get_data@?$_Tree_comp_alloc@V?$_Tset_traits@PEAVrowheight_t@xlslib_core@@Vrowheightsort@2@V?$allocator@PEAVrowheight_t@xlslib_core@@@std@@$0A@@std@@@std@@QEAAAEAV?$_Tree_val@U?$_Tree_simple_types@PEAVrowheight_t@xlslib_core@@@std@@@2@XZ 00000001800167b0 f i sheetrec.obj
 0001:000157b0       ?_Get_data@?$_Vector_alloc@U?$_Vec_base_types@PEBVlabel_t@xlslib_core@@V?$allocator@PEBVlabel_t@xlslib_core@@@std@@@std@@@std@@QEBAAEBV?$_Vector_val@U?$_Simple_types@PEBVlabel_t@xlslib_core@@@std@@@2@XZ 00000001800167b0 f i datast.obj
 0001:000157b0       ??0?$allocator@VCUnitStore@xlslib_core@@@std@@QEAA@XZ 00000001800167b0 f i datast.obj
 0001:000157b0       ??$forward@AEBQEAVCOleProp@xlslib_core@@@std@@YAAEBQEAVCOleProp@xlslib_core@@AEBQEAV12@@Z 00000001800167b0 f i olefs.obj
 0001:000157b0       ?_Get_second@?$_Compressed_pair@U?$_Wrap_alloc@V?$allocator@D@std@@@std@@V?$_String_val@U?$_Simple_types@D@std@@@2@$00@std@@QEAAAEAV?$_String_val@U?$_Simple_types@D@std@@@2@XZ 00000001800167b0 f i assert_assist.obj
 0001:000157b0       ?_Getal@?$_Vector_alloc@U?$_Vec_base_types@PEAVformula_t@xlslib_core@@V?$allocator@PEAVformula_t@xlslib_core@@@std@@@std@@@std@@QEAAAEAU?$_Wrap_alloc@V?$allocator@PEAVformula_t@xlslib_core@@@std@@@2@XZ 00000001800167b0 f i sheetrec.obj
 0001:000157b0       ??$_Unchecked@V?$_Vector_val@U?$_Simple_types@VCUnitStore@xlslib_core@@@std@@@std@@@std@@YAPEAVCUnitStore@xlslib_core@@V?$_Vector_iterator@V?$_Vector_val@U?$_Simple_types@VCUnitStore@xlslib_core@@@std@@@std@@@0@@Z 00000001800167b0 f i datast.obj
 0001:000157b0       ??$forward@V?$allocator@D@std@@@std@@YA$$QEAV?$allocator@D@0@AEAV10@@Z 00000001800167b0 f i assert_assist.obj
 0001:000157b0       ?_Get_first@?$_Compressed_pair@U?$_Wrap_alloc@V?$allocator@PEAUDataValidation@xlslib_core@@@std@@@std@@V?$_Vector_val@U?$_Simple_types@PEAUDataValidation@xlslib_core@@@std@@@2@$00@std@@QEBAAEBU?$_Wrap_alloc@V?$allocator@PEAUDataValidation@xlslib_core@@@std@@@2@XZ 00000001800167b0 f i sheetrec.obj
 0001:000157b0       ??$forward@V?$allocator@_S@std@@@std@@YA$$QEAV?$allocator@_S@0@AEAV10@@Z 00000001800167b0 f i datast.obj
 0001:000157b0       ?_Get_data@?$_Vector_alloc@U?$_Vec_base_types@PEAVxf_t@xlslib_core@@V?$allocator@PEAVxf_t@xlslib_core@@@std@@@std@@@std@@QEAAAEAV?$_Vector_val@U?$_Simple_types@PEAVxf_t@xlslib_core@@@std@@@2@XZ 00000001800167b0 f i globalrec.obj
 0001:000157b0       ?_Get_first@?$_Compressed_pair@U?$_Wrap_alloc@V?$allocator@PEAVfont_t@xlslib_core@@@std@@@std@@V?$_Vector_val@U?$_Simple_types@PEAVfont_t@xlslib_core@@@std@@@2@$00@std@@QEAAAEAU?$_Wrap_alloc@V?$allocator@PEAVfont_t@xlslib_core@@@std@@@2@XZ 00000001800167b0 f i globalrec.obj
 0001:000157b0       ?_Get_data@?$_Vector_alloc@U?$_Vec_base_types@PEAVformula_t@xlslib_core@@V?$allocator@PEAVformula_t@xlslib_core@@@std@@@std@@@std@@QEBAAEBV?$_Vector_val@U?$_Simple_types@PEAVformula_t@xlslib_core@@@std@@@2@XZ 00000001800167b0 f i sheetrec.obj
 0001:000157b0       ??$addressof@PEAVHPSFitem@xlslib_core@@@std@@YAPEAPEAVHPSFitem@xlslib_core@@AEAPEAV12@@Z 00000001800167b0 f i HPSF.obj
 0001:000157b0       ?_Get_first@?$_Compressed_pair@U?$_Wrap_alloc@V?$allocator@PEAUHyperLink@xlslib_core@@@std@@@std@@V?$_Vector_val@U?$_Simple_types@PEAUHyperLink@xlslib_core@@@std@@@2@$00@std@@QEAAAEAU?$_Wrap_alloc@V?$allocator@PEAUHyperLink@xlslib_core@@@std@@@2@XZ 00000001800167b0 f i sheetrec.obj
 0001:000157b0       ?_Get_second@?$_Compressed_pair@U?$_Wrap_alloc@V?$allocator@PEAVworksheet@xlslib_core@@@std@@@std@@V?$_Vector_val@U?$_Simple_types@PEAVworksheet@xlslib_core@@@std@@@2@$00@std@@QEBAAEBV?$_Vector_val@U?$_Simple_types@PEAVworksheet@xlslib_core@@@std@@@2@XZ 00000001800167b0 f i workbook.obj
 0001:000157b0       ?_Get_second@?$_Compressed_pair@VxfSorter@xlslib_core@@V?$_Compressed_pair@U?$_Wrap_alloc@V?$allocator@U?$_Tree_node@U?$pair@PEAVxf_t@xlslib_core@@UborderedXft@2@@std@@PEAX@std@@@std@@@std@@V?$_Tree_val@U?$_Tree_simple_types@U?$pair@PEAVxf_t@xlslib_core@@UborderedXft@2@@std@@@std@@@2@$00@std@@$00@std@@QEAAAEAV?$_Compressed_pair@U?$_Wrap_alloc@V?$allocator@U?$_Tree_node@U?$pair@PEAVxf_t@xlslib_core@@UborderedXft@2@@std@@PEAX@std@@@std@@@std@@V?$_Tree_val@U?$_Tree_simple_types@U?$pair@PEAVxf_t@xlslib_core@@UborderedXft@2@@std@@@std@@@2@$00@2@XZ 00000001800167b0 f i range.obj
 0001:000157b0       ?_Get_second@?$_Compressed_pair@U?$_Wrap_alloc@V?$allocator@PEAVrange_t@xlslib_core@@@std@@@std@@V?$_Vector_val@U?$_Simple_types@PEAVrange_t@xlslib_core@@@std@@@2@$00@std@@QEBAAEBV?$_Vector_val@U?$_Simple_types@PEAVrange_t@xlslib_core@@@std@@@2@XZ 00000001800167b0 f i sheetrec.obj
 0001:000157b0       ??0_Bxty@?$_String_val@U?$_Simple_types@_W@std@@@std@@QEAA@XZ 00000001800167b0 f i cbridge.obj
 0001:000157b0       ??$_Unchecked@PEAPEAUstyle_t@xlslib_core@@@std@@YAPEAPEAUstyle_t@xlslib_core@@PEAPEAU12@@Z 00000001800167b0 f i globalrec.obj
 0001:000157b0       ??0?$allocator@V?$basic_string@_WU?$char_traits@_W@std@@V?$allocator@_W@2@@std@@@std@@QEAA@XZ 00000001800167b0 f i cbridge.obj
 0001:000157b0       ??$forward@AEBQEAUDataValidation@xlslib_core@@@std@@YAAEBQEAUDataValidation@xlslib_core@@AEBQEAU12@@Z 00000001800167b0 f i sheetrec.obj
 0001:000157b0       ?_Getal@?$_Vector_alloc@U?$_Vec_base_types@PEAVworksheet@xlslib_core@@V?$allocator@PEAVworksheet@xlslib_core@@@std@@@std@@@std@@QEAAAEAU?$_Wrap_alloc@V?$allocator@PEAVworksheet@xlslib_core@@@std@@@2@XZ 00000001800167b0 f i workbook.obj
 0001:000157b0       ?_Getal@?$_String_alloc@U?$_String_base_types@DV?$allocator@D@std@@@std@@@std@@QEAAAEAU?$_Wrap_alloc@V?$allocator@D@std@@@2@XZ 00000001800167b0 f i assert_assist.obj
 0001:000157b0       ?_Get_second@?$_Compressed_pair@Vinsertsort2@xlslib_core@@V?$_Compressed_pair@U?$_Wrap_alloc@V?$allocator@U?$_Tree_node@PEAVHPSFitem@xlslib_core@@PEAX@std@@@std@@@std@@V?$_Tree_val@U?$_Tree_simple_types@PEAVHPSFitem@xlslib_core@@@std@@@2@$00@std@@$00@std@@QEBAAEBV?$_Compressed_pair@U?$_Wrap_alloc@V?$allocator@U?$_Tree_node@PEAVHPSFitem@xlslib_core@@PEAX@std@@@std@@@std@@V?$_Tree_val@U?$_Tree_simple_types@PEAVHPSFitem@xlslib_core@@@std@@@2@$00@2@XZ 00000001800167b0 f i HPSF.obj
 0001:000157b0       ??$_Unchecked@V?$_Vector_val@U?$_Simple_types@PEAVCOleProp@xlslib_core@@@std@@@std@@@std@@YAPEAPEAVCOleProp@xlslib_core@@V?$_Vector_iterator@V?$_Vector_val@U?$_Simple_types@PEAVCOleProp@xlslib_core@@@std@@@std@@@0@@Z 00000001800167b0 f i olefs.obj
 0001:000157b0       ?_Get_first@?$_Compressed_pair@U?$_Wrap_alloc@V?$allocator@PEAUDataValidation@xlslib_core@@@std@@@std@@V?$_Vector_val@U?$_Simple_types@PEAUDataValidation@xlslib_core@@@std@@@2@$00@std@@QEAAAEAU?$_Wrap_alloc@V?$allocator@PEAUDataValidation@xlslib_core@@@std@@@2@XZ 00000001800167b0 f i sheetrec.obj
 0001:000157b0       ??$_Unfancy@PEAVboundsheet_t@xlslib_core@@@std@@YAPEAPEAVboundsheet_t@xlslib_core@@PEAPEAV12@@Z 00000001800167b0 f i globalrec.obj
 0001:000157b0       ??$forward@AEBUrowblocksize_t@xlslib_core@@@std@@YAAEBUrowblocksize_t@xlslib_core@@AEBU12@@Z 00000001800167b0 f i sheetrec.obj
 0001:000157b0       ??$forward@AEAPEAD@std@@YAAEAPEADAEAPEAD@Z 00000001800167b0 f i assert_assist.obj
 0001:000157b0       ??$_Ptr_move_cat@PEBVlabel_t@xlslib_core@@PEBV12@@std@@YA?AU_Really_trivial_ptr_iterator_tag@0@AEBQEAPEBVlabel_t@xlslib_core@@0@Z 00000001800167b0 f i globalrec.obj
 0001:000157b0       ??$forward@AEBQEAVCUnit@xlslib_core@@@std@@YAAEBQEAVCUnit@xlslib_core@@AEBQEAV12@@Z 00000001800167b0 f i datast.obj
 0001:000157b0       ??0?$_Wrap_alloc@V?$allocator@U?$_Tree_node@PEAVHPSFitem@xlslib_core@@PEAX@std@@@std@@@std@@QEAA@XZ 00000001800167b0 f i HPSF.obj
 0001:000157b0       ??$_Unchecked@PEAPEAVxf_t@xlslib_core@@@std@@YAPEAPEAVxf_t@xlslib_core@@PEAPEAV12@@Z 00000001800167b0 f i globalrec.obj
 0001:000157b0       ?_Kfn@?$_Tset_traits@U?$pair@PEAVxf_t@xlslib_core@@UborderedXft@2@@std@@VxfSorter@xlslib_core@@V?$allocator@U?$pair@PEAVxf_t@xlslib_core@@UborderedXft@2@@std@@@2@$0A@@std@@SAAEBU?$pair@PEAVxf_t@xlslib_core@@UborderedXft@2@@2@AEBU32@@Z 00000001800167b0 f i range.obj
 0001:000157b0       ?_Get_second@?$_Compressed_pair@U?$_Wrap_alloc@V?$allocator@PEAVrange@xlslib_core@@@std@@@std@@V?$_Vector_val@U?$_Simple_types@PEAVrange@xlslib_core@@@std@@@2@$00@std@@QEBAAEBV?$_Vector_val@U?$_Simple_types@PEAVrange@xlslib_core@@@std@@@2@XZ 00000001800167b0 f i sheetrec.obj
 0001:000157b0       ??$forward@AEBQEAVcell_t@xlslib_core@@@std@@YAAEBQEAVcell_t@xlslib_core@@AEBQEAV12@@Z 00000001800167b0 f i sheetrec.obj
 0001:000157b0       ?_Get_second@?$_Compressed_pair@U?$_Wrap_alloc@V?$allocator@PEAUDataValidation@xlslib_core@@@std@@@std@@V?$_Vector_val@U?$_Simple_types@PEAUDataValidation@xlslib_core@@@std@@@2@$00@std@@QEAAAEAV?$_Vector_val@U?$_Simple_types@PEAUDataValidation@xlslib_core@@@std@@@2@XZ 00000001800167b0 f i sheetrec.obj
 0001:000157b0       ?_Get_data@?$_String_alloc@U?$_String_base_types@_WV?$allocator@_W@std@@@std@@@std@@QEBAAEBV?$_String_val@U?$_Simple_types@_W@std@@@2@XZ 00000001800167b0 f i cbridge.obj
 0001:000157b0       ??$forward@AEBQEAVformat_t@xlslib_core@@@std@@YAAEBQEAVformat_t@xlslib_core@@AEBQEAV12@@Z 00000001800167b0 f i globalrec.obj
 0001:000157b0       ?_Getal@?$_String_alloc@U?$_String_base_types@_WV?$allocator@_W@std@@@std@@@std@@QEBAAEBU?$_Wrap_alloc@V?$allocator@_W@std@@@2@XZ 00000001800167b0 f i cbridge.obj
 0001:000157b0       ?pointer_to@?$pointer_traits@PEA_S@std@@SAPEA_SAEA_S@Z 00000001800167b0 f i sheetrec.obj
 0001:000157b0       ?_Get_first@?$_Compressed_pair@U?$_Wrap_alloc@V?$allocator@U?$_Tree_node@PEAUcolinfo_t@xlslib_core@@PEAX@std@@@std@@@std@@V?$_Tree_val@U?$_Tree_simple_types@PEAUcolinfo_t@xlslib_core@@@std@@@2@$00@std@@QEAAAEAU?$_Wrap_alloc@V?$allocator@U?$_Tree_node@PEAUcolinfo_t@xlslib_core@@PEAX@std@@@std@@@2@XZ 00000001800167b0 f i sheetrec.obj
 0001:000157b0       ?_Get_data@?$_Tree_comp_alloc@V?$_Tset_traits@PEAUcolinfo_t@xlslib_core@@Vcolinfosort@2@V?$allocator@PEAUcolinfo_t@xlslib_core@@@std@@$0A@@std@@@std@@QEBAAEBV?$_Tree_val@U?$_Tree_simple_types@PEAUcolinfo_t@xlslib_core@@@std@@@2@XZ 00000001800167b0 f i sheetrec.obj
 0001:000157b0       ?_Myfirst@?$_Vector_alloc@U?$_Vec_base_types@Urowblocksize_t@xlslib_core@@V?$allocator@Urowblocksize_t@xlslib_core@@@std@@@std@@@std@@QEAAAEAPEAUrowblocksize_t@xlslib_core@@XZ 00000001800167b0 f i sheetrec.obj
 0001:000157b0       ?_Get_second@?$_Compressed_pair@U?$_Wrap_alloc@V?$allocator@U?$_Tree_node@PEAVHPSFitem@xlslib_core@@PEAX@std@@@std@@@std@@V?$_Tree_val@U?$_Tree_simple_types@PEAVHPSFitem@xlslib_core@@@std@@@2@$00@std@@QEAAAEAV?$_Tree_val@U?$_Tree_simple_types@PEAVHPSFitem@xlslib_core@@@std@@@2@XZ 00000001800167b0 f i HPSF.obj
 0001:000157b0       ?_Get_first@?$_Compressed_pair@U?$_Wrap_alloc@V?$allocator@PEAVCUnit@xlslib_core@@@std@@@std@@V?$_Vector_val@U?$_Simple_types@PEAVCUnit@xlslib_core@@@std@@@2@$00@std@@QEAAAEAU?$_Wrap_alloc@V?$allocator@PEAVCUnit@xlslib_core@@@std@@@2@XZ 00000001800167b0 f i datast.obj
 0001:000157b0       ?_Get_second@?$_Compressed_pair@U?$_Wrap_alloc@V?$allocator@U?$_Tree_node@PEAVrowheight_t@xlslib_core@@PEAX@std@@@std@@@std@@V?$_Tree_val@U?$_Tree_simple_types@PEAVrowheight_t@xlslib_core@@@std@@@2@$00@std@@QEBAAEBV?$_Tree_val@U?$_Tree_simple_types@PEAVrowheight_t@xlslib_core@@@std@@@2@XZ 00000001800167b0 f i sheetrec.obj
 0001:000157b0       ?_Get_second@?$_Compressed_pair@U?$_Wrap_alloc@V?$allocator@U?$_Tree_node@PEAVcell_t@xlslib_core@@PEAX@std@@@std@@@std@@V?$_Tree_val@U?$_Tree_simple_types@PEAVcell_t@xlslib_core@@@std@@@2@$00@std@@QEBAAEBV?$_Tree_val@U?$_Tree_simple_types@PEAVcell_t@xlslib_core@@@std@@@2@XZ 00000001800167b0 f i sheetrec.obj
 0001:000157b0       ?_Get_data@?$_Vector_alloc@U?$_Vec_base_types@VCUnitStore@xlslib_core@@V?$allocator@VCUnitStore@xlslib_core@@@std@@@std@@@std@@QEBAAEBV?$_Vector_val@U?$_Simple_types@VCUnitStore@xlslib_core@@@std@@@2@XZ 00000001800167b0 f i datast.obj
 0001:000157b0       ??$addressof@QEAVrange@xlslib_core@@@std@@YAPEBQEAVrange@xlslib_core@@AEBQEAV12@@Z 00000001800167b0 f i sheetrec.obj
 0001:000157b0       ?_Myfirst@?$_Vector_alloc@U?$_Vec_base_types@PEAVxf_t@xlslib_core@@V?$allocator@PEAVxf_t@xlslib_core@@@std@@@std@@@std@@QEAAAEAPEAPEAVxf_t@xlslib_core@@XZ 00000001800167b0 f i globalrec.obj
 0001:000157b0       ?_Get_data@?$_String_alloc@U?$_String_base_types@DV?$allocator@D@std@@@std@@@std@@QEAAAEAV?$_String_val@U?$_Simple_types@D@std@@@2@XZ 00000001800167b0 f i assert_assist.obj
 0001:000157b0       ?_Myfirst@?$_Vector_alloc@U?$_Vec_base_types@PEAVformat_t@xlslib_core@@V?$allocator@PEAVformat_t@xlslib_core@@@std@@@std@@@std@@QEBAAEBQEAPEAVformat_t@xlslib_core@@XZ 00000001800167b0 f i globalrec.obj
 0001:000157b0       ?_Get_data@?$_Tree_comp_alloc@V?$_Tset_traits@PEAVHPSFitem@xlslib_core@@Vinsertsort2@2@V?$allocator@PEAVHPSFitem@xlslib_core@@@std@@$0A@@std@@@std@@QEAAAEAV?$_Tree_val@U?$_Tree_simple_types@PEAVHPSFitem@xlslib_core@@@std@@@2@XZ 00000001800167b0 f i HPSF.obj
 0001:000157b0       ??$_Unfancy@PEAVformat_t@xlslib_core@@@std@@YAPEAPEAVformat_t@xlslib_core@@PEAPEAV12@@Z 00000001800167b0 f i globalrec.obj
 0001:000157b0       ??$_Ptr_move_cat@PEAVfont_t@xlslib_core@@PEAV12@@std@@YA?AU_Really_trivial_ptr_iterator_tag@0@AEBQEAPEAVfont_t@xlslib_core@@0@Z 00000001800167b0 f i globalrec.obj
 0001:000157b0       ?_Kfn@?$_Tset_traits@PEAUcolinfo_t@xlslib_core@@Vcolinfosort@2@V?$allocator@PEAUcolinfo_t@xlslib_core@@@std@@$0A@@std@@SAAEBQEAUcolinfo_t@xlslib_core@@AEBQEAU34@@Z 00000001800167b0 f i sheetrec.obj
 0001:000157b0       ?_Getal@?$_Tree_comp_alloc@V?$_Tset_traits@PEAVcell_t@xlslib_core@@Vinsertsort@2@V?$allocator@PEAVcell_t@xlslib_core@@@std@@$0A@@std@@@std@@QEBAAEBU?$_Wrap_alloc@V?$allocator@U?$_Tree_node@PEAVcell_t@xlslib_core@@PEAX@std@@@std@@@2@XZ 00000001800167b0 f i sheetrec.obj
 0001:000157b0       ??$addressof@PEAU?$_Tree_node@U?$pair@PEAVxf_t@xlslib_core@@UborderedXft@2@@std@@PEAX@std@@@std@@YAPEAPEAU?$_Tree_node@U?$pair@PEAVxf_t@xlslib_core@@UborderedXft@2@@std@@PEAX@0@AEAPEAU10@@Z 00000001800167b0 f i range.obj
 0001:000157b0       ??$addressof@$$CBV?$basic_string@DU?$char_traits@D@std@@V?$allocator@D@2@@std@@@std@@YAPEBV?$basic_string@DU?$char_traits@D@std@@V?$allocator@D@2@@0@AEBV10@@Z 00000001800167b0 f i cbridge.obj
 0001:000157b0       ?_Getal@?$_Vector_alloc@U?$_Vec_base_types@PEAVboundsheet_t@xlslib_core@@V?$allocator@PEAVboundsheet_t@xlslib_core@@@std@@@std@@@std@@QEBAAEBU?$_Wrap_alloc@V?$allocator@PEAVboundsheet_t@xlslib_core@@@std@@@2@XZ 00000001800167b0 f i globalrec.obj
 0001:000157b0       ??$forward@AEBQEAVformula_t@xlslib_core@@@std@@YAAEBQEAVformula_t@xlslib_core@@AEBQEAV12@@Z 00000001800167b0 f i sheetrec.obj
 0001:000157b0       ?_Get_data@?$_String_alloc@U?$_String_base_types@_SV?$allocator@_S@std@@@std@@@std@@QEAAAEAV?$_String_val@U?$_Simple_types@_S@std@@@2@XZ 00000001800167b0 f i datast.obj
 0001:000157b0       ?_Myfirst@?$_Vector_alloc@U?$_Vec_base_types@PEAVCUnit@xlslib_core@@V?$allocator@PEAVCUnit@xlslib_core@@@std@@@std@@@std@@QEAAAEAPEAPEAVCUnit@xlslib_core@@XZ 00000001800167b0 f i datast.obj
 0001:000157b0       ??0?$_Wrap_alloc@V?$allocator@PEAVboundsheet_t@xlslib_core@@@std@@@std@@QEAA@XZ 00000001800167b0 f i globalrec.obj
 0001:000157b0       ?_Get_data@?$_Vector_alloc@U?$_Vec_base_types@PEAVboundsheet_t@xlslib_core@@V?$allocator@PEAVboundsheet_t@xlslib_core@@@std@@@std@@@std@@QEBAAEBV?$_Vector_val@U?$_Simple_types@PEAVboundsheet_t@xlslib_core@@@std@@@2@XZ 00000001800167b0 f i datast.obj
 0001:000157b0       ??$forward@AEAUborderedXft@xlslib_core@@@std@@YAAEAUborderedXft@xlslib_core@@AEAU12@@Z 00000001800167b0 f i range.obj
 0001:000157b0       ??$forward@AEAPEAVCUnit@xlslib_core@@@std@@YAAEAPEAVCUnit@xlslib_core@@AEAPEAV12@@Z 00000001800167b0 f i datast.obj
 0001:000157b0       ??0?$_Wrap_alloc@V?$allocator@_W@std@@@std@@QEAA@$$QEAU01@@Z 00000001800167b0 f i cbridge.obj
 0001:000157b0       ??$_Ptr_move_cat@PEAVxf_t@xlslib_core@@PEAV12@@std@@YA?AU_Really_trivial_ptr_iterator_tag@0@AEBQEAPEAVxf_t@xlslib_core@@0@Z 00000001800167b0 f i globalrec.obj
 0001:000157b0       ??$_Ptr_move_cat@PEAVformula_t@xlslib_core@@PEAV12@@std@@YA?AU_Really_trivial_ptr_iterator_tag@0@AEBQEAPEAVformula_t@xlslib_core@@0@Z 00000001800167b0 f i sheetrec.obj
 0001:000157b0       ?_Get_data@?$_Vector_alloc@U?$_Vec_base_types@PEAVCOleProp@xlslib_core@@V?$allocator@PEAVCOleProp@xlslib_core@@@std@@@std@@@std@@QEBAAEBV?$_Vector_val@U?$_Simple_types@PEAVCOleProp@xlslib_core@@@std@@@2@XZ 00000001800167b0 f i olefs.obj
 0001:000157b0       ?_Myfirst@?$_Vector_alloc@U?$_Vec_base_types@PEAVformat_t@xlslib_core@@V?$allocator@PEAVformat_t@xlslib_core@@@std@@@std@@@std@@QEAAAEAPEAPEAVformat_t@xlslib_core@@XZ 00000001800167b0 f i globalrec.obj
 0001:000157b0       ?_Getal@?$_Tree_comp_alloc@V?$_Tset_traits@U?$pair@PEAVxf_t@xlslib_core@@UborderedXft@2@@std@@VxfSorter@xlslib_core@@V?$allocator@U?$pair@PEAVxf_t@xlslib_core@@UborderedXft@2@@std@@@2@$0A@@std@@@std@@QEAAAEAU?$_Wrap_alloc@V?$allocator@U?$_Tree_node@U?$pair@PEAVxf_t@xlslib_core@@UborderedXft@2@@std@@PEAX@std@@@std@@@2@XZ 00000001800167b0 f i range.obj
 0001:000157b0       ?_Myfirst@?$_Vector_alloc@U?$_Vec_base_types@PEAVfont_t@xlslib_core@@V?$allocator@PEAVfont_t@xlslib_core@@@std@@@std@@@std@@QEAAAEAPEAPEAVfont_t@xlslib_core@@XZ 00000001800167b0 f i globalrec.obj
 0001:000157b0       ??$forward@AEAPEAU?$_Tree_node@PEAVrowheight_t@xlslib_core@@PEAX@std@@@std@@YAAEAPEAU?$_Tree_node@PEAVrowheight_t@xlslib_core@@PEAX@0@AEAPEAU10@@Z 00000001800167b0 f i sheetrec.obj
 0001:000157b0       ?_Get_first@?$_Compressed_pair@U?$_Wrap_alloc@V?$allocator@U?$_Tree_node@PEAVrowheight_t@xlslib_core@@PEAX@std@@@std@@@std@@V?$_Tree_val@U?$_Tree_simple_types@PEAVrowheight_t@xlslib_core@@@std@@@2@$00@std@@QEAAAEAU?$_Wrap_alloc@V?$allocator@U?$_Tree_node@PEAVrowheight_t@xlslib_core@@PEAX@std@@@std@@@2@XZ 00000001800167b0 f i sheetrec.obj
 0001:000157b0       ?_Myfirst@?$_Vector_alloc@U?$_Vec_base_types@PEAVCOleProp@xlslib_core@@V?$allocator@PEAVCOleProp@xlslib_core@@@std@@@std@@@std@@QEBAAEBQEAPEAVCOleProp@xlslib_core@@XZ 00000001800167b0 f i olefs.obj
 0001:000157b0       ?_Getal@?$_Tree_comp_alloc@V?$_Tset_traits@U?$pair@PEAVxf_t@xlslib_core@@UborderedXft@2@@std@@VxfSorter@xlslib_core@@V?$allocator@U?$pair@PEAVxf_t@xlslib_core@@UborderedXft@2@@std@@@2@$0A@@std@@@std@@QEBAAEBU?$_Wrap_alloc@V?$allocator@U?$_Tree_node@U?$pair@PEAVxf_t@xlslib_core@@UborderedXft@2@@std@@PEAX@std@@@std@@@2@XZ 00000001800167b0 f i range.obj
 0001:000157b0       ??0?$allocator@V?$basic_string@DU?$char_traits@D@std@@V?$allocator@D@2@@std@@@std@@QEAA@XZ 00000001800167b0 f i cbridge.obj
 0001:000157b0       ?pointer_to@?$pointer_traits@PEAVCUnitStore@xlslib_core@@@std@@SAPEAVCUnitStore@xlslib_core@@AEAV34@@Z 00000001800167b0 f i datast.obj
 0001:000157b0       ??$_Unfancy@PEAVworksheet@xlslib_core@@@std@@YAPEAPEAVworksheet@xlslib_core@@PEAPEAV12@@Z 00000001800167b0 f i workbook.obj
 0001:000157b0       ?_Get_second@?$_Compressed_pair@U?$_Wrap_alloc@V?$allocator@_K@std@@@std@@V?$_Vector_val@U?$_Simple_types@_K@std@@@2@$00@std@@QEBAAEBV?$_Vector_val@U?$_Simple_types@_K@std@@@2@XZ 00000001800167b0 f i sheetrec.obj
 0001:000157b0       ??0?$allocator@PEAVCOleProp@xlslib_core@@@std@@QEAA@XZ 00000001800167b0 f i oledoc.obj
 0001:000157b0       ?_Getal@?$_Vector_alloc@U?$_Vec_base_types@PEAVCOleProp@xlslib_core@@V?$allocator@PEAVCOleProp@xlslib_core@@@std@@@std@@@std@@QEBAAEBU?$_Wrap_alloc@V?$allocator@PEAVCOleProp@xlslib_core@@@std@@@2@XZ 00000001800167b0 f i olefs.obj
 0001:000157b0       ??$?0V?$allocator@_S@std@@@?$_Wrap_alloc@V?$allocator@_S@std@@@std@@QEAA@$$QEAV?$allocator@_S@1@@Z 00000001800167b0 f i datast.obj
 0001:000157b0       ??$forward@_N@std@@YA$$QEA_NAEA_N@Z 00000001800167b0 f i HPSF.obj
 0001:000157b0       ?_Get_data@?$_Vector_alloc@U?$_Vec_base_types@V?$basic_string@_WU?$char_traits@_W@std@@V?$allocator@_W@2@@std@@V?$allocator@V?$basic_string@_WU?$char_traits@_W@std@@V?$allocator@_W@2@@std@@@2@@std@@@std@@QEBAAEBV?$_Vector_val@U?$_Simple_types@V?$basic_string@_WU?$char_traits@_W@std@@V?$allocator@_W@2@@std@@@std@@@2@XZ 00000001800167b0 f i cbridge.obj
 0001:000157b0       ??$forward@V?$_Tree_const_iterator@V?$_Tree_val@U?$_Tree_simple_types@PEAUcolinfo_t@xlslib_core@@@std@@@std@@@std@@@std@@YA$$QEAV?$_Tree_const_iterator@V?$_Tree_val@U?$_Tree_simple_types@PEAUcolinfo_t@xlslib_core@@@std@@@std@@@0@AEAV10@@Z 00000001800167b0 f i sheetrec.obj
 0001:000157b0       ?select_on_container_copy_construction@?$allocator_traits@V?$allocator@_W@std@@@std@@SA?AV?$allocator@_W@2@AEBV32@@Z 00000001800167b0 f i cbridge.obj
 0001:000157b0       ?_Get_first@?$_Compressed_pair@U?$_Wrap_alloc@V?$allocator@U?$_List_node@PEAV?$basic_string@DU?$char_traits@D@std@@V?$allocator@D@2@@std@@PEAX@std@@@std@@@std@@V?$_List_val@U?$_List_simple_types@PEAV?$basic_string@DU?$char_traits@D@std@@V?$allocator@D@2@@std@@@std@@@2@$00@std@@QEAAAEAU?$_Wrap_alloc@V?$allocator@U?$_List_node@PEAV?$basic_string@DU?$char_traits@D@std@@V?$allocator@D@2@@std@@PEAX@std@@@std@@@2@XZ 00000001800167b0 f i olefs.obj
 0001:000157b0       ??$addressof@PEAU?$_Tree_node@PEAVrowheight_t@xlslib_core@@PEAX@std@@@std@@YAPEAPEAU?$_Tree_node@PEAVrowheight_t@xlslib_core@@PEAX@0@AEAPEAU10@@Z 00000001800167b0 f i sheetrec.obj
 0001:000157b0       ?_Get_data@?$_Vector_alloc@U?$_Vec_base_types@V?$basic_string@_WU?$char_traits@_W@std@@V?$allocator@_W@2@@std@@V?$allocator@V?$basic_string@_WU?$char_traits@_W@std@@V?$allocator@_W@2@@std@@@2@@std@@@std@@QEAAAEAV?$_Vector_val@U?$_Simple_types@V?$basic_string@_WU?$char_traits@_W@std@@V?$allocator@_W@2@@std@@@std@@@2@XZ 00000001800167b0 f i cbridge.obj
 0001:000157b0       ??$addressof@QEAUstyle_t@xlslib_core@@@std@@YAPEBQEAUstyle_t@xlslib_core@@AEBQEAU12@@Z 00000001800167b0 f i globalrec.obj
 0001:000157b0       ?_Bx@?$_String_alloc@U?$_String_base_types@_WV?$allocator@_W@std@@@std@@@std@@QEAAAEAT_Bxty@?$_String_val@U?$_Simple_types@_W@std@@@2@XZ 00000001800167b0 f i cbridge.obj
 0001:000157b0       ?_Getal@?$_Vector_alloc@U?$_Vec_base_types@PEAVfont_t@xlslib_core@@V?$allocator@PEAVfont_t@xlslib_core@@@std@@@std@@@std@@QEAAAEAU?$_Wrap_alloc@V?$allocator@PEAVfont_t@xlslib_core@@@std@@@2@XZ 00000001800167b0 f i globalrec.obj
 0001:000157b0       ?_Get_second@?$_Compressed_pair@U?$_Wrap_alloc@V?$allocator@PEAUstyle_t@xlslib_core@@@std@@@std@@V?$_Vector_val@U?$_Simple_types@PEAUstyle_t@xlslib_core@@@std@@@2@$00@std@@QEAAAEAV?$_Vector_val@U?$_Simple_types@PEAUstyle_t@xlslib_core@@@std@@@2@XZ 00000001800167b0 f i globalrec.obj
 0001:000157b0       ?_Myfirst@?$_Vector_alloc@U?$_Vec_base_types@PEAVformula_t@xlslib_core@@V?$allocator@PEAVformula_t@xlslib_core@@@std@@@std@@@std@@QEAAAEAPEAPEAVformula_t@xlslib_core@@XZ 00000001800167b0 f i sheetrec.obj
 0001:000157b0       ?_Myfirst@?$_Vector_alloc@U?$_Vec_base_types@V?$basic_string@_WU?$char_traits@_W@std@@V?$allocator@_W@2@@std@@V?$allocator@V?$basic_string@_WU?$char_traits@_W@std@@V?$allocator@_W@2@@std@@@2@@std@@@std@@QEAAAEAPEAV?$basic_string@_WU?$char_traits@_W@std@@V?$allocator@_W@2@@2@XZ 00000001800167b0 f i cbridge.obj
 0001:000157b0       ?_Getal@?$_Vector_alloc@U?$_Vec_base_types@PEAVxf_t@xlslib_core@@V?$allocator@PEAVxf_t@xlslib_core@@@std@@@std@@@std@@QEAAAEAU?$_Wrap_alloc@V?$allocator@PEAVxf_t@xlslib_core@@@std@@@2@XZ 00000001800167b0 f i globalrec.obj
 0001:000157b0       ??0?$allocator@PEAVboundsheet_t@xlslib_core@@@std@@QEAA@XZ 00000001800167b0 f i globalrec.obj
 0001:000157b0       ??$addressof@_S@std@@YAPEA_SAEA_S@Z 00000001800167b0 f i sheetrec.obj
 0001:000157b0       ??0?$_Wrap_alloc@V?$allocator@U?$_Tree_node@PEAVcell_t@xlslib_core@@PEAX@std@@@std@@@std@@QEAA@XZ 00000001800167b0 f i sheetrec.obj
 0001:000157b0       ?_Get_second@?$_Compressed_pair@U?$_Wrap_alloc@V?$allocator@U?$_Tree_node@PEAVrowheight_t@xlslib_core@@PEAX@std@@@std@@@std@@V?$_Tree_val@U?$_Tree_simple_types@PEAVrowheight_t@xlslib_core@@@std@@@2@$00@std@@QEAAAEAV?$_Tree_val@U?$_Tree_simple_types@PEAVrowheight_t@xlslib_core@@@std@@@2@XZ 00000001800167b0 f i sheetrec.obj
 0001:000157b0       ?_Get_first@?$_Compressed_pair@U?$_Wrap_alloc@V?$allocator@U?$_Tree_node@PEAUcolinfo_t@xlslib_core@@PEAX@std@@@std@@@std@@V?$_Tree_val@U?$_Tree_simple_types@PEAUcolinfo_t@xlslib_core@@@std@@@2@$00@std@@QEBAAEBU?$_Wrap_alloc@V?$allocator@U?$_Tree_node@PEAUcolinfo_t@xlslib_core@@PEAX@std@@@std@@@2@XZ 00000001800167b0 f i sheetrec.obj
 0001:000157b0       ?_Get_second@?$_Compressed_pair@U?$_Wrap_alloc@V?$allocator@PEAVformula_t@xlslib_core@@@std@@@std@@V?$_Vector_val@U?$_Simple_types@PEAVformula_t@xlslib_core@@@std@@@2@$00@std@@QEBAAEBV?$_Vector_val@U?$_Simple_types@PEAVformula_t@xlslib_core@@@std@@@2@XZ 00000001800167b0 f i sheetrec.obj
 0001:000157b0       ??$_Unchecked@PEAUrowblocksize_t@xlslib_core@@@std@@YAPEAUrowblocksize_t@xlslib_core@@PEAU12@@Z 00000001800167b0 f i sheetrec.obj
 0001:000157b0       ??$_Unfancy@PEAVrange@xlslib_core@@@std@@YAPEAPEAVrange@xlslib_core@@PEAPEAV12@@Z 00000001800167b0 f i sheetrec.obj
 0001:000157b0       ??$forward@AEBVcolinfosort@xlslib_core@@@std@@YAAEBVcolinfosort@xlslib_core@@AEBV12@@Z 00000001800167b0 f i sheetrec.obj
 0001:000157b0       ?_Get_first@?$_Compressed_pair@U?$_Wrap_alloc@V?$allocator@_S@std@@@std@@V?$_String_val@U?$_Simple_types@_S@std@@@2@$00@std@@QEBAAEBU?$_Wrap_alloc@V?$allocator@_S@std@@@2@XZ 00000001800167b0 f i datast.obj
 0001:000157b0       ??0?$allocator@U?$_Tree_node@PEAVHPSFitem@xlslib_core@@PEAX@std@@@std@@QEAA@XZ 00000001800167b0 f i HPSF.obj
 0001:000157b0       ??$_Ptr_move_cat@PEAVCOleProp@xlslib_core@@PEAV12@@std@@YA?AU_Really_trivial_ptr_iterator_tag@0@AEBQEAPEAVCOleProp@xlslib_core@@0@Z 00000001800167b0 f i olefs.obj
 0001:000157b0       ??$addressof@$$CBN@std@@YAPEBNAEBN@Z 00000001800167b0 f i cbridge.obj
 0001:000157b0       ??$addressof@PEA_S@std@@YAPEAPEA_SAEAPEA_S@Z 00000001800167b0 f i datast.obj
 0001:000157b0       ?_Get_data@?$_Vector_alloc@U?$_Vec_base_types@PEBVlabel_t@xlslib_core@@V?$allocator@PEBVlabel_t@xlslib_core@@@std@@@std@@@std@@QEAAAEAV?$_Vector_val@U?$_Simple_types@PEBVlabel_t@xlslib_core@@@std@@@2@XZ 00000001800167b0 f i globalrec.obj
 0001:000157b0       ??$?0AEBV?$allocator@D@std@@@?$_Wrap_alloc@V?$allocator@D@std@@@std@@QEAA@AEBV?$allocator@D@1@@Z 00000001800167b0 f i olefs.obj
 0001:000157b0       ?_Get_first@?$_Compressed_pair@U?$_Wrap_alloc@V?$allocator@_W@std@@@std@@V?$_String_val@U?$_Simple_types@_W@std@@@2@$00@std@@QEAAAEAU?$_Wrap_alloc@V?$allocator@_W@std@@@2@XZ 00000001800167b0 f i cbridge.obj
 0001:000157b0       ?_Get_second@?$_Compressed_pair@U?$_Wrap_alloc@V?$allocator@PEAVrange_t@xlslib_core@@@std@@@std@@V?$_Vector_val@U?$_Simple_types@PEAVrange_t@xlslib_core@@@std@@@2@$00@std@@QEAAAEAV?$_Vector_val@U?$_Simple_types@PEAVrange_t@xlslib_core@@@std@@@2@XZ 00000001800167b0 f i sheetrec.obj
 0001:000157b0       ?_Getal@?$_Vector_alloc@U?$_Vec_base_types@PEAVrange@xlslib_core@@V?$allocator@PEAVrange@xlslib_core@@@std@@@std@@@std@@QEAAAEAU?$_Wrap_alloc@V?$allocator@PEAVrange@xlslib_core@@@std@@@2@XZ 00000001800167b0 f i sheetrec.obj
 0001:000157b0       ??$_Ptr_move_cat@PEAUDataValidation@xlslib_core@@PEAU12@@std@@YA?AU_Really_trivial_ptr_iterator_tag@0@AEBQEAPEAUDataValidation@xlslib_core@@0@Z 00000001800167b0 f i sheetrec.obj
 0001:000157b0       ?_Get_first@?$_Compressed_pair@U?$_Wrap_alloc@V?$allocator@PEAUstyle_t@xlslib_core@@@std@@@std@@V?$_Vector_val@U?$_Simple_types@PEAUstyle_t@xlslib_core@@@std@@@2@$00@std@@QEBAAEBU?$_Wrap_alloc@V?$allocator@PEAUstyle_t@xlslib_core@@@std@@@2@XZ 00000001800167b0 f i globalrec.obj
 0001:000157b0       ??0?$_Wrap_alloc@V?$allocator@PEAUstyle_t@xlslib_core@@@std@@@std@@QEAA@XZ 00000001800167b0 f i globalrec.obj
 0001:000157b0       ??0?$_Wrap_alloc@V?$allocator@N@std@@@std@@QEAA@XZ 00000001800167b0 f i cbridge.obj
 0001:000157b0       ?_Get_first@?$_Compressed_pair@U?$_Wrap_alloc@V?$allocator@PEAVformula_t@xlslib_core@@@std@@@std@@V?$_Vector_val@U?$_Simple_types@PEAVformula_t@xlslib_core@@@std@@@2@$00@std@@QEBAAEBU?$_Wrap_alloc@V?$allocator@PEAVformula_t@xlslib_core@@@std@@@2@XZ 00000001800167b0 f i sheetrec.obj
 0001:000157b0       ?_Get_data@?$_Vector_alloc@U?$_Vec_base_types@PEAVrange_t@xlslib_core@@V?$allocator@PEAVrange_t@xlslib_core@@@std@@@std@@@std@@QEBAAEBV?$_Vector_val@U?$_Simple_types@PEAVrange_t@xlslib_core@@@std@@@2@XZ 00000001800167b0 f i sheetrec.obj
 0001:000157b0       ??$forward@AEBQEAV?$basic_string@DU?$char_traits@D@std@@V?$allocator@D@2@@std@@@std@@YAAEBQEAV?$basic_string@DU?$char_traits@D@std@@V?$allocator@D@2@@0@AEBQEAV10@@Z 00000001800167b0 f i olefs.obj
 0001:000157b0       ?_Get_data@?$_Vector_alloc@U?$_Vec_base_types@PEAVworksheet@xlslib_core@@V?$allocator@PEAVworksheet@xlslib_core@@@std@@@std@@@std@@QEBAAEBV?$_Vector_val@U?$_Simple_types@PEAVworksheet@xlslib_core@@@std@@@2@XZ 00000001800167b0 f i workbook.obj
 0001:000157b0       ?_Getal@?$_String_alloc@U?$_String_base_types@_SV?$allocator@_S@std@@@std@@@std@@QEBAAEBU?$_Wrap_alloc@V?$allocator@_S@std@@@2@XZ 00000001800167b0 f i datast.obj
 0001:000157b0       ?_Get_data@?$_List_alloc@U?$_List_base_types@PEAV?$basic_string@DU?$char_traits@D@std@@V?$allocator@D@2@@std@@V?$allocator@PEAV?$basic_string@DU?$char_traits@D@std@@V?$allocator@D@2@@std@@@2@@std@@@std@@QEBAAEBV?$_List_val@U?$_List_simple_types@PEAV?$basic_string@DU?$char_traits@D@std@@V?$allocator@D@2@@std@@@std@@@2@XZ 00000001800167b0 f i olefs.obj
 0001:000157b0       ?_Get_second@?$_Compressed_pair@U?$_Wrap_alloc@V?$allocator@PEAUHyperLink@xlslib_core@@@std@@@std@@V?$_Vector_val@U?$_Simple_types@PEAUHyperLink@xlslib_core@@@std@@@2@$00@std@@QEAAAEAV?$_Vector_val@U?$_Simple_types@PEAUHyperLink@xlslib_core@@@std@@@2@XZ 00000001800167b0 f i sheetrec.obj
 0001:000157b0       ?_Get_second@?$_Compressed_pair@U?$_Wrap_alloc@V?$allocator@_W@std@@@std@@V?$_String_val@U?$_Simple_types@_W@std@@@2@$00@std@@QEBAAEBV?$_String_val@U?$_Simple_types@_W@std@@@2@XZ 00000001800167b0 f i cbridge.obj
 0001:000157b0       ?_Get_data@?$_Vector_alloc@U?$_Vec_base_types@PEAUHyperLink@xlslib_core@@V?$allocator@PEAUHyperLink@xlslib_core@@@std@@@std@@@std@@QEAAAEAV?$_Vector_val@U?$_Simple_types@PEAUHyperLink@xlslib_core@@@std@@@2@XZ 00000001800167b0 f i sheetrec.obj
 0001:000157b0       ?_Get_first@?$_Compressed_pair@U?$_Wrap_alloc@V?$allocator@U?$_Tree_node@PEAVrowheight_t@xlslib_core@@PEAX@std@@@std@@@std@@V?$_Tree_val@U?$_Tree_simple_types@PEAVrowheight_t@xlslib_core@@@std@@@2@$00@std@@QEBAAEBU?$_Wrap_alloc@V?$allocator@U?$_Tree_node@PEAVrowheight_t@xlslib_core@@PEAX@std@@@std@@@2@XZ 00000001800167b0 f i sheetrec.obj
 0001:000157b0       ?_Getal@?$_Vector_alloc@U?$_Vec_base_types@V?$basic_string@_WU?$char_traits@_W@std@@V?$allocator@_W@2@@std@@V?$allocator@V?$basic_string@_WU?$char_traits@_W@std@@V?$allocator@_W@2@@std@@@2@@std@@@std@@QEBAAEBU?$_Wrap_alloc@V?$allocator@V?$basic_string@_WU?$char_traits@_W@std@@V?$allocator@_W@2@@std@@@std@@@2@XZ 00000001800167b0 f i cbridge.obj
 0001:000157b0       ??$addressof@$$CB_S@std@@YAPEB_SAEB_S@Z 00000001800167b0 f i globalrec.obj
 0001:000157b0       ??$forward@AEBQEAVrange_t@xlslib_core@@@std@@YAAEBQEAVrange_t@xlslib_core@@AEBQEAV12@@Z 00000001800167b0 f i sheetrec.obj
 0001:000157b0       ?_Get_first@?$_Compressed_pair@VxfSorter@xlslib_core@@V?$_Compressed_pair@U?$_Wrap_alloc@V?$allocator@U?$_Tree_node@U?$pair@PEAVxf_t@xlslib_core@@UborderedXft@2@@std@@PEAX@std@@@std@@@std@@V?$_Tree_val@U?$_Tree_simple_types@U?$pair@PEAVxf_t@xlslib_core@@UborderedXft@2@@std@@@std@@@2@$00@std@@$00@std@@QEAAAEAVxfSorter@xlslib_core@@XZ 00000001800167b0 f i range.obj
 0001:000157b0       ?_Myfirst@?$_Vector_alloc@U?$_Vec_base_types@V?$basic_string@DU?$char_traits@D@std@@V?$allocator@D@2@@std@@V?$allocator@V?$basic_string@DU?$char_traits@D@std@@V?$allocator@D@2@@std@@@2@@std@@@std@@QEAAAEAPEAV?$basic_string@DU?$char_traits@D@std@@V?$allocator@D@2@@2@XZ 00000001800167b0 f i cbridge.obj
 0001:000157b0       ??0?$allocator@PEAVCUnit@xlslib_core@@@std@@QEAA@XZ 00000001800167b0 f i datast.obj
 0001:000157b0       ?_Get_data@?$_Tree_comp_alloc@V?$_Tset_traits@PEAVcell_t@xlslib_core@@Vinsertsort@2@V?$allocator@PEAVcell_t@xlslib_core@@@std@@$0A@@std@@@std@@QEBAAEBV?$_Tree_val@U?$_Tree_simple_types@PEAVcell_t@xlslib_core@@@std@@@2@XZ 00000001800167b0 f i sheetrec.obj
 0001:000157b0       ??$forward@V?$_Tree_const_iterator@V?$_Tree_val@U?$_Tree_simple_types@PEAVHPSFitem@xlslib_core@@@std@@@std@@@std@@@std@@YA$$QEAV?$_Tree_const_iterator@V?$_Tree_val@U?$_Tree_simple_types@PEAVHPSFitem@xlslib_core@@@std@@@std@@@0@AEAV10@@Z 00000001800167b0 f i HPSF.obj
 0001:000157b0       ?_Getal@?$_Vector_alloc@U?$_Vec_base_types@PEAUDataValidation@xlslib_core@@V?$allocator@PEAUDataValidation@xlslib_core@@@std@@@std@@@std@@QEAAAEAU?$_Wrap_alloc@V?$allocator@PEAUDataValidation@xlslib_core@@@std@@@2@XZ 00000001800167b0 f i sheetrec.obj
 0001:000157b0       ?_Myhead@?$_Tree_comp_alloc@V?$_Tset_traits@PEAVrowheight_t@xlslib_core@@Vrowheightsort@2@V?$allocator@PEAVrowheight_t@xlslib_core@@@std@@$0A@@std@@@std@@QEBAAEBQEAU?$_Tree_node@PEAVrowheight_t@xlslib_core@@PEAX@2@XZ 00000001800167b0 f i sheetrec.obj
 0001:000157b0       ??$forward@AEBQEAUHyperLink@xlslib_core@@@std@@YAAEBQEAUHyperLink@xlslib_core@@AEBQEAU12@@Z 00000001800167b0 f i sheetrec.obj
 0001:000157b0       ?_Get_first@?$_Compressed_pair@U?$_Wrap_alloc@V?$allocator@PEAVboundsheet_t@xlslib_core@@@std@@@std@@V?$_Vector_val@U?$_Simple_types@PEAVboundsheet_t@xlslib_core@@@std@@@2@$00@std@@QEAAAEAU?$_Wrap_alloc@V?$allocator@PEAVboundsheet_t@xlslib_core@@@std@@@2@XZ 00000001800167b0 f i globalrec.obj
 0001:000157b0       ?_Left@?$_Tree_comp_alloc@V?$_Tset_traits@PEAVcell_t@xlslib_core@@Vinsertsort@2@V?$allocator@PEAVcell_t@xlslib_core@@@std@@$0A@@std@@@std@@SAAEAPEAU?$_Tree_node@PEAVcell_t@xlslib_core@@PEAX@2@PEAU32@@Z 00000001800167b0 f i sheetrec.obj
 0001:000157b0       ?_Getal@?$_Vector_alloc@U?$_Vec_base_types@PEAUHyperLink@xlslib_core@@V?$allocator@PEAUHyperLink@xlslib_core@@@std@@@std@@@std@@QEAAAEAU?$_Wrap_alloc@V?$allocator@PEAUHyperLink@xlslib_core@@@std@@@2@XZ 00000001800167b0 f i sheetrec.obj
 0001:000157b0       ??$_Unfancy@_K@std@@YAPEA_KPEA_K@Z 00000001800167b0 f i sheetrec.obj
 0001:000157b0       ?_Get_data@?$_Vector_alloc@U?$_Vec_base_types@PEAVCUnit@xlslib_core@@V?$allocator@PEAVCUnit@xlslib_core@@@std@@@std@@@std@@QEBAAEBV?$_Vector_val@U?$_Simple_types@PEAVCUnit@xlslib_core@@@std@@@2@XZ 00000001800167b0 f i datast.obj
 0001:000157b0       ?_Get_data@?$_Vector_alloc@U?$_Vec_base_types@NV?$allocator@N@std@@@std@@@std@@QEAAAEAV?$_Vector_val@U?$_Simple_types@N@std@@@2@XZ 00000001800167b0 f i cbridge.obj
 0001:000157b0       ??$forward@AEAPEAVworksheet@xlslib_core@@@std@@YAAEAPEAVworksheet@xlslib_core@@AEAPEAV12@@Z 00000001800167b0 f i workbook.obj
 0001:000157b0       ??$forward@AEAV?$_Tree_const_iterator@V?$_Tree_val@U?$_Tree_simple_types@U?$pair@PEAVxf_t@xlslib_core@@UborderedXft@2@@std@@@std@@@std@@@std@@@std@@YAAEAV?$_Tree_const_iterator@V?$_Tree_val@U?$_Tree_simple_types@U?$pair@PEAVxf_t@xlslib_core@@UborderedXft@2@@std@@@std@@@std@@@0@AEAV10@@Z 00000001800167b0 f i range.obj
 0001:000157b0       ?_Myfirst@?$_Vector_alloc@U?$_Vec_base_types@PEBVlabel_t@xlslib_core@@V?$allocator@PEBVlabel_t@xlslib_core@@@std@@@std@@@std@@QEBAAEBQEAPEBVlabel_t@xlslib_core@@XZ 00000001800167b0 f i datast.obj
 0001:000157b0       ?_Left@?$_Tree_val@U?$_Tree_simple_types@PEAVrowheight_t@xlslib_core@@@std@@@std@@SAAEAPEAU?$_Tree_node@PEAVrowheight_t@xlslib_core@@PEAX@2@PEAU32@@Z 00000001800167b0 f i sheetrec.obj
 0001:000157b0       ?_Getal@?$_Vector_alloc@U?$_Vec_base_types@Urowblocksize_t@xlslib_core@@V?$allocator@Urowblocksize_t@xlslib_core@@@std@@@std@@@std@@QEBAAEBU?$_Wrap_alloc@V?$allocator@Urowblocksize_t@xlslib_core@@@std@@@2@XZ 00000001800167b0 f i sheetrec.obj
 0001:000157b0       ?_Get_second@?$_Compressed_pair@U?$_Wrap_alloc@V?$allocator@PEAVworksheet@xlslib_core@@@std@@@std@@V?$_Vector_val@U?$_Simple_types@PEAVworksheet@xlslib_core@@@std@@@2@$00@std@@QEAAAEAV?$_Vector_val@U?$_Simple_types@PEAVworksheet@xlslib_core@@@std@@@2@XZ 00000001800167b0 f i workbook.obj
 0001:000157b0       ?_Get_first@?$_Compressed_pair@U?$_Wrap_alloc@V?$allocator@PEAVboundsheet_t@xlslib_core@@@std@@@std@@V?$_Vector_val@U?$_Simple_types@PEAVboundsheet_t@xlslib_core@@@std@@@2@$00@std@@QEBAAEBU?$_Wrap_alloc@V?$allocator@PEAVboundsheet_t@xlslib_core@@@std@@@2@XZ 00000001800167b0 f i globalrec.obj
 0001:000157b0       ??$?0U?$integral_constant@_N$00@std@@@_Any_tag@std@@QEAA@$$QEAU?$integral_constant@_N$00@1@@Z 00000001800167b0 f i cbridge.obj
 0001:000157b0       ?_Getal@?$_Vector_alloc@U?$_Vec_base_types@PEAVformat_t@xlslib_core@@V?$allocator@PEAVformat_t@xlslib_core@@@std@@@std@@@std@@QEBAAEBU?$_Wrap_alloc@V?$allocator@PEAVformat_t@xlslib_core@@@std@@@2@XZ 00000001800167b0 f i globalrec.obj
 0001:000157b0       ?_Getcomp@?$_Tree_comp_alloc@V?$_Tset_traits@PEAUcolinfo_t@xlslib_core@@Vcolinfosort@2@V?$allocator@PEAUcolinfo_t@xlslib_core@@@std@@$0A@@std@@@std@@QEAAAEAVcolinfosort@xlslib_core@@XZ 00000001800167b0 f i sheetrec.obj
 0001:000157b0       ?_Get_first@?$_Compressed_pair@U?$_Wrap_alloc@V?$allocator@PEAUHyperLink@xlslib_core@@@std@@@std@@V?$_Vector_val@U?$_Simple_types@PEAUHyperLink@xlslib_core@@@std@@@2@$00@std@@QEBAAEBU?$_Wrap_alloc@V?$allocator@PEAUHyperLink@xlslib_core@@@std@@@2@XZ 00000001800167b0 f i sheetrec.obj
 0001:000157b0       ??0?$allocator@U?$_List_node@PEAV?$basic_string@DU?$char_traits@D@std@@V?$allocator@D@2@@std@@PEAX@std@@@std@@QEAA@XZ 00000001800167b0 f i olefs.obj
 0001:000157b0       ?_Myfirst@?$_Vector_alloc@U?$_Vec_base_types@PEAVworksheet@xlslib_core@@V?$allocator@PEAVworksheet@xlslib_core@@@std@@@std@@@std@@QEBAAEBQEAPEAVworksheet@xlslib_core@@XZ 00000001800167b0 f i workbook.obj
 0001:000157b0       ?_Left@?$_Tree_comp_alloc@V?$_Tset_traits@PEAVHPSFitem@xlslib_core@@Vinsertsort2@2@V?$allocator@PEAVHPSFitem@xlslib_core@@@std@@$0A@@std@@@std@@SAAEAPEAU?$_Tree_node@PEAVHPSFitem@xlslib_core@@PEAX@2@PEAU32@@Z 00000001800167b0 f i HPSF.obj
 0001:000157b0       ??$_Unfancy@PEAVformula_t@xlslib_core@@@std@@YAPEAPEAVformula_t@xlslib_core@@PEAPEAV12@@Z 00000001800167b0 f i sheetrec.obj
 0001:000157b0       ??0_Bxty@?$_String_val@U?$_Simple_types@_S@std@@@std@@QEAA@XZ 00000001800167b0 f i datast.obj
 0001:000157b0       ??$forward@AEAPEAU?$_Tree_node@PEAVHPSFitem@xlslib_core@@PEAX@std@@@std@@YAAEAPEAU?$_Tree_node@PEAVHPSFitem@xlslib_core@@PEAX@0@AEAPEAU10@@Z 00000001800167b0 f i HPSF.obj
 0001:000157b0       ?_Get_second@?$_Compressed_pair@U?$_Wrap_alloc@V?$allocator@N@std@@@std@@V?$_Vector_val@U?$_Simple_types@N@std@@@2@$00@std@@QEAAAEAV?$_Vector_val@U?$_Simple_types@N@std@@@2@XZ 00000001800167b0 f i cbridge.obj
 0001:000157b0       ?_Get_second@?$_Compressed_pair@VxfSorter@xlslib_core@@V?$_Compressed_pair@U?$_Wrap_alloc@V?$allocator@U?$_Tree_node@U?$pair@PEAVxf_t@xlslib_core@@UborderedXft@2@@std@@PEAX@std@@@std@@@std@@V?$_Tree_val@U?$_Tree_simple_types@U?$pair@PEAVxf_t@xlslib_core@@UborderedXft@2@@std@@@std@@@2@$00@std@@$00@std@@QEBAAEBV?$_Compressed_pair@U?$_Wrap_alloc@V?$allocator@U?$_Tree_node@U?$pair@PEAVxf_t@xlslib_core@@UborderedXft@2@@std@@PEAX@std@@@std@@@std@@V?$_Tree_val@U?$_Tree_simple_types@U?$pair@PEAVxf_t@xlslib_core@@UborderedXft@2@@std@@@std@@@2@$00@2@XZ 00000001800167b0 f i range.obj
 0001:000157b0       ?_Get_data@?$_Vector_alloc@U?$_Vec_base_types@PEAVformula_t@xlslib_core@@V?$allocator@PEAVformula_t@xlslib_core@@@std@@@std@@@std@@QEAAAEAV?$_Vector_val@U?$_Simple_types@PEAVformula_t@xlslib_core@@@std@@@2@XZ 00000001800167b0 f i sheetrec.obj
 0001:000157b0       ?_Myfirst@?$_Vector_alloc@U?$_Vec_base_types@PEAVfont_t@xlslib_core@@V?$allocator@PEAVfont_t@xlslib_core@@@std@@@std@@@std@@QEBAAEBQEAPEAVfont_t@xlslib_core@@XZ 00000001800167b0 f i globalrec.obj
 0001:000157b0       ?_Get_first@?$_Compressed_pair@U?$_Wrap_alloc@V?$allocator@PEAVworksheet@xlslib_core@@@std@@@std@@V?$_Vector_val@U?$_Simple_types@PEAVworksheet@xlslib_core@@@std@@@2@$00@std@@QEAAAEAU?$_Wrap_alloc@V?$allocator@PEAVworksheet@xlslib_core@@@std@@@2@XZ 00000001800167b0 f i workbook.obj
 0001:000157b0       ??0?$allocator@_W@std@@QEAA@XZ 00000001800167b0 f i cbridge.obj
 0001:000157b0       ?_Myfirst@?$_Vector_alloc@U?$_Vec_base_types@PEAVrange@xlslib_core@@V?$allocator@PEAVrange@xlslib_core@@@std@@@std@@@std@@QEBAAEBQEAPEAVrange@xlslib_core@@XZ 00000001800167b0 f i sheetrec.obj
 0001:000157b0       ??$_Unchecked@PEAPEAVrange@xlslib_core@@@std@@YAPEAPEAVrange@xlslib_core@@PEAPEAV12@@Z 00000001800167b0 f i sheetrec.obj
 0001:000157b0       ?_Get_first@?$_Compressed_pair@U?$_Wrap_alloc@V?$allocator@PEAVrange_t@xlslib_core@@@std@@@std@@V?$_Vector_val@U?$_Simple_types@PEAVrange_t@xlslib_core@@@std@@@2@$00@std@@QEAAAEAU?$_Wrap_alloc@V?$allocator@PEAVrange_t@xlslib_core@@@std@@@2@XZ 00000001800167b0 f i sheetrec.obj
 0001:000157b0       ??$move@AEAPEAVCOleProp@xlslib_core@@@std@@YA$$QEAPEAVCOleProp@xlslib_core@@AEAPEAV12@@Z 00000001800167b0 f i olefs.obj
 0001:000157b0       ?_Get_first@?$_Compressed_pair@U?$_Wrap_alloc@V?$allocator@VCUnitStore@xlslib_core@@@std@@@std@@V?$_Vector_val@U?$_Simple_types@VCUnitStore@xlslib_core@@@std@@@2@$00@std@@QEAAAEAU?$_Wrap_alloc@V?$allocator@VCUnitStore@xlslib_core@@@std@@@2@XZ 00000001800167b0 f i datast.obj
 0001:000157b0       ?_Myfirst@?$_Vector_alloc@U?$_Vec_base_types@PEAVworksheet@xlslib_core@@V?$allocator@PEAVworksheet@xlslib_core@@@std@@@std@@@std@@QEAAAEAPEAPEAVworksheet@xlslib_core@@XZ 00000001800167b0 f i workbook.obj
 0001:000157b0       ?_Get_second@?$_Compressed_pair@Vinsertsort2@xlslib_core@@V?$_Compressed_pair@U?$_Wrap_alloc@V?$allocator@U?$_Tree_node@PEAVHPSFitem@xlslib_core@@PEAX@std@@@std@@@std@@V?$_Tree_val@U?$_Tree_simple_types@PEAVHPSFitem@xlslib_core@@@std@@@2@$00@std@@$00@std@@QEAAAEAV?$_Compressed_pair@U?$_Wrap_alloc@V?$allocator@U?$_Tree_node@PEAVHPSFitem@xlslib_core@@PEAX@std@@@std@@@std@@V?$_Tree_val@U?$_Tree_simple_types@PEAVHPSFitem@xlslib_core@@@std@@@2@$00@2@XZ 00000001800167b0 f i HPSF.obj
 0001:000157b0       ?_Getal@?$_Vector_alloc@U?$_Vec_base_types@PEAVrange@xlslib_core@@V?$allocator@PEAVrange@xlslib_core@@@std@@@std@@@std@@QEBAAEBU?$_Wrap_alloc@V?$allocator@PEAVrange@xlslib_core@@@std@@@2@XZ 00000001800167b0 f i sheetrec.obj
 0001:000157b0       ?_Myhead@?$_List_alloc@U?$_List_base_types@PEAV?$basic_string@DU?$char_traits@D@std@@V?$allocator@D@2@@std@@V?$allocator@PEAV?$basic_string@DU?$char_traits@D@std@@V?$allocator@D@2@@std@@@2@@std@@@std@@QEAAAEAPEAU?$_List_node@PEAV?$basic_string@DU?$char_traits@D@std@@V?$allocator@D@2@@std@@PEAX@2@XZ 00000001800167b0 f i olefs.obj
 0001:000157b0       ?_Myfirst@?$_Vector_alloc@U?$_Vec_base_types@PEAVrange@xlslib_core@@V?$allocator@PEAVrange@xlslib_core@@@std@@@std@@@std@@QEAAAEAPEAPEAVrange@xlslib_core@@XZ 00000001800167b0 f i sheetrec.obj
 0001:000157b0       ?_Myhead@?$_Tree_comp_alloc@V?$_Tset_traits@U?$pair@PEAVxf_t@xlslib_core@@UborderedXft@2@@std@@VxfSorter@xlslib_core@@V?$allocator@U?$pair@PEAVxf_t@xlslib_core@@UborderedXft@2@@std@@@2@$0A@@std@@@std@@QEAAAEAPEAU?$_Tree_node@U?$pair@PEAVxf_t@xlslib_core@@UborderedXft@2@@std@@PEAX@2@XZ 00000001800167b0 f i range.obj
 0001:000157b0       ??$forward@VCUnitStore@xlslib_core@@@std@@YA$$QEAVCUnitStore@xlslib_core@@AEAV12@@Z 00000001800167b0 f i datast.obj
 0001:000157b0       ?_Get_first@?$_Compressed_pair@Vinsertsort@xlslib_core@@V?$_Compressed_pair@U?$_Wrap_alloc@V?$allocator@U?$_Tree_node@PEAVcell_t@xlslib_core@@PEAX@std@@@std@@@std@@V?$_Tree_val@U?$_Tree_simple_types@PEAVcell_t@xlslib_core@@@std@@@2@$00@std@@$00@std@@QEBAAEBVinsertsort@xlslib_core@@XZ 00000001800167b0 f i sheetrec.obj
 0001:000157b0       ?_Get_second@?$_Compressed_pair@U?$_Wrap_alloc@V?$allocator@VCUnitStore@xlslib_core@@@std@@@std@@V?$_Vector_val@U?$_Simple_types@VCUnitStore@xlslib_core@@@std@@@2@$00@std@@QEBAAEBV?$_Vector_val@U?$_Simple_types@VCUnitStore@xlslib_core@@@std@@@2@XZ 00000001800167b0 f i datast.obj
 0001:000157b0       ?_Get_data@?$_Vector_alloc@U?$_Vec_base_types@PEAVrange_t@xlslib_core@@V?$allocator@PEAVrange_t@xlslib_core@@@std@@@std@@@std@@QEAAAEAV?$_Vector_val@U?$_Simple_types@PEAVrange_t@xlslib_core@@@std@@@2@XZ 00000001800167b0 f i sheetrec.obj
 0001:000157b0       ?pointer_to@?$pointer_traits@PEAD@std@@SAPEADAEAD@Z 00000001800167b0 f i binfile.obj
 0001:000157b0       ?_Get_second@?$_Compressed_pair@U?$_Wrap_alloc@V?$allocator@PEAVboundsheet_t@xlslib_core@@@std@@@std@@V?$_Vector_val@U?$_Simple_types@PEAVboundsheet_t@xlslib_core@@@std@@@2@$00@std@@QEBAAEBV?$_Vector_val@U?$_Simple_types@PEAVboundsheet_t@xlslib_core@@@std@@@2@XZ 00000001800167b0 f i datast.obj
 0001:000157b0       ??$_Unchecked@PEAPEAVCOleProp@xlslib_core@@@std@@YAPEAPEAVCOleProp@xlslib_core@@PEAPEAV12@@Z 00000001800167b0 f i olefs.obj
 0001:000157b0       ?_Getal@?$_List_alloc@U?$_List_base_types@PEAV?$basic_string@DU?$char_traits@D@std@@V?$allocator@D@2@@std@@V?$allocator@PEAV?$basic_string@DU?$char_traits@D@std@@V?$allocator@D@2@@std@@@2@@std@@@std@@QEBAAEBU?$_Wrap_alloc@V?$allocator@U?$_List_node@PEAV?$basic_string@DU?$char_traits@D@std@@V?$allocator@D@2@@std@@PEAX@std@@@std@@@2@XZ 00000001800167b0 f i olefs.obj
 0001:000157b0       ?_Myfirst@?$_Vector_alloc@U?$_Vec_base_types@PEAVboundsheet_t@xlslib_core@@V?$allocator@PEAVboundsheet_t@xlslib_core@@@std@@@std@@@std@@QEBAAEBQEAPEAVboundsheet_t@xlslib_core@@XZ 00000001800167b0 f i datast.obj
 0001:000157b0       ?_Get_second@?$_Compressed_pair@U?$_Wrap_alloc@V?$allocator@PEAVCUnit@xlslib_core@@@std@@@std@@V?$_Vector_val@U?$_Simple_types@PEAVCUnit@xlslib_core@@@std@@@2@$00@std@@QEAAAEAV?$_Vector_val@U?$_Simple_types@PEAVCUnit@xlslib_core@@@std@@@2@XZ 00000001800167b0 f i datast.obj
 0001:000157b0       ??$_Unfancy@D@std@@YAPEADPEAD@Z 00000001800167b0 f i assert_assist.obj
 0001:000157b0       ??$_Unfancy@VCUnitStore@xlslib_core@@@std@@YAPEAVCUnitStore@xlslib_core@@PEAV12@@Z 00000001800167b0 f i datast.obj
 0001:000157b0       ??$forward@AEBQEAUcolinfo_t@xlslib_core@@@std@@YAAEBQEAUcolinfo_t@xlslib_core@@AEBQEAU12@@Z 00000001800167b0 f i sheetrec.obj
 0001:000157b0       ??$addressof@QEAVformula_t@xlslib_core@@@std@@YAPEBQEAVformula_t@xlslib_core@@AEBQEAV12@@Z 00000001800167b0 f i sheetrec.obj
 0001:000157b0       ??$forward@_K@std@@YA$$QEA_KAEA_K@Z 00000001800167b0 f i sheetrec.obj
 0001:000157b0       ??$move@AEAV?$basic_string@_WU?$char_traits@_W@std@@V?$allocator@_W@2@@std@@@std@@YA$$QEAV?$basic_string@_WU?$char_traits@_W@std@@V?$allocator@_W@2@@0@AEAV10@@Z 00000001800167b0 f i cbridge.obj
 0001:000157b0       ?_Getal@?$_Vector_alloc@U?$_Vec_base_types@V?$basic_string@_WU?$char_traits@_W@std@@V?$allocator@_W@2@@std@@V?$allocator@V?$basic_string@_WU?$char_traits@_W@std@@V?$allocator@_W@2@@std@@@2@@std@@@std@@QEAAAEAU?$_Wrap_alloc@V?$allocator@V?$basic_string@_WU?$char_traits@_W@std@@V?$allocator@_W@2@@std@@@std@@@2@XZ 00000001800167b0 f i cbridge.obj
 0001:000157b0       ?_Get_first@?$_Compressed_pair@U?$_Wrap_alloc@V?$allocator@PEAVxf_t@xlslib_core@@@std@@@std@@V?$_Vector_val@U?$_Simple_types@PEAVxf_t@xlslib_core@@@std@@@2@$00@std@@QEBAAEBU?$_Wrap_alloc@V?$allocator@PEAVxf_t@xlslib_core@@@std@@@2@XZ 00000001800167b0 f i globalrec.obj
 0001:000157b0       ??0?$allocator@U?$_Tree_node@U?$pair@PEAVxf_t@xlslib_core@@UborderedXft@2@@std@@PEAX@std@@@std@@QEAA@XZ 00000001800167b0 f i range.obj
 0001:000157b0       ?_Myfirst@?$_Vector_alloc@U?$_Vec_base_types@Urowblocksize_t@xlslib_core@@V?$allocator@Urowblocksize_t@xlslib_core@@@std@@@std@@@std@@QEBAAEBQEAUrowblocksize_t@xlslib_core@@XZ 00000001800167b0 f i sheetrec.obj
 0001:000157b0       ?_Get_second@?$_Compressed_pair@U?$_Wrap_alloc@V?$allocator@PEAVfont_t@xlslib_core@@@std@@@std@@V?$_Vector_val@U?$_Simple_types@PEAVfont_t@xlslib_core@@@std@@@2@$00@std@@QEBAAEBV?$_Vector_val@U?$_Simple_types@PEAVfont_t@xlslib_core@@@std@@@2@XZ 00000001800167b0 f i globalrec.obj
 0001:000157b0       ??$addressof@QEAVxf_t@xlslib_core@@@std@@YAPEBQEAVxf_t@xlslib_core@@AEBQEAV12@@Z 00000001800167b0 f i globalrec.obj
 0001:000157b0       ?_Get_data@?$_Vector_alloc@U?$_Vec_base_types@PEAVrange@xlslib_core@@V?$allocator@PEAVrange@xlslib_core@@@std@@@std@@@std@@QEBAAEBV?$_Vector_val@U?$_Simple_types@PEAVrange@xlslib_core@@@std@@@2@XZ 00000001800167b0 f i sheetrec.obj
 0001:000157b0       ?_Left@?$_Tree_comp_alloc@V?$_Tset_traits@PEAUcolinfo_t@xlslib_core@@Vcolinfosort@2@V?$allocator@PEAUcolinfo_t@xlslib_core@@@std@@$0A@@std@@@std@@SAAEAPEAU?$_Tree_node@PEAUcolinfo_t@xlslib_core@@PEAX@2@PEAU32@@Z 00000001800167b0 f i sheetrec.obj
 0001:000157b0       ?_Get_first@?$_Compressed_pair@U?$_Wrap_alloc@V?$allocator@U?$_Tree_node@U?$pair@PEAVxf_t@xlslib_core@@UborderedXft@2@@std@@PEAX@std@@@std@@@std@@V?$_Tree_val@U?$_Tree_simple_types@U?$pair@PEAVxf_t@xlslib_core@@UborderedXft@2@@std@@@std@@@2@$00@std@@QEBAAEBU?$_Wrap_alloc@V?$allocator@U?$_Tree_node@U?$pair@PEAVxf_t@xlslib_core@@UborderedXft@2@@std@@PEAX@std@@@std@@@2@XZ 00000001800167b0 f i range.obj
 0001:000157b0       ?_Getal@?$_Vector_alloc@U?$_Vec_base_types@PEAVCUnit@xlslib_core@@V?$allocator@PEAVCUnit@xlslib_core@@@std@@@std@@@std@@QEBAAEBU?$_Wrap_alloc@V?$allocator@PEAVCUnit@xlslib_core@@@std@@@2@XZ 00000001800167b0 f i datast.obj
 0001:000157b0       ??0?$_Wrap_alloc@V?$allocator@VCUnitStore@xlslib_core@@@std@@@std@@QEAA@XZ 00000001800167b0 f i datast.obj
 0001:000157b0       ?_Myfirst@?$_Vector_alloc@U?$_Vec_base_types@PEAUstyle_t@xlslib_core@@V?$allocator@PEAUstyle_t@xlslib_core@@@std@@@std@@@std@@QEBAAEBQEAPEAUstyle_t@xlslib_core@@XZ 00000001800167b0 f i globalrec.obj
 0001:000157b0       ?_Get_second@?$_Compressed_pair@U?$_Wrap_alloc@V?$allocator@VCUnitStore@xlslib_core@@@std@@@std@@V?$_Vector_val@U?$_Simple_types@VCUnitStore@xlslib_core@@@std@@@2@$00@std@@QEAAAEAV?$_Vector_val@U?$_Simple_types@VCUnitStore@xlslib_core@@@std@@@2@XZ 00000001800167b0 f i datast.obj
 0001:000157b0       ??0?$_Wrap_alloc@V?$allocator@PEAVrange@xlslib_core@@@std@@@std@@QEAA@XZ 00000001800167b0 f i sheetrec.obj
 0001:000157b0       ?_Myfirst@?$_Vector_alloc@U?$_Vec_base_types@_KV?$allocator@_K@std@@@std@@@std@@QEBAAEBQEA_KXZ 00000001800167b0 f i sheetrec.obj
 0001:000157b0       ??$addressof@QEAUDataValidation@xlslib_core@@@std@@YAPEBQEAUDataValidation@xlslib_core@@AEBQEAU12@@Z 00000001800167b0 f i sheetrec.obj
 0001:000157b0       ?_Get_first@?$_Compressed_pair@Vinsertsort2@xlslib_core@@V?$_Compressed_pair@U?$_Wrap_alloc@V?$allocator@U?$_Tree_node@PEAVHPSFitem@xlslib_core@@PEAX@std@@@std@@@std@@V?$_Tree_val@U?$_Tree_simple_types@PEAVHPSFitem@xlslib_core@@@std@@@2@$00@std@@$00@std@@QEAAAEAVinsertsort2@xlslib_core@@XZ 00000001800167b0 f i HPSF.obj
 0001:000157b0       ??0?$_Wrap_alloc@V?$allocator@D@std@@@std@@QEAA@$$QEAU01@@Z 00000001800167b0 f i assert_assist.obj
 0001:000157b0       ?_Get_first@?$_Compressed_pair@U?$_Wrap_alloc@V?$allocator@_K@std@@@std@@V?$_Vector_val@U?$_Simple_types@_K@std@@@2@$00@std@@QEAAAEAU?$_Wrap_alloc@V?$allocator@_K@std@@@2@XZ 00000001800167b0 f i sheetrec.obj
 0001:000157b0       ?_Get_data@?$_Vector_alloc@U?$_Vec_base_types@V?$basic_string@DU?$char_traits@D@std@@V?$allocator@D@2@@std@@V?$allocator@V?$basic_string@DU?$char_traits@D@std@@V?$allocator@D@2@@std@@@2@@std@@@std@@QEBAAEBV?$_Vector_val@U?$_Simple_types@V?$basic_string@DU?$char_traits@D@std@@V?$allocator@D@2@@std@@@std@@@2@XZ 00000001800167b0 f i cbridge.obj
 0001:000157b0       ?_Getal@?$_Tree_comp_alloc@V?$_Tset_traits@PEAVHPSFitem@xlslib_core@@Vinsertsort2@2@V?$allocator@PEAVHPSFitem@xlslib_core@@@std@@$0A@@std@@@std@@QEBAAEBU?$_Wrap_alloc@V?$allocator@U?$_Tree_node@PEAVHPSFitem@xlslib_core@@PEAX@std@@@std@@@2@XZ 00000001800167b0 f i HPSF.obj
 0001:000157b0       ?_Myfirst@?$_Vector_alloc@U?$_Vec_base_types@PEAUstyle_t@xlslib_core@@V?$allocator@PEAUstyle_t@xlslib_core@@@std@@@std@@@std@@QEAAAEAPEAPEAUstyle_t@xlslib_core@@XZ 00000001800167b0 f i globalrec.obj
 0001:000157b0       ?_Getal@?$_Vector_alloc@U?$_Vec_base_types@PEAUstyle_t@xlslib_core@@V?$allocator@PEAUstyle_t@xlslib_core@@@std@@@std@@@std@@QEAAAEAU?$_Wrap_alloc@V?$allocator@PEAUstyle_t@xlslib_core@@@std@@@2@XZ 00000001800167b0 f i globalrec.obj
 0001:000157b0       ?_Get_second@?$_Compressed_pair@U?$_Wrap_alloc@V?$allocator@V?$basic_string@_WU?$char_traits@_W@std@@V?$allocator@_W@2@@std@@@std@@@std@@V?$_Vector_val@U?$_Simple_types@V?$basic_string@_WU?$char_traits@_W@std@@V?$allocator@_W@2@@std@@@std@@@2@$00@std@@QEBAAEBV?$_Vector_val@U?$_Simple_types@V?$basic_string@_WU?$char_traits@_W@std@@V?$allocator@_W@2@@std@@@std@@@2@XZ 00000001800167b0 f i cbridge.obj
 0001:000157b0       ??$_Unfancy@PEAVrange_t@xlslib_core@@@std@@YAPEAPEAVrange_t@xlslib_core@@PEAPEAV12@@Z 00000001800167b0 f i sheetrec.obj
 0001:000157b0       ??$_Unfancy@_W@std@@YAPEA_WPEA_W@Z 00000001800167b0 f i cbridge.obj
 0001:000157b0       ?_Get_second@?$_Compressed_pair@U?$_Wrap_alloc@V?$allocator@_S@std@@@std@@V?$_String_val@U?$_Simple_types@_S@std@@@2@$00@std@@QEAAAEAV?$_String_val@U?$_Simple_types@_S@std@@@2@XZ 00000001800167b0 f i datast.obj
 0001:000157b0       ??$forward@U?$pair@PEAVxf_t@xlslib_core@@UborderedXft@2@@std@@@std@@YA$$QEAU?$pair@PEAVxf_t@xlslib_core@@UborderedXft@2@@0@AEAU10@@Z 00000001800167b0 f i range.obj
 0001:000157b0       ??$_Unchecked@PEAPEAVformat_t@xlslib_core@@@std@@YAPEAPEAVformat_t@xlslib_core@@PEAPEAV12@@Z 00000001800167b0 f i globalrec.obj
 0001:000157b0       ??$forward@V?$_Tree_const_iterator@V?$_Tree_val@U?$_Tree_simple_types@U?$pair@PEAVxf_t@xlslib_core@@UborderedXft@2@@std@@@std@@@std@@@std@@@std@@YA$$QEAV?$_Tree_const_iterator@V?$_Tree_val@U?$_Tree_simple_types@U?$pair@PEAVxf_t@xlslib_core@@UborderedXft@2@@std@@@std@@@std@@@0@AEAV10@@Z 00000001800167b0 f i range.obj
 0001:000157b0       ?_Get_data@?$_Vector_alloc@U?$_Vec_base_types@PEAVCUnit@xlslib_core@@V?$allocator@PEAVCUnit@xlslib_core@@@std@@@std@@@std@@QEAAAEAV?$_Vector_val@U?$_Simple_types@PEAVCUnit@xlslib_core@@@std@@@2@XZ 00000001800167b0 f i datast.obj
 0001:000157b0       ?_Kfn@?$_Tset_traits@PEAVcell_t@xlslib_core@@Vinsertsort@2@V?$allocator@PEAVcell_t@xlslib_core@@@std@@$0A@@std@@SAAEBQEAVcell_t@xlslib_core@@AEBQEAV34@@Z 00000001800167b0 f i sheetrec.obj
 0001:000157b0       ??0?$_Wrap_alloc@V?$allocator@U?$_Tree_node@PEAUcolinfo_t@xlslib_core@@PEAX@std@@@std@@@std@@QEAA@XZ 00000001800167b0 f i sheetrec.obj
 0001:000157b0       ?_Left@?$_Tree_val@U?$_Tree_simple_types@PEAUcolinfo_t@xlslib_core@@@std@@@std@@SAAEAPEAU?$_Tree_node@PEAUcolinfo_t@xlslib_core@@PEAX@2@PEAU32@@Z 00000001800167b0 f i sheetrec.obj
 0001:000157b0       ?_Getal@?$_Vector_alloc@U?$_Vec_base_types@PEAVfont_t@xlslib_core@@V?$allocator@PEAVfont_t@xlslib_core@@@std@@@std@@@std@@QEBAAEBU?$_Wrap_alloc@V?$allocator@PEAVfont_t@xlslib_core@@@std@@@2@XZ 00000001800167b0 f i globalrec.obj
 0001:000157b0       ??$forward@AEAUrowblocksize_t@xlslib_core@@@std@@YAAEAUrowblocksize_t@xlslib_core@@AEAU12@@Z 00000001800167b0 f i sheetrec.obj
 0001:000157b0       ??$_Unfancy@PEAUHyperLink@xlslib_core@@@std@@YAPEAPEAUHyperLink@xlslib_core@@PEAPEAU12@@Z 00000001800167b0 f i sheetrec.obj
 0001:000157b0       ?_Get_first@?$_Compressed_pair@U?$_Wrap_alloc@V?$allocator@PEAUstyle_t@xlslib_core@@@std@@@std@@V?$_Vector_val@U?$_Simple_types@PEAUstyle_t@xlslib_core@@@std@@@2@$00@std@@QEAAAEAU?$_Wrap_alloc@V?$allocator@PEAUstyle_t@xlslib_core@@@std@@@2@XZ 00000001800167b0 f i globalrec.obj
 0001:000157b0       ??$_Ptr_move_cat@PEAUHyperLink@xlslib_core@@PEAU12@@std@@YA?AU_Really_trivial_ptr_iterator_tag@0@AEBQEAPEAUHyperLink@xlslib_core@@0@Z 00000001800167b0 f i sheetrec.obj
 0001:000157b0       ?_Get_data@?$_List_alloc@U?$_List_base_types@PEAV?$basic_string@DU?$char_traits@D@std@@V?$allocator@D@2@@std@@V?$allocator@PEAV?$basic_string@DU?$char_traits@D@std@@V?$allocator@D@2@@std@@@2@@std@@@std@@QEAAAEAV?$_List_val@U?$_List_simple_types@PEAV?$basic_string@DU?$char_traits@D@std@@V?$allocator@D@2@@std@@@std@@@2@XZ 00000001800167b0 f i olefs.obj
 0001:000157b0       ?_Get_second@?$_Compressed_pair@U?$_Wrap_alloc@V?$allocator@U?$_Tree_node@PEAVHPSFitem@xlslib_core@@PEAX@std@@@std@@@std@@V?$_Tree_val@U?$_Tree_simple_types@PEAVHPSFitem@xlslib_core@@@std@@@2@$00@std@@QEBAAEBV?$_Tree_val@U?$_Tree_simple_types@PEAVHPSFitem@xlslib_core@@@std@@@2@XZ 00000001800167b0 f i HPSF.obj
 0001:000157b0       ?_Myfirst@?$_Vector_alloc@U?$_Vec_base_types@PEAUDataValidation@xlslib_core@@V?$allocator@PEAUDataValidation@xlslib_core@@@std@@@std@@@std@@QEBAAEBQEAPEAUDataValidation@xlslib_core@@XZ 00000001800167b0 f i sheetrec.obj
 0001:000157b0       ?_Get_second@?$_Compressed_pair@U?$_Wrap_alloc@V?$allocator@Urowblocksize_t@xlslib_core@@@std@@@std@@V?$_Vector_val@U?$_Simple_types@Urowblocksize_t@xlslib_core@@@std@@@2@$00@std@@QEAAAEAV?$_Vector_val@U?$_Simple_types@Urowblocksize_t@xlslib_core@@@std@@@2@XZ 00000001800167b0 f i sheetrec.obj
 0001:000157b0       ??$forward@AEAV?$_Tree_const_iterator@V?$_Tree_val@U?$_Tree_simple_types@PEAVcell_t@xlslib_core@@@std@@@std@@@std@@@std@@YAAEAV?$_Tree_const_iterator@V?$_Tree_val@U?$_Tree_simple_types@PEAVcell_t@xlslib_core@@@std@@@std@@@0@AEAV10@@Z 00000001800167b0 f i sheetrec.obj
 0001:000157b0       ??$forward@AEBQEAVboundsheet_t@xlslib_core@@@std@@YAAEBQEAVboundsheet_t@xlslib_core@@AEBQEAV12@@Z 00000001800167b0 f i globalrec.obj
 0001:000157b0       ??$forward@AEAPEAPEAVCOleProp@xlslib_core@@@std@@YAAEAPEAPEAVCOleProp@xlslib_core@@AEAPEAPEAV12@@Z 00000001800167b0 f i olefs.obj
 0001:000157b0       ??$_Unchecked@PEAPEAVformula_t@xlslib_core@@@std@@YAPEAPEAVformula_t@xlslib_core@@PEAPEAV12@@Z 00000001800167b0 f i sheetrec.obj
 0001:000157b0       ?_Get_first@?$_Compressed_pair@Vinsertsort@xlslib_core@@V?$_Compressed_pair@U?$_Wrap_alloc@V?$allocator@U?$_Tree_node@PEAVcell_t@xlslib_core@@PEAX@std@@@std@@@std@@V?$_Tree_val@U?$_Tree_simple_types@PEAVcell_t@xlslib_core@@@std@@@2@$00@std@@$00@std@@QEAAAEAVinsertsort@xlslib_core@@XZ 00000001800167b0 f i sheetrec.obj
 0001:000157b0       ?_Get_first@?$_Compressed_pair@Vcolinfosort@xlslib_core@@V?$_Compressed_pair@U?$_Wrap_alloc@V?$allocator@U?$_Tree_node@PEAUcolinfo_t@xlslib_core@@PEAX@std@@@std@@@std@@V?$_Tree_val@U?$_Tree_simple_types@PEAUcolinfo_t@xlslib_core@@@std@@@2@$00@std@@$00@std@@QEAAAEAVcolinfosort@xlslib_core@@XZ 00000001800167b0 f i sheetrec.obj
 0001:000157b0       ??0?$allocator@PEAUstyle_t@xlslib_core@@@std@@QEAA@XZ 00000001800167b0 f i globalrec.obj
 0001:000157b0       ??$forward@V?$_Tree_const_iterator@V?$_Tree_val@U?$_Tree_simple_types@PEAVrowheight_t@xlslib_core@@@std@@@std@@@std@@@std@@YA$$QEAV?$_Tree_const_iterator@V?$_Tree_val@U?$_Tree_simple_types@PEAVrowheight_t@xlslib_core@@@std@@@std@@@0@AEAV10@@Z 00000001800167b0 f i sheetrec.obj
 0001:000157b0       ?_Get_first@?$_Compressed_pair@U?$_Wrap_alloc@V?$allocator@Urowblocksize_t@xlslib_core@@@std@@@std@@V?$_Vector_val@U?$_Simple_types@Urowblocksize_t@xlslib_core@@@std@@@2@$00@std@@QEAAAEAU?$_Wrap_alloc@V?$allocator@Urowblocksize_t@xlslib_core@@@std@@@2@XZ 00000001800167b0 f i sheetrec.obj
 0001:000157b0       ??$forward@AEAV?$_Tree_const_iterator@V?$_Tree_val@U?$_Tree_simple_types@PEAVHPSFitem@xlslib_core@@@std@@@std@@@std@@@std@@YAAEAV?$_Tree_const_iterator@V?$_Tree_val@U?$_Tree_simple_types@PEAVHPSFitem@xlslib_core@@@std@@@std@@@0@AEAV10@@Z 00000001800167b0 f i HPSF.obj
 0001:000157b0       ?_Get_second@?$_Compressed_pair@U?$_Wrap_alloc@V?$allocator@PEAUHyperLink@xlslib_core@@@std@@@std@@V?$_Vector_val@U?$_Simple_types@PEAUHyperLink@xlslib_core@@@std@@@2@$00@std@@QEBAAEBV?$_Vector_val@U?$_Simple_types@PEAUHyperLink@xlslib_core@@@std@@@2@XZ 00000001800167b0 f i sheetrec.obj
 0001:000157b0       ?_Myfirst@?$_Vector_alloc@U?$_Vec_base_types@VCUnitStore@xlslib_core@@V?$allocator@VCUnitStore@xlslib_core@@@std@@@std@@@std@@QEAAAEAPEAVCUnitStore@xlslib_core@@XZ 00000001800167b0 f i datast.obj
 0001:000157b0       ?_Myfirst@?$_Vector_alloc@U?$_Vec_base_types@NV?$allocator@N@std@@@std@@@std@@QEBAAEBQEANXZ 00000001800167b0 f i cbridge.obj
 0001:000157b0       ?_Get_data@?$_String_alloc@U?$_String_base_types@_SV?$allocator@_S@std@@@std@@@std@@QEBAAEBV?$_String_val@U?$_Simple_types@_S@std@@@2@XZ 00000001800167b0 f i datast.obj
 0001:000157b0       ??0?$_Wrap_alloc@V?$allocator@Urowblocksize_t@xlslib_core@@@std@@@std@@QEAA@XZ 00000001800167b0 f i sheetrec.obj
 0001:000157b0       ??$move@AEAVCUnitStore@xlslib_core@@@std@@YA$$QEAVCUnitStore@xlslib_core@@AEAV12@@Z 00000001800167b0 f i datast.obj
 0001:000157b0       ??0?$allocator@N@std@@QEAA@XZ 00000001800167b0 f i cbridge.obj
 0001:000157b0       ??$forward@Urowblocksize_t@xlslib_core@@@std@@YA$$QEAUrowblocksize_t@xlslib_core@@AEAU12@@Z 00000001800167b0 f i sheetrec.obj
 0001:000157b0       ?_Get_second@?$_Compressed_pair@U?$_Wrap_alloc@V?$allocator@U?$_Tree_node@U?$pair@PEAVxf_t@xlslib_core@@UborderedXft@2@@std@@PEAX@std@@@std@@@std@@V?$_Tree_val@U?$_Tree_simple_types@U?$pair@PEAVxf_t@xlslib_core@@UborderedXft@2@@std@@@std@@@2@$00@std@@QEBAAEBV?$_Tree_val@U?$_Tree_simple_types@U?$pair@PEAVxf_t@xlslib_core@@UborderedXft@2@@std@@@std@@@2@XZ 00000001800167b0 f i range.obj
 0001:000157b0       ?_Get_second@?$_Compressed_pair@U?$_Wrap_alloc@V?$allocator@V?$basic_string@DU?$char_traits@D@std@@V?$allocator@D@2@@std@@@std@@@std@@V?$_Vector_val@U?$_Simple_types@V?$basic_string@DU?$char_traits@D@std@@V?$allocator@D@2@@std@@@std@@@2@$00@std@@QEBAAEBV?$_Vector_val@U?$_Simple_types@V?$basic_string@DU?$char_traits@D@std@@V?$allocator@D@2@@std@@@std@@@2@XZ 00000001800167b0 f i cbridge.obj
 0001:000157b0       ??0?$_Wrap_alloc@V?$allocator@V?$basic_string@_WU?$char_traits@_W@std@@V?$allocator@_W@2@@std@@@std@@@std@@QEAA@XZ 00000001800167b0 f i cbridge.obj
 0001:000157b0       ?_Getal@?$_Vector_alloc@U?$_Vec_base_types@PEBVlabel_t@xlslib_core@@V?$allocator@PEBVlabel_t@xlslib_core@@@std@@@std@@@std@@QEBAAEBU?$_Wrap_alloc@V?$allocator@PEBVlabel_t@xlslib_core@@@std@@@2@XZ 00000001800167b0 f i globalrec.obj
 0001:000157b0       ??0?$_Wrap_alloc@V?$allocator@PEBVlabel_t@xlslib_core@@@std@@@std@@QEAA@XZ 00000001800167b0 f i globalrec.obj
 0001:000157b0       ?_Get_data@?$_Vector_alloc@U?$_Vec_base_types@Urowblocksize_t@xlslib_core@@V?$allocator@Urowblocksize_t@xlslib_core@@@std@@@std@@@std@@QEBAAEBV?$_Vector_val@U?$_Simple_types@Urowblocksize_t@xlslib_core@@@std@@@2@XZ 00000001800167b0 f i sheetrec.obj
 0001:000157b0       ??$addressof@PEBVlabel_t@xlslib_core@@@std@@YAPEAPEBVlabel_t@xlslib_core@@AEAPEBV12@@Z 00000001800167b0 f i globalrec.obj
 0001:000157b0       ??0?$allocator@D@std@@QEAA@AEBV01@@Z 00000001800167b0 f i assert_assist.obj
 0001:000157b0       ??$forward@AEBQEAVworksheet@xlslib_core@@@std@@YAAEBQEAVworksheet@xlslib_core@@AEBQEAV12@@Z 00000001800167b0 f i workbook.obj
 0001:000157b0       ??0?$_Wrap_alloc@V?$allocator@_W@std@@@std@@QEAA@XZ 00000001800167b0 f i cbridge.obj
 0001:000157b0       ?underlying_stream@str_stream@@QEBAAEAV?$basic_stringstream@DU?$char_traits@D@std@@V?$allocator@D@2@@std@@XZ 00000001800167b0 f i assert_assist.obj
 0001:000157b0       ??$_Unfancy@PEAVCUnit@xlslib_core@@@std@@YAPEAPEAVCUnit@xlslib_core@@PEAPEAV12@@Z 00000001800167b0 f i datast.obj
 0001:000157b0       ?_Get_second@?$_Compressed_pair@Vcolinfosort@xlslib_core@@V?$_Compressed_pair@U?$_Wrap_alloc@V?$allocator@U?$_Tree_node@PEAUcolinfo_t@xlslib_core@@PEAX@std@@@std@@@std@@V?$_Tree_val@U?$_Tree_simple_types@PEAUcolinfo_t@xlslib_core@@@std@@@2@$00@std@@$00@std@@QEBAAEBV?$_Compressed_pair@U?$_Wrap_alloc@V?$allocator@U?$_Tree_node@PEAUcolinfo_t@xlslib_core@@PEAX@std@@@std@@@std@@V?$_Tree_val@U?$_Tree_simple_types@PEAUcolinfo_t@xlslib_core@@@std@@@2@$00@2@XZ 00000001800167b0 f i sheetrec.obj
 0001:000157b0       ?_Myfirst@?$_Vector_alloc@U?$_Vec_base_types@V?$basic_string@DU?$char_traits@D@std@@V?$allocator@D@2@@std@@V?$allocator@V?$basic_string@DU?$char_traits@D@std@@V?$allocator@D@2@@std@@@2@@std@@@std@@QEBAAEBQEAV?$basic_string@DU?$char_traits@D@std@@V?$allocator@D@2@@2@XZ 00000001800167b0 f i cbridge.obj
 0001:000157b0       ?_Get_data@?$_Vector_alloc@U?$_Vec_base_types@PEAUDataValidation@xlslib_core@@V?$allocator@PEAUDataValidation@xlslib_core@@@std@@@std@@@std@@QEBAAEBV?$_Vector_val@U?$_Simple_types@PEAUDataValidation@xlslib_core@@@std@@@2@XZ 00000001800167b0 f i sheetrec.obj
 0001:000157b0       ??0?$_Wrap_alloc@V?$allocator@PEAUHyperLink@xlslib_core@@@std@@@std@@QEAA@XZ 00000001800167b0 f i sheetrec.obj
 0001:000157b0       ??$forward@AEAPEA_S@std@@YAAEAPEA_SAEAPEA_S@Z 00000001800167b0 f i datast.obj
 0001:000157b0       ?_Get_first@?$_Compressed_pair@Vrowheightsort@xlslib_core@@V?$_Compressed_pair@U?$_Wrap_alloc@V?$allocator@U?$_Tree_node@PEAVrowheight_t@xlslib_core@@PEAX@std@@@std@@@std@@V?$_Tree_val@U?$_Tree_simple_types@PEAVrowheight_t@xlslib_core@@@std@@@2@$00@std@@$00@std@@QEBAAEBVrowheightsort@xlslib_core@@XZ 00000001800167b0 f i sheetrec.obj
 0001:000157b0       ?_Getal@?$_Vector_alloc@U?$_Vec_base_types@Urowblocksize_t@xlslib_core@@V?$allocator@Urowblocksize_t@xlslib_core@@@std@@@std@@@std@@QEAAAEAU?$_Wrap_alloc@V?$allocator@Urowblocksize_t@xlslib_core@@@std@@@2@XZ 00000001800167b0 f i sheetrec.obj
 0001:000157b0       ?_Myhead@?$_Tree_comp_alloc@V?$_Tset_traits@PEAVrowheight_t@xlslib_core@@Vrowheightsort@2@V?$allocator@PEAVrowheight_t@xlslib_core@@@std@@$0A@@std@@@std@@QEAAAEAPEAU?$_Tree_node@PEAVrowheight_t@xlslib_core@@PEAX@2@XZ 00000001800167b0 f i sheetrec.obj
 0001:000157b0       ??$_Unchecked@PEAPEAVCUnit@xlslib_core@@@std@@YAPEAPEAVCUnit@xlslib_core@@PEAPEAV12@@Z 00000001800167b0 f i datast.obj
 0001:000157b0       ??$forward@AEBVinsertsort2@xlslib_core@@@std@@YAAEBVinsertsort2@xlslib_core@@AEBV12@@Z 00000001800167b0 f i HPSF.obj
 0001:000157b0       ?_Myfirst@?$_Vector_alloc@U?$_Vec_base_types@PEBVlabel_t@xlslib_core@@V?$allocator@PEBVlabel_t@xlslib_core@@@std@@@std@@@std@@QEAAAEAPEAPEBVlabel_t@xlslib_core@@XZ 00000001800167b0 f i globalrec.obj
 0001:000157b0       ?_Myfirst@?$_Vector_alloc@U?$_Vec_base_types@PEAVrange_t@xlslib_core@@V?$allocator@PEAVrange_t@xlslib_core@@@std@@@std@@@std@@QEAAAEAPEAPEAVrange_t@xlslib_core@@XZ 00000001800167b0 f i sheetrec.obj
 0001:000157b0       ?_Get_data@?$_Tree_comp_alloc@V?$_Tset_traits@PEAVcell_t@xlslib_core@@Vinsertsort@2@V?$allocator@PEAVcell_t@xlslib_core@@@std@@$0A@@std@@@std@@QEAAAEAV?$_Tree_val@U?$_Tree_simple_types@PEAVcell_t@xlslib_core@@@std@@@2@XZ 00000001800167b0 f i sheetrec.obj
 0001:000157b0       ??0_Bxty@?$_String_val@U?$_Simple_types@D@std@@@std@@QEAA@XZ 00000001800167b0 f i assert_assist.obj
 0001:000157b0       ?_Getal@?$_Vector_alloc@U?$_Vec_base_types@PEAVxf_t@xlslib_core@@V?$allocator@PEAVxf_t@xlslib_core@@@std@@@std@@@std@@QEBAAEBU?$_Wrap_alloc@V?$allocator@PEAVxf_t@xlslib_core@@@std@@@2@XZ 00000001800167b0 f i globalrec.obj
 0001:000157b0       ??$forward@AEBN@std@@YAAEBNAEBN@Z 00000001800167b0 f i cbridge.obj
 0001:000157b0       ??0?$allocator@Urowblocksize_t@xlslib_core@@@std@@QEAA@XZ 00000001800167b0 f i sheetrec.obj
 0001:000157b0       ??$forward@V?$allocator@_W@std@@@std@@YA$$QEAV?$allocator@_W@0@AEAV10@@Z 00000001800167b0 f i cbridge.obj
 0001:000157b0       ??0?$allocator@_S@std@@QEAA@XZ 00000001800167b0 f i format.obj
 0001:000157b0       ?_Getal@?$_Vector_alloc@U?$_Vec_base_types@VCUnitStore@xlslib_core@@V?$allocator@VCUnitStore@xlslib_core@@@std@@@std@@@std@@QEAAAEAU?$_Wrap_alloc@V?$allocator@VCUnitStore@xlslib_core@@@std@@@2@XZ 00000001800167b0 f i datast.obj
 0001:000157b0       ?_Myfirst@?$_Vector_alloc@U?$_Vec_base_types@PEAVCUnit@xlslib_core@@V?$allocator@PEAVCUnit@xlslib_core@@@std@@@std@@@std@@QEBAAEBQEAPEAVCUnit@xlslib_core@@XZ 00000001800167b0 f i datast.obj
 0001:000157b0       ??$_Unfancy@PEAVxf_t@xlslib_core@@@std@@YAPEAPEAVxf_t@xlslib_core@@PEAPEAV12@@Z 00000001800167b0 f i globalrec.obj
 0001:000157b0       ??$_Unchecked@PEAPEAVboundsheet_t@xlslib_core@@@std@@YAPEAPEAVboundsheet_t@xlslib_core@@PEAPEAV12@@Z 00000001800167b0 f i globalrec.obj
 0001:000157b0       ??0?$allocator@PEAVrange_t@xlslib_core@@@std@@QEAA@XZ 00000001800167b0 f i sheetrec.obj
 0001:000157b0       ?select_on_container_copy_construction@?$allocator_traits@V?$allocator@_S@std@@@std@@SA?AV?$allocator@_S@2@AEBV32@@Z 00000001800167b0 f i datast.obj
 0001:000157b0       ??$forward@AEAPEAVrange@xlslib_core@@@std@@YAAEAPEAVrange@xlslib_core@@AEAPEAV12@@Z 00000001800167b0 f i sheetrec.obj
 0001:000157b0       ?_Getal@?$_String_alloc@U?$_String_base_types@DV?$allocator@D@std@@@std@@@std@@QEBAAEBU?$_Wrap_alloc@V?$allocator@D@std@@@2@XZ 00000001800167b0 f i assert_assist.obj
 0001:000157b0       ??$forward@V?$_Tree_const_iterator@V?$_Tree_val@U?$_Tree_simple_types@PEAVcell_t@xlslib_core@@@std@@@std@@@std@@@std@@YA$$QEAV?$_Tree_const_iterator@V?$_Tree_val@U?$_Tree_simple_types@PEAVcell_t@xlslib_core@@@std@@@std@@@0@AEAV10@@Z 00000001800167b0 f i sheetrec.obj
 0001:000157b0       ?_Get_second@?$_Compressed_pair@U?$_Wrap_alloc@V?$allocator@PEAVxf_t@xlslib_core@@@std@@@std@@V?$_Vector_val@U?$_Simple_types@PEAVxf_t@xlslib_core@@@std@@@2@$00@std@@QEBAAEBV?$_Vector_val@U?$_Simple_types@PEAVxf_t@xlslib_core@@@std@@@2@XZ 00000001800167b0 f i globalrec.obj
 0001:000157b0       ??0?$_Wrap_alloc@V?$allocator@_S@std@@@std@@QEAA@XZ 00000001800167b0 f i format.obj
 0001:000157b0       ?_Get_first@?$_Compressed_pair@U?$_Wrap_alloc@V?$allocator@V?$basic_string@_WU?$char_traits@_W@std@@V?$allocator@_W@2@@std@@@std@@@std@@V?$_Vector_val@U?$_Simple_types@V?$basic_string@_WU?$char_traits@_W@std@@V?$allocator@_W@2@@std@@@std@@@2@$00@std@@QEBAAEBU?$_Wrap_alloc@V?$allocator@V?$basic_string@_WU?$char_traits@_W@std@@V?$allocator@_W@2@@std@@@std@@@2@XZ 00000001800167b0 f i cbridge.obj
 0001:000157b0       ?_Getcomp@?$_Tree_comp_alloc@V?$_Tset_traits@PEAVrowheight_t@xlslib_core@@Vrowheightsort@2@V?$allocator@PEAVrowheight_t@xlslib_core@@@std@@$0A@@std@@@std@@QEBAAEBVrowheightsort@xlslib_core@@XZ 00000001800167b0 f i sheetrec.obj
 0001:000157b0       ?_Get_second@?$_Compressed_pair@U?$_Wrap_alloc@V?$allocator@U?$_Tree_node@PEAUcolinfo_t@xlslib_core@@PEAX@std@@@std@@@std@@V?$_Tree_val@U?$_Tree_simple_types@PEAUcolinfo_t@xlslib_core@@@std@@@2@$00@std@@QEBAAEBV?$_Tree_val@U?$_Tree_simple_types@PEAUcolinfo_t@xlslib_core@@@std@@@2@XZ 00000001800167b0 f i sheetrec.obj
 0001:000157b0       ?_Get_second@?$_Compressed_pair@U?$_Wrap_alloc@V?$allocator@PEAVfont_t@xlslib_core@@@std@@@std@@V?$_Vector_val@U?$_Simple_types@PEAVfont_t@xlslib_core@@@std@@@2@$00@std@@QEAAAEAV?$_Vector_val@U?$_Simple_types@PEAVfont_t@xlslib_core@@@std@@@2@XZ 00000001800167b0 f i globalrec.obj
 0001:000157b0       ??0?$allocator@U?$_Tree_node@PEAUcolinfo_t@xlslib_core@@PEAX@std@@@std@@QEAA@XZ 00000001800167b0 f i sheetrec.obj
 0001:000157b0       ??$_Unchecked@PEAV?$basic_string@_WU?$char_traits@_W@std@@V?$allocator@_W@2@@std@@@std@@YAPEAV?$basic_string@_WU?$char_traits@_W@std@@V?$allocator@_W@2@@0@PEAV10@@Z 00000001800167b0 f i cbridge.obj
 0001:000157b0       ??$_Unfancy@Urowblocksize_t@xlslib_core@@@std@@YAPEAUrowblocksize_t@xlslib_core@@PEAU12@@Z 00000001800167b0 f i sheetrec.obj
 0001:000157b0       ??$forward@AEBQEAUstyle_t@xlslib_core@@@std@@YAAEBQEAUstyle_t@xlslib_core@@AEBQEAU12@@Z 00000001800167b0 f i globalrec.obj
 0001:000157b0       ?_Get_data@?$_Vector_alloc@U?$_Vec_base_types@PEAVworksheet@xlslib_core@@V?$allocator@PEAVworksheet@xlslib_core@@@std@@@std@@@std@@QEAAAEAV?$_Vector_val@U?$_Simple_types@PEAVworksheet@xlslib_core@@@std@@@2@XZ 00000001800167b0 f i workbook.obj
 0001:000157b0       ??$forward@AEAPEAUDataValidation@xlslib_core@@@std@@YAAEAPEAUDataValidation@xlslib_core@@AEAPEAU12@@Z 00000001800167b0 f i sheetrec.obj
 0001:000157b0       ??$addressof@$$CBD@std@@YAPEBDAEBD@Z 00000001800167b0 f i globalrec.obj
 0001:000157b0       ?_Get_first@?$_Compressed_pair@Vcolinfosort@xlslib_core@@V?$_Compressed_pair@U?$_Wrap_alloc@V?$allocator@U?$_Tree_node@PEAUcolinfo_t@xlslib_core@@PEAX@std@@@std@@@std@@V?$_Tree_val@U?$_Tree_simple_types@PEAUcolinfo_t@xlslib_core@@@std@@@2@$00@std@@$00@std@@QEBAAEBVcolinfosort@xlslib_core@@XZ 00000001800167b0 f i sheetrec.obj
 0001:000157b0       ?_Get_data@?$_Vector_alloc@U?$_Vec_base_types@PEAUDataValidation@xlslib_core@@V?$allocator@PEAUDataValidation@xlslib_core@@@std@@@std@@@std@@QEAAAEAV?$_Vector_val@U?$_Simple_types@PEAUDataValidation@xlslib_core@@@std@@@2@XZ 00000001800167b0 f i sheetrec.obj
 0001:000157b0       ?_Myfirst@?$_Vector_alloc@U?$_Vec_base_types@PEAVCOleProp@xlslib_core@@V?$allocator@PEAVCOleProp@xlslib_core@@@std@@@std@@@std@@QEAAAEAPEAPEAVCOleProp@xlslib_core@@XZ 00000001800167b0 f i oledoc.obj
 0001:000157b0       ?_Get_second@?$_Compressed_pair@U?$_Wrap_alloc@V?$allocator@V?$basic_string@_WU?$char_traits@_W@std@@V?$allocator@_W@2@@std@@@std@@@std@@V?$_Vector_val@U?$_Simple_types@V?$basic_string@_WU?$char_traits@_W@std@@V?$allocator@_W@2@@std@@@std@@@2@$00@std@@QEAAAEAV?$_Vector_val@U?$_Simple_types@V?$basic_string@_WU?$char_traits@_W@std@@V?$allocator@_W@2@@std@@@std@@@2@XZ 00000001800167b0 f i cbridge.obj
 0001:000157b0       ??$_Unchecked@PEAPEAUHyperLink@xlslib_core@@@std@@YAPEAPEAUHyperLink@xlslib_core@@PEAPEAU12@@Z 00000001800167b0 f i sheetrec.obj
 0001:000157b0       ?_Getal@?$_Tree_comp_alloc@V?$_Tset_traits@PEAUcolinfo_t@xlslib_core@@Vcolinfosort@2@V?$allocator@PEAUcolinfo_t@xlslib_core@@@std@@$0A@@std@@@std@@QEBAAEBU?$_Wrap_alloc@V?$allocator@U?$_Tree_node@PEAUcolinfo_t@xlslib_core@@PEAX@std@@@std@@@2@XZ 00000001800167b0 f i sheetrec.obj
 0001:000157b0       ?_Get_first@?$_Compressed_pair@U?$_Wrap_alloc@V?$allocator@V?$basic_string@_WU?$char_traits@_W@std@@V?$allocator@_W@2@@std@@@std@@@std@@V?$_Vector_val@U?$_Simple_types@V?$basic_string@_WU?$char_traits@_W@std@@V?$allocator@_W@2@@std@@@std@@@2@$00@std@@QEAAAEAU?$_Wrap_alloc@V?$allocator@V?$basic_string@_WU?$char_traits@_W@std@@V?$allocator@_W@2@@std@@@std@@@2@XZ 00000001800167b0 f i cbridge.obj
 0001:000157b0       ??$forward@AEAPEAVCOleProp@xlslib_core@@@std@@YAAEAPEAVCOleProp@xlslib_core@@AEAPEAV12@@Z 00000001800167b0 f i olefs.obj
 0001:000157b0       ?_Get_first@?$_Compressed_pair@U?$_Wrap_alloc@V?$allocator@_W@std@@@std@@V?$_String_val@U?$_Simple_types@_W@std@@@2@$00@std@@QEBAAEBU?$_Wrap_alloc@V?$allocator@_W@std@@@2@XZ 00000001800167b0 f i cbridge.obj
 0001:000157b0       ?_Get_first@?$_Compressed_pair@U?$_Wrap_alloc@V?$allocator@U?$_Tree_node@PEAVHPSFitem@xlslib_core@@PEAX@std@@@std@@@std@@V?$_Tree_val@U?$_Tree_simple_types@PEAVHPSFitem@xlslib_core@@@std@@@2@$00@std@@QEBAAEBU?$_Wrap_alloc@V?$allocator@U?$_Tree_node@PEAVHPSFitem@xlslib_core@@PEAX@std@@@std@@@2@XZ 00000001800167b0 f i HPSF.obj
 0001:000157b0       ??$addressof@PEAU?$_Tree_node@PEAUcolinfo_t@xlslib_core@@PEAX@std@@@std@@YAPEAPEAU?$_Tree_node@PEAUcolinfo_t@xlslib_core@@PEAX@0@AEAPEAU10@@Z 00000001800167b0 f i sheetrec.obj
 0001:000157b0       ?_Get_first@?$_Compressed_pair@U?$_Wrap_alloc@V?$allocator@PEAVrange@xlslib_core@@@std@@@std@@V?$_Vector_val@U?$_Simple_types@PEAVrange@xlslib_core@@@std@@@2@$00@std@@QEBAAEBU?$_Wrap_alloc@V?$allocator@PEAVrange@xlslib_core@@@std@@@2@XZ 00000001800167b0 f i sheetrec.obj
 0001:000157b0       ?_Bx@?$_String_alloc@U?$_String_base_types@DV?$allocator@D@std@@@std@@@std@@QEAAAEAT_Bxty@?$_String_val@U?$_Simple_types@D@std@@@2@XZ 00000001800167b0 f i assert_assist.obj
 0001:000157b0       ??0?$_Wrap_alloc@V?$allocator@V?$basic_string@DU?$char_traits@D@std@@V?$allocator@D@2@@std@@@std@@@std@@QEAA@XZ 00000001800167b0 f i cbridge.obj
 0001:000157b0       ?_Bx@?$_String_alloc@U?$_String_base_types@_SV?$allocator@_S@std@@@std@@@std@@QEAAAEAT_Bxty@?$_String_val@U?$_Simple_types@_S@std@@@2@XZ 00000001800167b0 f i datast.obj
 0001:000157b0       ?_Get_data@?$_Vector_alloc@U?$_Vec_base_types@PEAVformat_t@xlslib_core@@V?$allocator@PEAVformat_t@xlslib_core@@@std@@@std@@@std@@QEAAAEAV?$_Vector_val@U?$_Simple_types@PEAVformat_t@xlslib_core@@@std@@@2@XZ 00000001800167b0 f i globalrec.obj
 0001:000157b0       ??$_Unfancy@PEAVCOleProp@xlslib_core@@@std@@YAPEAPEAVCOleProp@xlslib_core@@PEAPEAV12@@Z 00000001800167b0 f i olefs.obj
 0001:000157b0       ??$_Ptr_move_cat@_K_K@std@@YA?AU_Really_trivial_ptr_iterator_tag@0@AEBQEA_K0@Z 00000001800167b0 f i sheetrec.obj
 0001:000157b0       ?_Get_data@?$_String_alloc@U?$_String_base_types@DV?$allocator@D@std@@@std@@@std@@QEBAAEBV?$_String_val@U?$_Simple_types@D@std@@@2@XZ 00000001800167b0 f i assert_assist.obj
 0001:000157b0       ?_Get_first@?$_Compressed_pair@U?$_Wrap_alloc@V?$allocator@U?$_Tree_node@PEAVcell_t@xlslib_core@@PEAX@std@@@std@@@std@@V?$_Tree_val@U?$_Tree_simple_types@PEAVcell_t@xlslib_core@@@std@@@2@$00@std@@QEBAAEBU?$_Wrap_alloc@V?$allocator@U?$_Tree_node@PEAVcell_t@xlslib_core@@PEAX@std@@@std@@@2@XZ 00000001800167b0 f i sheetrec.obj
 0001:000157b0       ??0?$allocator@PEAVxf_t@xlslib_core@@@std@@QEAA@XZ 00000001800167b0 f i globalrec.obj
 0001:000157b0       ?_Get_first@?$_Compressed_pair@U?$_Wrap_alloc@V?$allocator@PEAVrange_t@xlslib_core@@@std@@@std@@V?$_Vector_val@U?$_Simple_types@PEAVrange_t@xlslib_core@@@std@@@2@$00@std@@QEBAAEBU?$_Wrap_alloc@V?$allocator@PEAVrange_t@xlslib_core@@@std@@@2@XZ 00000001800167b0 f i sheetrec.obj
 0001:000157b0       ??$addressof@VCUnitStore@xlslib_core@@@std@@YAPEAVCUnitStore@xlslib_core@@AEAV12@@Z 00000001800167b0 f i datast.obj
 0001:000157b0       ?_Get_data@?$_Tree_comp_alloc@V?$_Tset_traits@U?$pair@PEAVxf_t@xlslib_core@@UborderedXft@2@@std@@VxfSorter@xlslib_core@@V?$allocator@U?$pair@PEAVxf_t@xlslib_core@@UborderedXft@2@@std@@@2@$0A@@std@@@std@@QEAAAEAV?$_Tree_val@U?$_Tree_simple_types@U?$pair@PEAVxf_t@xlslib_core@@UborderedXft@2@@std@@@std@@@2@XZ 00000001800167b0 f i range.obj
 0001:000157b0       ??$forward@AEBV?$basic_string@_WU?$char_traits@_W@std@@V?$allocator@_W@2@@std@@@std@@YAAEBV?$basic_string@_WU?$char_traits@_W@std@@V?$allocator@_W@2@@0@AEBV10@@Z 00000001800167b0 f i cbridge.obj
 0001:000157b0       ??$_Ptr_move_cat@NN@std@@YA?AU_Really_trivial_ptr_iterator_tag@0@AEBQEAN0@Z 00000001800167b0 f i cbridge.obj
 0001:000157b0       ?_Getal@?$_Vector_alloc@U?$_Vec_base_types@PEAVboundsheet_t@xlslib_core@@V?$allocator@PEAVboundsheet_t@xlslib_core@@@std@@@std@@@std@@QEAAAEAU?$_Wrap_alloc@V?$allocator@PEAVboundsheet_t@xlslib_core@@@std@@@2@XZ 00000001800167b0 f i globalrec.obj
 0001:000157b0       ?_Left@?$_Tree_val@U?$_Tree_simple_types@U?$pair@PEAVxf_t@xlslib_core@@UborderedXft@2@@std@@@std@@@std@@SAAEAPEAU?$_Tree_node@U?$pair@PEAVxf_t@xlslib_core@@UborderedXft@2@@std@@PEAX@2@PEAU32@@Z 00000001800167b0 f i range.obj
 0001:000157b0       ??$_Unfancy@PEAUstyle_t@xlslib_core@@@std@@YAPEAPEAUstyle_t@xlslib_core@@PEAPEAU12@@Z 00000001800167b0 f i globalrec.obj
 0001:000157b0       ??$addressof@$$CBV?$basic_string@_WU?$char_traits@_W@std@@V?$allocator@_W@2@@std@@@std@@YAPEBV?$basic_string@_WU?$char_traits@_W@std@@V?$allocator@_W@2@@0@AEBV10@@Z 00000001800167b0 f i cbridge.obj
 0001:000157b0       ?_Getal@?$_Vector_alloc@U?$_Vec_base_types@PEAUDataValidation@xlslib_core@@V?$allocator@PEAUDataValidation@xlslib_core@@@std@@@std@@@std@@QEBAAEBU?$_Wrap_alloc@V?$allocator@PEAUDataValidation@xlslib_core@@@std@@@2@XZ 00000001800167b0 f i sheetrec.obj
 0001:000157b0       ??$addressof@QEAVCOleProp@xlslib_core@@@std@@YAPEBQEAVCOleProp@xlslib_core@@AEBQEAV12@@Z 00000001800167b0 f i olefs.obj
 0001:000157b0       ?_Get_first@?$_Compressed_pair@U?$_Wrap_alloc@V?$allocator@PEAVxf_t@xlslib_core@@@std@@@std@@V?$_Vector_val@U?$_Simple_types@PEAVxf_t@xlslib_core@@@std@@@2@$00@std@@QEAAAEAU?$_Wrap_alloc@V?$allocator@PEAVxf_t@xlslib_core@@@std@@@2@XZ 00000001800167b0 f i globalrec.obj
 0001:000157b0       ?_Getal@?$_Tree_comp_alloc@V?$_Tset_traits@PEAVHPSFitem@xlslib_core@@Vinsertsort2@2@V?$allocator@PEAVHPSFitem@xlslib_core@@@std@@$0A@@std@@@std@@QEAAAEAU?$_Wrap_alloc@V?$allocator@U?$_Tree_node@PEAVHPSFitem@xlslib_core@@PEAX@std@@@std@@@2@XZ 00000001800167b0 f i HPSF.obj
 0001:000157b0       ??$forward@AEBV?$allocator@D@std@@@std@@YAAEBV?$allocator@D@0@AEBV10@@Z 00000001800167b0 f i olefs.obj
 0001:000157b0       ??$addressof@$$CBUrowblocksize_t@xlslib_core@@@std@@YAPEBUrowblocksize_t@xlslib_core@@AEBU12@@Z 00000001800167b0 f i sheetrec.obj
 0001:000157b0       ?_Getal@?$_Vector_alloc@U?$_Vec_base_types@VCUnitStore@xlslib_core@@V?$allocator@VCUnitStore@xlslib_core@@@std@@@std@@@std@@QEBAAEBU?$_Wrap_alloc@V?$allocator@VCUnitStore@xlslib_core@@@std@@@2@XZ 00000001800167b0 f i datast.obj
 0001:000157b0       ?_Nextnode@?$_List_alloc@U?$_List_base_types@PEAV?$basic_string@DU?$char_traits@D@std@@V?$allocator@D@2@@std@@V?$allocator@PEAV?$basic_string@DU?$char_traits@D@std@@V?$allocator@D@2@@std@@@2@@std@@@std@@SAAEAPEAU?$_List_node@PEAV?$basic_string@DU?$char_traits@D@std@@V?$allocator@D@2@@std@@PEAX@2@PEAU32@@Z 00000001800167b0 f i olefs.obj
 0001:000157b0       ??4?$_Wrap_alloc@V?$allocator@D@std@@@std@@QEAAAEAU01@$$QEAU01@@Z 00000001800167b0 f i olefs.obj
 0001:000157b0       ?_Getal@?$_Tree_comp_alloc@V?$_Tset_traits@PEAUcolinfo_t@xlslib_core@@Vcolinfosort@2@V?$allocator@PEAUcolinfo_t@xlslib_core@@@std@@$0A@@std@@@std@@QEAAAEAU?$_Wrap_alloc@V?$allocator@U?$_Tree_node@PEAUcolinfo_t@xlslib_core@@PEAX@std@@@std@@@2@XZ 00000001800167b0 f i sheetrec.obj
 0001:000157b0       ?_Get_second@?$_Compressed_pair@U?$_Wrap_alloc@V?$allocator@_K@std@@@std@@V?$_Vector_val@U?$_Simple_types@_K@std@@@2@$00@std@@QEAAAEAV?$_Vector_val@U?$_Simple_types@_K@std@@@2@XZ 00000001800167b0 f i sheetrec.obj
 0001:000157b0       ??$_Unchecked@PEAPEAVfont_t@xlslib_core@@@std@@YAPEAPEAVfont_t@xlslib_core@@PEAPEAV12@@Z 00000001800167b0 f i globalrec.obj
 0001:000157b0       ?_Getcomp@?$_Tree_comp_alloc@V?$_Tset_traits@PEAVHPSFitem@xlslib_core@@Vinsertsort2@2@V?$allocator@PEAVHPSFitem@xlslib_core@@@std@@$0A@@std@@@std@@QEBAAEBVinsertsort2@xlslib_core@@XZ 00000001800167b0 f i HPSF.obj
 0001:000157b0       ?_Getal@?$_Vector_alloc@U?$_Vec_base_types@PEAVCUnit@xlslib_core@@V?$allocator@PEAVCUnit@xlslib_core@@@std@@@std@@@std@@QEAAAEAU?$_Wrap_alloc@V?$allocator@PEAVCUnit@xlslib_core@@@std@@@2@XZ 00000001800167b0 f i datast.obj
 0001:000157b0       ??$_Unfancy@V?$basic_string@_WU?$char_traits@_W@std@@V?$allocator@_W@2@@std@@@std@@YAPEAV?$basic_string@_WU?$char_traits@_W@std@@V?$allocator@_W@2@@0@PEAV10@@Z 00000001800167b0 f i cbridge.obj
 0001:000157b0       ??0?$_Wrap_alloc@V?$allocator@D@std@@@std@@QEAA@AEBU01@@Z 00000001800167b0 f i assert_assist.obj
 0001:000157b0       ??$forward@AEBQEAVHPSFitem@xlslib_core@@@std@@YAAEBQEAVHPSFitem@xlslib_core@@AEBQEAV12@@Z 00000001800167b0 f i HPSF.obj
 0001:000157b0       ??$_Unfancy@N@std@@YAPEANPEAN@Z 00000001800167b0 f i cbridge.obj
 0001:000157b0       ??$forward@AEBQEAVrowheight_t@xlslib_core@@@std@@YAAEBQEAVrowheight_t@xlslib_core@@AEBQEAV12@@Z 00000001800167b0 f i sheetrec.obj
 0001:000157b0       ?_Get_second@?$_Compressed_pair@U?$_Wrap_alloc@V?$allocator@U?$_Tree_node@PEAVcell_t@xlslib_core@@PEAX@std@@@std@@@std@@V?$_Tree_val@U?$_Tree_simple_types@PEAVcell_t@xlslib_core@@@std@@@2@$00@std@@QEAAAEAV?$_Tree_val@U?$_Tree_simple_types@PEAVcell_t@xlslib_core@@@std@@@2@XZ 00000001800167b0 f i sheetrec.obj
 0001:000157b0       ?_Myhead@?$_Tree_comp_alloc@V?$_Tset_traits@PEAVHPSFitem@xlslib_core@@Vinsertsort2@2@V?$allocator@PEAVHPSFitem@xlslib_core@@@std@@$0A@@std@@@std@@QEAAAEAPEAU?$_Tree_node@PEAVHPSFitem@xlslib_core@@PEAX@2@XZ 00000001800167b0 f i HPSF.obj
 0001:000157b0       ?_Get_first@?$_Compressed_pair@U?$_Wrap_alloc@V?$allocator@D@std@@@std@@V?$_String_val@U?$_Simple_types@D@std@@@2@$00@std@@QEAAAEAU?$_Wrap_alloc@V?$allocator@D@std@@@2@XZ 00000001800167b0 f i assert_assist.obj
 0001:000157b0       ?_Get_data@?$_Vector_alloc@U?$_Vec_base_types@Urowblocksize_t@xlslib_core@@V?$allocator@Urowblocksize_t@xlslib_core@@@std@@@std@@@std@@QEAAAEAV?$_Vector_val@U?$_Simple_types@Urowblocksize_t@xlslib_core@@@std@@@2@XZ 00000001800167b0 f i sheetrec.obj
 0001:000157b0       ?_Getcomp@?$_Tree_comp_alloc@V?$_Tset_traits@U?$pair@PEAVxf_t@xlslib_core@@UborderedXft@2@@std@@VxfSorter@xlslib_core@@V?$allocator@U?$pair@PEAVxf_t@xlslib_core@@UborderedXft@2@@std@@@2@$0A@@std@@@std@@QEBAAEBVxfSorter@xlslib_core@@XZ 00000001800167b0 f i range.obj
 0001:000157b0       ?_Get_first@?$_Compressed_pair@U?$_Wrap_alloc@V?$allocator@_K@std@@@std@@V?$_Vector_val@U?$_Simple_types@_K@std@@@2@$00@std@@QEBAAEBU?$_Wrap_alloc@V?$allocator@_K@std@@@2@XZ 00000001800167b0 f i sheetrec.obj
 0001:000157b0       ?_Myhead@?$_Tree_comp_alloc@V?$_Tset_traits@U?$pair@PEAVxf_t@xlslib_core@@UborderedXft@2@@std@@VxfSorter@xlslib_core@@V?$allocator@U?$pair@PEAVxf_t@xlslib_core@@UborderedXft@2@@std@@@2@$0A@@std@@@std@@QEBAAEBQEAU?$_Tree_node@U?$pair@PEAVxf_t@xlslib_core@@UborderedXft@2@@std@@PEAX@2@XZ 00000001800167b0 f i range.obj
 0001:000157b0       ??$forward@AEBVinsertsort@xlslib_core@@@std@@YAAEBVinsertsort@xlslib_core@@AEBV12@@Z 00000001800167b0 f i sheetrec.obj
 0001:000157b0       ??$forward@AEBVrowheightsort@xlslib_core@@@std@@YAAEBVrowheightsort@xlslib_core@@AEBV12@@Z 00000001800167b0 f i sheetrec.obj
 0001:000157b0       ??$_Unchecked@PEAVCUnitStore@xlslib_core@@@std@@YAPEAVCUnitStore@xlslib_core@@PEAV12@@Z 00000001800167b0 f i datast.obj
 0001:000157b0       ??$move@AEAU?$_Wrap_alloc@V?$allocator@_W@std@@@std@@@std@@YA$$QEAU?$_Wrap_alloc@V?$allocator@_W@std@@@0@AEAU10@@Z 00000001800167b0 f i cbridge.obj
 0001:000157b0       ?_Myfirst@?$_Vector_alloc@U?$_Vec_base_types@_KV?$allocator@_K@std@@@std@@@std@@QEAAAEAPEA_KXZ 00000001800167b0 f i sheetrec.obj
 0001:000157b0       ??$_Unchecked@PEAPEBVlabel_t@xlslib_core@@@std@@YAPEAPEBVlabel_t@xlslib_core@@PEAPEBV12@@Z 00000001800167b0 f i globalrec.obj
 0001:000157b0       ?_Get_data@?$_Vector_alloc@U?$_Vec_base_types@V?$basic_string@DU?$char_traits@D@std@@V?$allocator@D@2@@std@@V?$allocator@V?$basic_string@DU?$char_traits@D@std@@V?$allocator@D@2@@std@@@2@@std@@@std@@QEAAAEAV?$_Vector_val@U?$_Simple_types@V?$basic_string@DU?$char_traits@D@std@@V?$allocator@D@2@@std@@@std@@@2@XZ 00000001800167b0 f i cbridge.obj
 0001:000157b0       ?_Get_second@?$_Compressed_pair@Vinsertsort@xlslib_core@@V?$_Compressed_pair@U?$_Wrap_alloc@V?$allocator@U?$_Tree_node@PEAVcell_t@xlslib_core@@PEAX@std@@@std@@@std@@V?$_Tree_val@U?$_Tree_simple_types@PEAVcell_t@xlslib_core@@@std@@@2@$00@std@@$00@std@@QEAAAEAV?$_Compressed_pair@U?$_Wrap_alloc@V?$allocator@U?$_Tree_node@PEAVcell_t@xlslib_core@@PEAX@std@@@std@@@std@@V?$_Tree_val@U?$_Tree_simple_types@PEAVcell_t@xlslib_core@@@std@@@2@$00@2@XZ 00000001800167b0 f i sheetrec.obj
 0001:000157b0       ??0?$allocator@U?$_Tree_node@PEAVrowheight_t@xlslib_core@@PEAX@std@@@std@@QEAA@XZ 00000001800167b0 f i sheetrec.obj
 0001:000157b0       ?_Get_first@?$_Compressed_pair@Vrowheightsort@xlslib_core@@V?$_Compressed_pair@U?$_Wrap_alloc@V?$allocator@U?$_Tree_node@PEAVrowheight_t@xlslib_core@@PEAX@std@@@std@@@std@@V?$_Tree_val@U?$_Tree_simple_types@PEAVrowheight_t@xlslib_core@@@std@@@2@$00@std@@$00@std@@QEAAAEAVrowheightsort@xlslib_core@@XZ 00000001800167b0 f i sheetrec.obj
 0001:000157b0       ?_Getal@?$_Vector_alloc@U?$_Vec_base_types@PEAVworksheet@xlslib_core@@V?$allocator@PEAVworksheet@xlslib_core@@@std@@@std@@@std@@QEBAAEBU?$_Wrap_alloc@V?$allocator@PEAVworksheet@xlslib_core@@@std@@@2@XZ 00000001800167b0 f i workbook.obj
 0001:000157b0       ?_Get_first@?$_Compressed_pair@U?$_Wrap_alloc@V?$allocator@_S@std@@@std@@V?$_String_val@U?$_Simple_types@_S@std@@@2@$00@std@@QEAAAEAU?$_Wrap_alloc@V?$allocator@_S@std@@@2@XZ 00000001800167b0 f i datast.obj
 0001:000157b0       ??$_Ptr_move_cat@PEAVCUnit@xlslib_core@@PEAV12@@std@@YA?AU_Really_trivial_ptr_iterator_tag@0@AEBQEAPEAVCUnit@xlslib_core@@0@Z 00000001800167b0 f i datast.obj
 0001:000157b0       ??0?$_Wrap_alloc@V?$allocator@PEAVCUnit@xlslib_core@@@std@@@std@@QEAA@XZ 00000001800167b0 f i datast.obj
 0001:000157b0       ??0?$_Wrap_alloc@V?$allocator@PEAVformula_t@xlslib_core@@@std@@@std@@QEAA@XZ 00000001800167b0 f i sheetrec.obj
 0001:000157b0       ?_Get_second@?$_Compressed_pair@U?$_Wrap_alloc@V?$allocator@U?$_Tree_node@PEAUcolinfo_t@xlslib_core@@PEAX@std@@@std@@@std@@V?$_Tree_val@U?$_Tree_simple_types@PEAUcolinfo_t@xlslib_core@@@std@@@2@$00@std@@QEAAAEAV?$_Tree_val@U?$_Tree_simple_types@PEAUcolinfo_t@xlslib_core@@@std@@@2@XZ 00000001800167b0 f i sheetrec.obj
 0001:000157b0       ??$addressof@QEAVworksheet@xlslib_core@@@std@@YAPEBQEAVworksheet@xlslib_core@@AEBQEAV12@@Z 00000001800167b0 f i workbook.obj
 0001:000157b0       ?_Get_second@?$_Compressed_pair@U?$_Wrap_alloc@V?$allocator@PEAUstyle_t@xlslib_core@@@std@@@std@@V?$_Vector_val@U?$_Simple_types@PEAUstyle_t@xlslib_core@@@std@@@2@$00@std@@QEBAAEBV?$_Vector_val@U?$_Simple_types@PEAUstyle_t@xlslib_core@@@std@@@2@XZ 00000001800167b0 f i globalrec.obj
 0001:000157b0       ?_Myhead@?$_Tree_comp_alloc@V?$_Tset_traits@PEAVHPSFitem@xlslib_core@@Vinsertsort2@2@V?$allocator@PEAVHPSFitem@xlslib_core@@@std@@$0A@@std@@@std@@QEBAAEBQEAU?$_Tree_node@PEAVHPSFitem@xlslib_core@@PEAX@2@XZ 00000001800167b0 f i HPSF.obj
 0001:000157b0       ?select_on_container_copy_construction@?$allocator_traits@V?$allocator@D@std@@@std@@SA?AV?$allocator@D@2@AEBV32@@Z 00000001800167b0 f i assert_assist.obj
 0001:000157b0       ?_Get_first@?$_Compressed_pair@U?$_Wrap_alloc@V?$allocator@PEAVformat_t@xlslib_core@@@std@@@std@@V?$_Vector_val@U?$_Simple_types@PEAVformat_t@xlslib_core@@@std@@@2@$00@std@@QEAAAEAU?$_Wrap_alloc@V?$allocator@PEAVformat_t@xlslib_core@@@std@@@2@XZ 00000001800167b0 f i globalrec.obj
 0001:000157b0       ?_Get_first@?$_Compressed_pair@U?$_Wrap_alloc@V?$allocator@N@std@@@std@@V?$_Vector_val@U?$_Simple_types@N@std@@@2@$00@std@@QEBAAEBU?$_Wrap_alloc@V?$allocator@N@std@@@2@XZ 00000001800167b0 f i cbridge.obj
 0001:000157b0       ?_Left@?$_Tree_comp_alloc@V?$_Tset_traits@U?$pair@PEAVxf_t@xlslib_core@@UborderedXft@2@@std@@VxfSorter@xlslib_core@@V?$allocator@U?$pair@PEAVxf_t@xlslib_core@@UborderedXft@2@@std@@@2@$0A@@std@@@std@@SAAEAPEAU?$_Tree_node@U?$pair@PEAVxf_t@xlslib_core@@UborderedXft@2@@std@@PEAX@2@PEAU32@@Z 00000001800167b0 f i range.obj
 0001:000157b0       ??$addressof@PEAU?$_Tree_node@PEAVHPSFitem@xlslib_core@@PEAX@std@@@std@@YAPEAPEAU?$_Tree_node@PEAVHPSFitem@xlslib_core@@PEAX@0@AEAPEAU10@@Z 00000001800167b0 f i HPSF.obj
 0001:000157b0       ??0?$allocator@PEAUDataValidation@xlslib_core@@@std@@QEAA@XZ 00000001800167b0 f i sheetrec.obj
 0001:000157b0       ?_Getal@?$_Vector_alloc@U?$_Vec_base_types@PEAVformat_t@xlslib_core@@V?$allocator@PEAVformat_t@xlslib_core@@@std@@@std@@@std@@QEAAAEAU?$_Wrap_alloc@V?$allocator@PEAVformat_t@xlslib_core@@@std@@@2@XZ 00000001800167b0 f i globalrec.obj
 0001:000157b0       ??$forward@AEBQEAVfont_t@xlslib_core@@@std@@YAAEBQEAVfont_t@xlslib_core@@AEBQEAV12@@Z 00000001800167b0 f i globalrec.obj
 0001:000157b0       ?_Get_first@?$_Compressed_pair@U?$_Wrap_alloc@V?$allocator@PEAVformat_t@xlslib_core@@@std@@@std@@V?$_Vector_val@U?$_Simple_types@PEAVformat_t@xlslib_core@@@std@@@2@$00@std@@QEBAAEBU?$_Wrap_alloc@V?$allocator@PEAVformat_t@xlslib_core@@@std@@@2@XZ 00000001800167b0 f i globalrec.obj
 0001:000157b0       ?_Nextnode@?$_List_val@U?$_List_simple_types@PEAV?$basic_string@DU?$char_traits@D@std@@V?$allocator@D@2@@std@@@std@@@std@@SAAEAPEAU?$_List_node@PEAV?$basic_string@DU?$char_traits@D@std@@V?$allocator@D@2@@std@@PEAX@2@PEAU32@@Z 00000001800167b0 f i olefs.obj
 0001:000157b0       ?_Getal@?$_Tree_comp_alloc@V?$_Tset_traits@PEAVrowheight_t@xlslib_core@@Vrowheightsort@2@V?$allocator@PEAVrowheight_t@xlslib_core@@@std@@$0A@@std@@@std@@QEBAAEBU?$_Wrap_alloc@V?$allocator@U?$_Tree_node@PEAVrowheight_t@xlslib_core@@PEAX@std@@@std@@@2@XZ 00000001800167b0 f i sheetrec.obj
 0001:000157b0       ?_Get_first@?$_Compressed_pair@U?$_Wrap_alloc@V?$allocator@N@std@@@std@@V?$_Vector_val@U?$_Simple_types@N@std@@@2@$00@std@@QEAAAEAU?$_Wrap_alloc@V?$allocator@N@std@@@2@XZ 00000001800167b0 f i cbridge.obj
 0001:000157b0       ??$forward@AEAV?$_Tree_const_iterator@V?$_Tree_val@U?$_Tree_simple_types@PEAVrowheight_t@xlslib_core@@@std@@@std@@@std@@@std@@YAAEAV?$_Tree_const_iterator@V?$_Tree_val@U?$_Tree_simple_types@PEAVrowheight_t@xlslib_core@@@std@@@std@@@0@AEAV10@@Z 00000001800167b0 f i sheetrec.obj
 0001:000157b0       ?_Get_second@?$_Compressed_pair@U?$_Wrap_alloc@V?$allocator@PEAVrange@xlslib_core@@@std@@@std@@V?$_Vector_val@U?$_Simple_types@PEAVrange@xlslib_core@@@std@@@2@$00@std@@QEAAAEAV?$_Vector_val@U?$_Simple_types@PEAVrange@xlslib_core@@@std@@@2@XZ 00000001800167b0 f i sheetrec.obj
 0001:000157b0       ?pointer_to@?$pointer_traits@PEBD@std@@SAPEBDAEBD@Z 00000001800167b0 f i globalrec.obj
 0001:000157b0       ??$forward@AEAPEAUHyperLink@xlslib_core@@@std@@YAAEAPEAUHyperLink@xlslib_core@@AEAPEAU12@@Z 00000001800167b0 f i sheetrec.obj
 0001:000157b0       ??0?$_Wrap_alloc@V?$allocator@PEAVworksheet@xlslib_core@@@std@@@std@@QEAA@XZ 00000001800167b0 f i workbook.obj
 0001:000157b0       ??0?$_Wrap_alloc@V?$allocator@PEAUDataValidation@xlslib_core@@@std@@@std@@QEAA@XZ 00000001800167b0 f i sheetrec.obj
 0001:000157b0       ?_Get_data@?$_Vector_alloc@U?$_Vec_base_types@VCUnitStore@xlslib_core@@V?$allocator@VCUnitStore@xlslib_core@@@std@@@std@@@std@@QEAAAEAV?$_Vector_val@U?$_Simple_types@VCUnitStore@xlslib_core@@@std@@@2@XZ 00000001800167b0 f i datast.obj
 0001:000157b0       ??$addressof@PEA_W@std@@YAPEAPEA_WAEAPEA_W@Z 00000001800167b0 f i cbridge.obj
 0001:000157b0       ?_Get_data@?$_String_alloc@U?$_String_base_types@_WV?$allocator@_W@std@@@std@@@std@@QEAAAEAV?$_String_val@U?$_Simple_types@_W@std@@@2@XZ 00000001800167b0 f i cbridge.obj
 0001:000157b0       ?_Left@?$_Tree_val@U?$_Tree_simple_types@PEAVHPSFitem@xlslib_core@@@std@@@std@@SAAEAPEAU?$_Tree_node@PEAVHPSFitem@xlslib_core@@PEAX@2@PEAU32@@Z 00000001800167b0 f i HPSF.obj
 0001:000157b0       ?_Getal@?$_Vector_alloc@U?$_Vec_base_types@V?$basic_string@DU?$char_traits@D@std@@V?$allocator@D@2@@std@@V?$allocator@V?$basic_string@DU?$char_traits@D@std@@V?$allocator@D@2@@std@@@2@@std@@@std@@QEAAAEAU?$_Wrap_alloc@V?$allocator@V?$basic_string@DU?$char_traits@D@std@@V?$allocator@D@2@@std@@@std@@@2@XZ 00000001800167b0 f i cbridge.obj
 0001:000157b0       ?_Getal@?$_Vector_alloc@U?$_Vec_base_types@PEAVrange_t@xlslib_core@@V?$allocator@PEAVrange_t@xlslib_core@@@std@@@std@@@std@@QEAAAEAU?$_Wrap_alloc@V?$allocator@PEAVrange_t@xlslib_core@@@std@@@2@XZ 00000001800167b0 f i sheetrec.obj
 0001:000157b0       ?_Getcomp@?$_Tree_comp_alloc@V?$_Tset_traits@PEAUcolinfo_t@xlslib_core@@Vcolinfosort@2@V?$allocator@PEAUcolinfo_t@xlslib_core@@@std@@$0A@@std@@@std@@QEBAAEBVcolinfosort@xlslib_core@@XZ 00000001800167b0 f i sheetrec.obj
 0001:000157b0       ??$addressof@_K@std@@YAPEA_KAEA_K@Z 00000001800167b0 f i sheetrec.obj
 0001:000157b0       ?_Left@?$_Tree_val@U?$_Tree_simple_types@PEAVcell_t@xlslib_core@@@std@@@std@@SAAEAPEAU?$_Tree_node@PEAVcell_t@xlslib_core@@PEAX@2@PEAU32@@Z 00000001800167b0 f i sheetrec.obj
 0001:000157b0       ??$_Ptr_move_cat@Urowblocksize_t@xlslib_core@@U12@@std@@YA?AU_Trivially_copyable_ptr_iterator_tag@0@AEBQEAUrowblocksize_t@xlslib_core@@0@Z 00000001800167b0 f i sheetrec.obj
 0001:000157b0       ??$_Ptr_move_cat@PEAVformat_t@xlslib_core@@PEAV12@@std@@YA?AU_Really_trivial_ptr_iterator_tag@0@AEBQEAPEAVformat_t@xlslib_core@@0@Z 00000001800167b0 f i globalrec.obj
 0001:000157b0       ?_Get_first@?$_Compressed_pair@U?$_Wrap_alloc@V?$allocator@PEBVlabel_t@xlslib_core@@@std@@@std@@V?$_Vector_val@U?$_Simple_types@PEBVlabel_t@xlslib_core@@@std@@@2@$00@std@@QEAAAEAU?$_Wrap_alloc@V?$allocator@PEBVlabel_t@xlslib_core@@@std@@@2@XZ 00000001800167b0 f i globalrec.obj
 0001:000157b0       ??$forward@AEAPEA_W@std@@YAAEAPEA_WAEAPEA_W@Z 00000001800167b0 f i cbridge.obj
 0001:000157b0       ??$forward@PEBVlabel_t@xlslib_core@@@std@@YA$$QEAPEBVlabel_t@xlslib_core@@AEAPEBV12@@Z 00000001800167b0 f i globalrec.obj
 0001:000157b0       ?_Getal@?$_Tree_comp_alloc@V?$_Tset_traits@PEAVrowheight_t@xlslib_core@@Vrowheightsort@2@V?$allocator@PEAVrowheight_t@xlslib_core@@@std@@$0A@@std@@@std@@QEAAAEAU?$_Wrap_alloc@V?$allocator@U?$_Tree_node@PEAVrowheight_t@xlslib_core@@PEAX@std@@@std@@@2@XZ 00000001800167b0 f i sheetrec.obj
 0001:000157b0       ??$forward@V?$basic_string@_WU?$char_traits@_W@std@@V?$allocator@_W@2@@std@@@std@@YA$$QEAV?$basic_string@_WU?$char_traits@_W@std@@V?$allocator@_W@2@@0@AEAV10@@Z 00000001800167b0 f i cbridge.obj
 0001:000157b0       ?_Getal@?$_Tree_comp_alloc@V?$_Tset_traits@PEAVcell_t@xlslib_core@@Vinsertsort@2@V?$allocator@PEAVcell_t@xlslib_core@@@std@@$0A@@std@@@std@@QEAAAEAU?$_Wrap_alloc@V?$allocator@U?$_Tree_node@PEAVcell_t@xlslib_core@@PEAX@std@@@std@@@2@XZ 00000001800167b0 f i sheetrec.obj
 0001:000157b0       ??$forward@AEAPEAUstyle_t@xlslib_core@@@std@@YAAEAPEAUstyle_t@xlslib_core@@AEAPEAU12@@Z 00000001800167b0 f i globalrec.obj
 0001:000157b0       ?_Get_second@?$_Compressed_pair@Vrowheightsort@xlslib_core@@V?$_Compressed_pair@U?$_Wrap_alloc@V?$allocator@U?$_Tree_node@PEAVrowheight_t@xlslib_core@@PEAX@std@@@std@@@std@@V?$_Tree_val@U?$_Tree_simple_types@PEAVrowheight_t@xlslib_core@@@std@@@2@$00@std@@$00@std@@QEAAAEAV?$_Compressed_pair@U?$_Wrap_alloc@V?$allocator@U?$_Tree_node@PEAVrowheight_t@xlslib_core@@PEAX@std@@@std@@@std@@V?$_Tree_val@U?$_Tree_simple_types@PEAVrowheight_t@xlslib_core@@@std@@@2@$00@2@XZ 00000001800167b0 f i sheetrec.obj
 0001:000157b0       ??0?$_Wrap_alloc@V?$allocator@PEAVfont_t@xlslib_core@@@std@@@std@@QEAA@XZ 00000001800167b0 f i globalrec.obj
 0001:000157b0       ??$addressof@PEAUcolinfo_t@xlslib_core@@@std@@YAPEAPEAUcolinfo_t@xlslib_core@@AEAPEAU12@@Z 00000001800167b0 f i sheetrec.obj
 0001:000157b0       ??0?$allocator@PEBVlabel_t@xlslib_core@@@std@@QEAA@XZ 00000001800167b0 f i globalrec.obj
 0001:000157b0       ?_Get_first@?$_Compressed_pair@U?$_Wrap_alloc@V?$allocator@U?$_List_node@PEAV?$basic_string@DU?$char_traits@D@std@@V?$allocator@D@2@@std@@PEAX@std@@@std@@@std@@V?$_List_val@U?$_List_simple_types@PEAV?$basic_string@DU?$char_traits@D@std@@V?$allocator@D@2@@std@@@std@@@2@$00@std@@QEBAAEBU?$_Wrap_alloc@V?$allocator@U?$_List_node@PEAV?$basic_string@DU?$char_traits@D@std@@V?$allocator@D@2@@std@@PEAX@std@@@std@@@2@XZ 00000001800167b0 f i olefs.obj
 0001:000157b0       ?_Myfirst@?$_Vector_alloc@U?$_Vec_base_types@VCUnitStore@xlslib_core@@V?$allocator@VCUnitStore@xlslib_core@@@std@@@std@@@std@@QEBAAEBQEAVCUnitStore@xlslib_core@@XZ 00000001800167b0 f i datast.obj
 0001:000157b0       ??$addressof@U?$pair@PEAVxf_t@xlslib_core@@UborderedXft@2@@std@@@std@@YAPEAU?$pair@PEAVxf_t@xlslib_core@@UborderedXft@2@@0@AEAU10@@Z 00000001800167b0 f i range.obj
 0001:000157b0       ??0?$_Wrap_alloc@V?$allocator@U?$_Tree_node@PEAVrowheight_t@xlslib_core@@PEAX@std@@@std@@@std@@QEAA@XZ 00000001800167b0 f i sheetrec.obj
 0001:000157b0       ?_Get_first@?$_Compressed_pair@U?$_Wrap_alloc@V?$allocator@PEAVCOleProp@xlslib_core@@@std@@@std@@V?$_Vector_val@U?$_Simple_types@PEAVCOleProp@xlslib_core@@@std@@@2@$00@std@@QEBAAEBU?$_Wrap_alloc@V?$allocator@PEAVCOleProp@xlslib_core@@@std@@@2@XZ 00000001800167b0 f i olefs.obj
 0001:000157b0       ?_Getal@?$_List_alloc@U?$_List_base_types@PEAV?$basic_string@DU?$char_traits@D@std@@V?$allocator@D@2@@std@@V?$allocator@PEAV?$basic_string@DU?$char_traits@D@std@@V?$allocator@D@2@@std@@@2@@std@@@std@@QEAAAEAU?$_Wrap_alloc@V?$allocator@U?$_List_node@PEAV?$basic_string@DU?$char_traits@D@std@@V?$allocator@D@2@@std@@PEAX@std@@@std@@@2@XZ 00000001800167b0 f i olefs.obj
 0001:000157b0       ??0?$allocator@PEAVformula_t@xlslib_core@@@std@@QEAA@XZ 00000001800167b0 f i sheetrec.obj
 0001:000157b0       ?_Get_second@?$_Compressed_pair@U?$_Wrap_alloc@V?$allocator@PEAUDataValidation@xlslib_core@@@std@@@std@@V?$_Vector_val@U?$_Simple_types@PEAUDataValidation@xlslib_core@@@std@@@2@$00@std@@QEBAAEBV?$_Vector_val@U?$_Simple_types@PEAUDataValidation@xlslib_core@@@std@@@2@XZ 00000001800167b0 f i sheetrec.obj
 0001:000157b0       ??$forward@AEAPEAVfont_t@xlslib_core@@@std@@YAAEAPEAVfont_t@xlslib_core@@AEAPEAV12@@Z 00000001800167b0 f i globalrec.obj
 0001:000157b0       ??$forward@V?$basic_string@DU?$char_traits@D@std@@V?$allocator@D@2@@std@@@std@@YA$$QEAV?$basic_string@DU?$char_traits@D@std@@V?$allocator@D@2@@0@AEAV10@@Z 00000001800167b0 f i assert_assist.obj
 0001:000157b0       ?_Get_first@?$_Compressed_pair@U?$_Wrap_alloc@V?$allocator@PEAVworksheet@xlslib_core@@@std@@@std@@V?$_Vector_val@U?$_Simple_types@PEAVworksheet@xlslib_core@@@std@@@2@$00@std@@QEBAAEBU?$_Wrap_alloc@V?$allocator@PEAVworksheet@xlslib_core@@@std@@@2@XZ 00000001800167b0 f i workbook.obj
 0001:000157b0       ?_Get_second@?$_Compressed_pair@U?$_Wrap_alloc@V?$allocator@_S@std@@@std@@V?$_String_val@U?$_Simple_types@_S@std@@@2@$00@std@@QEBAAEBV?$_String_val@U?$_Simple_types@_S@std@@@2@XZ 00000001800167b0 f i datast.obj
 0001:000157b0       ?_Get_second@?$_Compressed_pair@U?$_Wrap_alloc@V?$allocator@PEBVlabel_t@xlslib_core@@@std@@@std@@V?$_Vector_val@U?$_Simple_types@PEBVlabel_t@xlslib_core@@@std@@@2@$00@std@@QEBAAEBV?$_Vector_val@U?$_Simple_types@PEBVlabel_t@xlslib_core@@@std@@@2@XZ 00000001800167b0 f i datast.obj
 0001:000157b0       ?_Get_second@?$_Compressed_pair@U?$_Wrap_alloc@V?$allocator@U?$_List_node@PEAV?$basic_string@DU?$char_traits@D@std@@V?$allocator@D@2@@std@@PEAX@std@@@std@@@std@@V?$_List_val@U?$_List_simple_types@PEAV?$basic_string@DU?$char_traits@D@std@@V?$allocator@D@2@@std@@@std@@@2@$00@std@@QEBAAEBV?$_List_val@U?$_List_simple_types@PEAV?$basic_string@DU?$char_traits@D@std@@V?$allocator@D@2@@std@@@std@@@2@XZ 00000001800167b0 f i olefs.obj
 0001:000157b0       ??0?$_Wrap_alloc@V?$allocator@D@std@@@std@@QEAA@XZ 00000001800167b0 f i assert_assist.obj
 0001:000157b0       ??0?$allocator@_S@std@@QEAA@AEBV01@@Z 00000001800167b0 f i datast.obj
 0001:000157b0       ??0?$_Wrap_alloc@V?$allocator@_S@std@@@std@@QEAA@$$QEAU01@@Z 00000001800167b0 f i datast.obj
 0001:000157b0       ??0?$allocator@PEAVformat_t@xlslib_core@@@std@@QEAA@XZ 00000001800167b0 f i globalrec.obj
 0001:000157b0       ?_Myhead@?$_Tree_comp_alloc@V?$_Tset_traits@PEAVcell_t@xlslib_core@@Vinsertsort@2@V?$allocator@PEAVcell_t@xlslib_core@@@std@@$0A@@std@@@std@@QEAAAEAPEAU?$_Tree_node@PEAVcell_t@xlslib_core@@PEAX@2@XZ 00000001800167b0 f i sheetrec.obj
 0001:000157b0       ??$forward@AEAV?$basic_string@_WU?$char_traits@_W@std@@V?$allocator@_W@2@@std@@@std@@YAAEAV?$basic_string@_WU?$char_traits@_W@std@@V?$allocator@_W@2@@0@AEAV10@@Z 00000001800167b0 f i cbridge.obj
 0001:000157b0       ?_Get_data@?$_Vector_alloc@U?$_Vec_base_types@PEAVfont_t@xlslib_core@@V?$allocator@PEAVfont_t@xlslib_core@@@std@@@std@@@std@@QEAAAEAV?$_Vector_val@U?$_Simple_types@PEAVfont_t@xlslib_core@@@std@@@2@XZ 00000001800167b0 f i globalrec.obj
 0001:000157b0       ??$?0V?$allocator@D@std@@@?$_Wrap_alloc@V?$allocator@D@std@@@std@@QEAA@$$QEAV?$allocator@D@1@@Z 00000001800167b0 f i assert_assist.obj
 0001:000157b0       ?_Get_first@?$_Compressed_pair@U?$_Wrap_alloc@V?$allocator@PEAVfont_t@xlslib_core@@@std@@@std@@V?$_Vector_val@U?$_Simple_types@PEAVfont_t@xlslib_core@@@std@@@2@$00@std@@QEBAAEBU?$_Wrap_alloc@V?$allocator@PEAVfont_t@xlslib_core@@@std@@@2@XZ 00000001800167b0 f i globalrec.obj
 0001:000157b0       ?_Get_second@?$_Compressed_pair@U?$_Wrap_alloc@V?$allocator@PEAVCOleProp@xlslib_core@@@std@@@std@@V?$_Vector_val@U?$_Simple_types@PEAVCOleProp@xlslib_core@@@std@@@2@$00@std@@QEAAAEAV?$_Vector_val@U?$_Simple_types@PEAVCOleProp@xlslib_core@@@std@@@2@XZ 00000001800167b0 f i oledoc.obj
 0001:000157b0       ??$_Unchecked@PEAPEAVworksheet@xlslib_core@@@std@@YAPEAPEAVworksheet@xlslib_core@@PEAPEAV12@@Z 00000001800167b0 f i workbook.obj
 0001:000157b0       ??$_Unchecked@PEAV?$basic_string@DU?$char_traits@D@std@@V?$allocator@D@2@@std@@@std@@YAPEAV?$basic_string@DU?$char_traits@D@std@@V?$allocator@D@2@@0@PEAV10@@Z 00000001800167b0 f i cbridge.obj
 0001:000157b0       ?_Myfirst@?$_Vector_alloc@U?$_Vec_base_types@PEAUHyperLink@xlslib_core@@V?$allocator@PEAUHyperLink@xlslib_core@@@std@@@std@@@std@@QEAAAEAPEAPEAUHyperLink@xlslib_core@@XZ 00000001800167b0 f i sheetrec.obj
 0001:000157b0       ??$?0V?$allocator@_W@std@@@?$_Wrap_alloc@V?$allocator@_W@std@@@std@@QEAA@$$QEAV?$allocator@_W@1@@Z 00000001800167b0 f i cbridge.obj
 0001:000157b0       ??$addressof@PEAVrowheight_t@xlslib_core@@@std@@YAPEAPEAVrowheight_t@xlslib_core@@AEAPEAV12@@Z 00000001800167b0 f i sheetrec.obj
 0001:000157b0       ?_Getal@?$_Vector_alloc@U?$_Vec_base_types@PEAVCOleProp@xlslib_core@@V?$allocator@PEAVCOleProp@xlslib_core@@@std@@@std@@@std@@QEAAAEAU?$_Wrap_alloc@V?$allocator@PEAVCOleProp@xlslib_core@@@std@@@2@XZ 00000001800167b0 f i oledoc.obj
 0001:000157b0       ?pointer_to@?$pointer_traits@PEB_S@std@@SAPEB_SAEB_S@Z 00000001800167b0 f i globalrec.obj
 0001:000157b0       ??$forward@AEAPEAVformula_t@xlslib_core@@@std@@YAAEAPEAVformula_t@xlslib_core@@AEAPEAV12@@Z 00000001800167b0 f i sheetrec.obj
 0001:000157b0       ??$forward@AEAPEAVboundsheet_t@xlslib_core@@@std@@YAAEAPEAVboundsheet_t@xlslib_core@@AEAPEAV12@@Z 00000001800167b0 f i globalrec.obj
 0001:000157b0       ?_Get_second@?$_Compressed_pair@U?$_Wrap_alloc@V?$allocator@U?$_Tree_node@U?$pair@PEAVxf_t@xlslib_core@@UborderedXft@2@@std@@PEAX@std@@@std@@@std@@V?$_Tree_val@U?$_Tree_simple_types@U?$pair@PEAVxf_t@xlslib_core@@UborderedXft@2@@std@@@std@@@2@$00@std@@QEAAAEAV?$_Tree_val@U?$_Tree_simple_types@U?$pair@PEAVxf_t@xlslib_core@@UborderedXft@2@@std@@@std@@@2@XZ 00000001800167b0 f i range.obj
 0001:000157b0       ??$forward@AEBVxfSorter@xlslib_core@@@std@@YAAEBVxfSorter@xlslib_core@@AEBV12@@Z 00000001800167b0 f i range.obj
 0001:000157b0       ?_Myfirst@?$_Vector_alloc@U?$_Vec_base_types@NV?$allocator@N@std@@@std@@@std@@QEAAAEAPEANXZ 00000001800167b0 f i cbridge.obj
 0001:000157b0       ?_Get_second@?$_Compressed_pair@U?$_Wrap_alloc@V?$allocator@_W@std@@@std@@V?$_String_val@U?$_Simple_types@_W@std@@@2@$00@std@@QEAAAEAV?$_String_val@U?$_Simple_types@_W@std@@@2@XZ 00000001800167b0 f i cbridge.obj
 0001:000157b0       ??$move@AEAU?$_Wrap_alloc@V?$allocator@_S@std@@@std@@@std@@YA$$QEAU?$_Wrap_alloc@V?$allocator@_S@std@@@0@AEAU10@@Z 00000001800167b0 f i datast.obj
 0001:000157b0       ?_Get_first@?$_Compressed_pair@U?$_Wrap_alloc@V?$allocator@U?$_Tree_node@PEAVcell_t@xlslib_core@@PEAX@std@@@std@@@std@@V?$_Tree_val@U?$_Tree_simple_types@PEAVcell_t@xlslib_core@@@std@@@2@$00@std@@QEAAAEAU?$_Wrap_alloc@V?$allocator@U?$_Tree_node@PEAVcell_t@xlslib_core@@PEAX@std@@@std@@@2@XZ 00000001800167b0 f i sheetrec.obj
 0001:000157b0       ?_Myfirst@?$_Vector_alloc@U?$_Vec_base_types@PEAVboundsheet_t@xlslib_core@@V?$allocator@PEAVboundsheet_t@xlslib_core@@@std@@@std@@@std@@QEAAAEAPEAPEAVboundsheet_t@xlslib_core@@XZ 00000001800167b0 f i globalrec.obj
 0001:000157b0       ??$move@AEAU?$_Wrap_alloc@V?$allocator@D@std@@@std@@@std@@YA$$QEAU?$_Wrap_alloc@V?$allocator@D@std@@@0@AEAU10@@Z 00000001800167b0 f i assert_assist.obj
 0001:000157b0       ??$_Ptr_move_cat@PEAVrange@xlslib_core@@PEAV12@@std@@YA?AU_Really_trivial_ptr_iterator_tag@0@AEBQEAPEAVrange@xlslib_core@@0@Z 00000001800167b0 f i sheetrec.obj
 0001:000157b0       ??$forward@AEAPEAVrange_t@xlslib_core@@@std@@YAAEAPEAVrange_t@xlslib_core@@AEAPEAV12@@Z 00000001800167b0 f i sheetrec.obj
 0001:000157b0       ?_Get_data@?$_Tree_comp_alloc@V?$_Tset_traits@PEAVrowheight_t@xlslib_core@@Vrowheightsort@2@V?$allocator@PEAVrowheight_t@xlslib_core@@@std@@$0A@@std@@@std@@QEBAAEBV?$_Tree_val@U?$_Tree_simple_types@PEAVrowheight_t@xlslib_core@@@std@@@2@XZ 00000001800167b0 f i sheetrec.obj
 0001:000157b0       ?_Get_second@?$_Compressed_pair@U?$_Wrap_alloc@V?$allocator@PEAVformat_t@xlslib_core@@@std@@@std@@V?$_Vector_val@U?$_Simple_types@PEAVformat_t@xlslib_core@@@std@@@2@$00@std@@QEBAAEBV?$_Vector_val@U?$_Simple_types@PEAVformat_t@xlslib_core@@@std@@@2@XZ 00000001800167b0 f i globalrec.obj
 0001:000157b0       ?_Get_data@?$_Vector_alloc@U?$_Vec_base_types@PEAVrange@xlslib_core@@V?$allocator@PEAVrange@xlslib_core@@@std@@@std@@@std@@QEAAAEAV?$_Vector_val@U?$_Simple_types@PEAVrange@xlslib_core@@@std@@@2@XZ 00000001800167b0 f i sheetrec.obj
 0001:000157b0       ??$_Ptr_move_cat@PEAVrange_t@xlslib_core@@PEAV12@@std@@YA?AU_Really_trivial_ptr_iterator_tag@0@AEBQEAPEAVrange_t@xlslib_core@@0@Z 00000001800167b0 f i sheetrec.obj
 0001:000157b0       ??$addressof@D@std@@YAPEADAEAD@Z 00000001800167b0 f i binfile.obj
 0001:000157b0       ??$forward@AEAV?$_Tree_const_iterator@V?$_Tree_val@U?$_Tree_simple_types@PEAUcolinfo_t@xlslib_core@@@std@@@std@@@std@@@std@@YAAEAV?$_Tree_const_iterator@V?$_Tree_val@U?$_Tree_simple_types@PEAUcolinfo_t@xlslib_core@@@std@@@std@@@0@AEAV10@@Z 00000001800167b0 f i sheetrec.obj
 0001:000157b0       ?_Get_first@?$_Compressed_pair@U?$_Wrap_alloc@V?$allocator@PEAVrange@xlslib_core@@@std@@@std@@V?$_Vector_val@U?$_Simple_types@PEAVrange@xlslib_core@@@std@@@2@$00@std@@QEAAAEAU?$_Wrap_alloc@V?$allocator@PEAVrange@xlslib_core@@@std@@@2@XZ 00000001800167b0 f i sheetrec.obj
 0001:000157b0       ??$_Unfancy@V?$basic_string@DU?$char_traits@D@std@@V?$allocator@D@2@@std@@@std@@YAPEAV?$basic_string@DU?$char_traits@D@std@@V?$allocator@D@2@@0@PEAV10@@Z 00000001800167b0 f i cbridge.obj
 0001:000157b0       ?_Get_first@?$_Compressed_pair@U?$_Wrap_alloc@V?$allocator@D@std@@@std@@V?$_String_val@U?$_Simple_types@D@std@@@2@$00@std@@QEBAAEBU?$_Wrap_alloc@V?$allocator@D@std@@@2@XZ 00000001800167b0 f i assert_assist.obj
 0001:000157b0       ?_Get_first@?$_Compressed_pair@U?$_Wrap_alloc@V?$allocator@PEAVCUnit@xlslib_core@@@std@@@std@@V?$_Vector_val@U?$_Simple_types@PEAVCUnit@xlslib_core@@@std@@@2@$00@std@@QEBAAEBU?$_Wrap_alloc@V?$allocator@PEAVCUnit@xlslib_core@@@std@@@2@XZ 00000001800167b0 f i datast.obj
 0001:000157c0       ??Bstr_stream@@QEBA?AV?$basic_string@DU?$char_traits@D@std@@V?$allocator@D@2@@std@@XZ 00000001800167c0 f i assert_assist.obj
 0001:000157e0       ??1str_stream@@QEAA@XZ     00000001800167e0 f i assert_assist.obj
 0001:000157e0       ??_D?$basic_stringstream@DU?$char_traits@D@std@@V?$allocator@D@2@@std@@QEAAXXZ 00000001800167e0 f i assert_assist.obj
 0001:000159b0       ??0?$_Compressed_pair@U?$_Wrap_alloc@V?$allocator@D@std@@@std@@V?$_String_val@U?$_Simple_types@D@std@@@2@$00@std@@QEAA@AEBV01@@Z 00000001800169b0 f i assert_assist.obj
 0001:000159b0       ??0?$_String_alloc@U?$_String_base_types@DV?$allocator@D@std@@@std@@@std@@QEAA@AEBV01@@Z 00000001800169b0 f i assert_assist.obj
 0001:000159d0       ??$destroy@PEAUcolinfo_t@xlslib_core@@@?$_Wrap_alloc@V?$allocator@U?$_Tree_node@PEAUcolinfo_t@xlslib_core@@PEAX@std@@@std@@@std@@QEAAXPEAPEAUcolinfo_t@xlslib_core@@@Z 00000001800169d0 f i sheetrec.obj
 0001:000159d0       ?_Destroy@?$vector@PEAVrange@xlslib_core@@V?$allocator@PEAVrange@xlslib_core@@@std@@@std@@IEAAXPEAPEAVrange@xlslib_core@@0@Z 00000001800169d0 f i sheetrec.obj
 0001:000159d0       ??$destroy@PEAVrowheight_t@xlslib_core@@@?$allocator@U?$_Tree_node@PEAVrowheight_t@xlslib_core@@PEAX@std@@@std@@QEAAXPEAPEAVrowheight_t@xlslib_core@@@Z 00000001800169d0 f i sheetrec.obj
 0001:000159d0       ?_Orphan_range@?$vector@PEAVworksheet@xlslib_core@@V?$allocator@PEAVworksheet@xlslib_core@@@std@@@std@@IEBAXPEAPEAVworksheet@xlslib_core@@0@Z 00000001800169d0 f i workbook.obj
 0001:000159d0       ?_Compat@?$_Vector_const_iterator@V?$_Vector_val@U?$_Simple_types@PEAVCUnit@xlslib_core@@@std@@@std@@@std@@QEBAXAEBV12@@Z 00000001800169d0 f i datast.obj
 0001:000159d0       ?_Compat@?$_Vector_const_iterator@V?$_Vector_val@U?$_Simple_types@PEAVworksheet@xlslib_core@@@std@@@std@@@std@@QEBAXAEBV12@@Z 00000001800169d0 f i workbook.obj
 0001:000159d0       ??$_Destroy_range1@V?$allocator@PEAVrange_t@xlslib_core@@@std@@PEAPEAVrange_t@xlslib_core@@@std@@YAXPEAPEAVrange_t@xlslib_core@@0AEAU?$_Wrap_alloc@V?$allocator@PEAVrange_t@xlslib_core@@@std@@@0@U?$integral_constant@_N$00@0@@Z 00000001800169d0 f i sheetrec.obj
 0001:000159d0       ?_Orphan_all@?$_Vector_alloc@U?$_Vec_base_types@PEAVrange@xlslib_core@@V?$allocator@PEAVrange@xlslib_core@@@std@@@std@@@std@@QEAAXXZ 00000001800169d0 f i sheetrec.obj
 0001:000159d0       ??$_Destroy_range@V?$allocator@PEAUstyle_t@xlslib_core@@@std@@PEAPEAUstyle_t@xlslib_core@@@std@@YAXPEAPEAUstyle_t@xlslib_core@@0AEAU?$_Wrap_alloc@V?$allocator@PEAUstyle_t@xlslib_core@@@std@@@0@@Z 00000001800169d0 f i globalrec.obj
 0001:000159d0       ??1_Bxty@?$_String_val@U?$_Simple_types@_W@std@@@std@@QEAA@XZ 00000001800169d0 f i cbridge.obj
 0001:000159d0       ??$_Destroy_range@V?$allocator@PEAVworksheet@xlslib_core@@@std@@PEAPEAVworksheet@xlslib_core@@@std@@YAXPEAPEAVworksheet@xlslib_core@@0AEAU?$_Wrap_alloc@V?$allocator@PEAVworksheet@xlslib_core@@@std@@@0@@Z 00000001800169d0 f i workbook.obj
 0001:000159d0       ?_Destroy@?$vector@PEAVxf_t@xlslib_core@@V?$allocator@PEAVxf_t@xlslib_core@@@std@@@std@@IEAAXPEAPEAVxf_t@xlslib_core@@0@Z 00000001800169d0 f i globalrec.obj
 0001:000159d0       ??$_Destroy_range@V?$allocator@PEAUHyperLink@xlslib_core@@@std@@PEAPEAUHyperLink@xlslib_core@@@std@@YAXPEAPEAUHyperLink@xlslib_core@@0AEAU?$_Wrap_alloc@V?$allocator@PEAUHyperLink@xlslib_core@@@std@@@0@@Z 00000001800169d0 f i sheetrec.obj
 0001:000159d0       ?_Orphan_range@?$vector@PEAVformat_t@xlslib_core@@V?$allocator@PEAVformat_t@xlslib_core@@@std@@@std@@IEBAXPEAPEAVformat_t@xlslib_core@@0@Z 00000001800169d0 f i globalrec.obj
 0001:000159d0       ?_Orphan_range@?$vector@PEAVCUnit@xlslib_core@@V?$allocator@PEAVCUnit@xlslib_core@@@std@@@std@@IEBAXPEAPEAVCUnit@xlslib_core@@0@Z 00000001800169d0 f i datast.obj
 0001:000159d0       ?_Destroy@?$vector@PEAVrange_t@xlslib_core@@V?$allocator@PEAVrange_t@xlslib_core@@@std@@@std@@IEAAXPEAPEAVrange_t@xlslib_core@@0@Z 00000001800169d0 f i sheetrec.obj
 0001:000159d0       ??1?$_String_alloc@U?$_String_base_types@_WV?$allocator@_W@std@@@std@@@std@@QEAA@XZ 00000001800169d0 f i cbridge.obj
 0001:000159d0       ??$__vcrt_va_start_verify_argument_type@PEAU__crt_locale_pointers@@@@YAXXZ 00000001800169d0 f i legacy_stdio_definitions:legacy_stdio_definitions.obj
 0001:000159d0       ?_Destroy@?$vector@PEAVboundsheet_t@xlslib_core@@V?$allocator@PEAVboundsheet_t@xlslib_core@@@std@@@std@@IEAAXPEAPEAVboundsheet_t@xlslib_core@@0@Z 00000001800169d0 f i globalrec.obj
 0001:000159d0       ??$destroy@PEAU?$_List_node@PEAV?$basic_string@DU?$char_traits@D@std@@V?$allocator@D@2@@std@@PEAX@std@@@?$_Wrap_alloc@V?$allocator@U?$_List_node@PEAV?$basic_string@DU?$char_traits@D@std@@V?$allocator@D@2@@std@@PEAX@std@@@std@@@std@@QEAAXPEAPEAU?$_List_node@PEAV?$basic_string@DU?$char_traits@D@std@@V?$allocator@D@2@@std@@PEAX@1@@Z 00000001800169d0 f i olefs.obj
 0001:000159d0       ?_Orphan_range@?$vector@V?$basic_string@DU?$char_traits@D@std@@V?$allocator@D@2@@std@@V?$allocator@V?$basic_string@DU?$char_traits@D@std@@V?$allocator@D@2@@std@@@2@@std@@IEBAXPEAV?$basic_string@DU?$char_traits@D@std@@V?$allocator@D@2@@2@0@Z 00000001800169d0 f i cbridge.obj
 0001:000159d0       ?_Orphan_all@?$_Vector_alloc@U?$_Vec_base_types@PEAVrange_t@xlslib_core@@V?$allocator@PEAVrange_t@xlslib_core@@@std@@@std@@@std@@QEAAXXZ 00000001800169d0 f i sheetrec.obj
 0001:000159d0       ?_Destroy_if_not_nil@?$_Tree@V?$_Tset_traits@PEAVrowheight_t@xlslib_core@@Vrowheightsort@2@V?$allocator@PEAVrowheight_t@xlslib_core@@@std@@$0A@@std@@@std@@IEAAXU_Nil@2@@Z 00000001800169d0 f i sheetrec.obj
 0001:000159d0       ?_Destroy@?$vector@PEBVlabel_t@xlslib_core@@V?$allocator@PEBVlabel_t@xlslib_core@@@std@@@std@@IEAAXPEAPEBVlabel_t@xlslib_core@@0@Z 00000001800169d0 f i globalrec.obj
 0001:000159d0       ?_Destroy@?$vector@PEAUDataValidation@xlslib_core@@V?$allocator@PEAUDataValidation@xlslib_core@@@std@@@std@@IEAAXPEAPEAUDataValidation@xlslib_core@@0@Z 00000001800169d0 f i sheetrec.obj
 0001:000159d0       ?_Destroy@?$vector@PEAVfont_t@xlslib_core@@V?$allocator@PEAVfont_t@xlslib_core@@@std@@@std@@IEAAXPEAPEAVfont_t@xlslib_core@@0@Z 00000001800169d0 f i globalrec.obj
 0001:000159d0       ??$_Destroy_range@V?$allocator@PEAUDataValidation@xlslib_core@@@std@@PEAPEAUDataValidation@xlslib_core@@@std@@YAXPEAPEAUDataValidation@xlslib_core@@0AEAU?$_Wrap_alloc@V?$allocator@PEAUDataValidation@xlslib_core@@@std@@@0@@Z 00000001800169d0 f i sheetrec.obj
 0001:000159d0       ?_Compat@?$_String_const_iterator@V?$_String_val@U?$_Simple_types@_S@std@@@std@@@std@@QEBAXAEBV12@@Z 00000001800169d0 f i globalrec.obj
 0001:000159d0       ?_Orphan_all@?$_Vector_alloc@U?$_Vec_base_types@PEAUDataValidation@xlslib_core@@V?$allocator@PEAUDataValidation@xlslib_core@@@std@@@std@@@std@@QEAAXXZ 00000001800169d0 f i sheetrec.obj
 0001:000159d0       ?_Orphan_all@?$_Vector_alloc@U?$_Vec_base_types@V?$basic_string@DU?$char_traits@D@std@@V?$allocator@D@2@@std@@V?$allocator@V?$basic_string@DU?$char_traits@D@std@@V?$allocator@D@2@@std@@@2@@std@@@std@@QEAAXXZ 00000001800169d0 f i cbridge.obj
 0001:000159d0       ?_Orphan_all@?$_Vector_alloc@U?$_Vec_base_types@_KV?$allocator@_K@std@@@std@@@std@@QEAAXXZ 00000001800169d0 f i sheetrec.obj
 0001:000159d0       ??$__vcrt_va_start_verify_argument_type@QEB_W@@YAXXZ 00000001800169d0 f i legacy_stdio_definitions:legacy_stdio_definitions.obj
 0001:000159d0       ??$destroy@PEAVHPSFitem@xlslib_core@@@?$allocator@U?$_Tree_node@PEAVHPSFitem@xlslib_core@@PEAX@std@@@std@@QEAAXPEAPEAVHPSFitem@xlslib_core@@@Z 00000001800169d0 f i HPSF.obj
 0001:000159d0       ??$_Destroy_range@V?$allocator@PEAVCUnit@xlslib_core@@@std@@PEAPEAVCUnit@xlslib_core@@@std@@YAXPEAPEAVCUnit@xlslib_core@@0AEAU?$_Wrap_alloc@V?$allocator@PEAVCUnit@xlslib_core@@@std@@@0@@Z 00000001800169d0 f i datast.obj
 0001:000159d0       ?_Compat@?$_Vector_const_iterator@V?$_Vector_val@U?$_Simple_types@_K@std@@@std@@@std@@QEBAXAEBV12@@Z 00000001800169d0 f i sheetrec.obj
 0001:000159d0       ?_Orphan_range@?$vector@PEAVrange_t@xlslib_core@@V?$allocator@PEAVrange_t@xlslib_core@@@std@@@std@@IEBAXPEAPEAVrange_t@xlslib_core@@0@Z 00000001800169d0 f i sheetrec.obj
 0001:000159d0       ??1_Bxty@?$_String_val@U?$_Simple_types@_S@std@@@std@@QEAA@XZ 00000001800169d0 f i datast.obj
 0001:000159d0       ?_Destroy@?$vector@PEAVformula_t@xlslib_core@@V?$allocator@PEAVformula_t@xlslib_core@@@std@@@std@@IEAAXPEAPEAVformula_t@xlslib_core@@0@Z 00000001800169d0 f i sheetrec.obj
 0001:000159d0       ??1?$_Compressed_pair@U?$_Wrap_alloc@V?$allocator@_S@std@@@std@@V?$_String_val@U?$_Simple_types@_S@std@@@2@$00@std@@QEAA@XZ 00000001800169d0 f i datast.obj
 0001:000159d0       ??$destroy@PEAU?$_Tree_node@PEAVrowheight_t@xlslib_core@@PEAX@std@@@?$_Wrap_alloc@V?$allocator@U?$_Tree_node@PEAVrowheight_t@xlslib_core@@PEAX@std@@@std@@@std@@QEAAXPEAPEAU?$_Tree_node@PEAVrowheight_t@xlslib_core@@PEAX@1@@Z 00000001800169d0 f i sheetrec.obj
 0001:000159d0       ?_Orphan_all@?$_Vector_alloc@U?$_Vec_base_types@PEAVformat_t@xlslib_core@@V?$allocator@PEAVformat_t@xlslib_core@@@std@@@std@@@std@@QEAAXXZ 00000001800169d0 f i globalrec.obj
 0001:000159d0       ?_Orphan_range@?$vector@PEAVboundsheet_t@xlslib_core@@V?$allocator@PEAVboundsheet_t@xlslib_core@@@std@@@std@@IEBAXPEAPEAVboundsheet_t@xlslib_core@@0@Z 00000001800169d0 f i globalrec.obj
 0001:000159d0       ?_Compat@?$_Vector_const_iterator@V?$_Vector_val@U?$_Simple_types@PEAVboundsheet_t@xlslib_core@@@std@@@std@@@std@@QEBAXAEBV12@@Z 00000001800169d0 f i datast.obj
 0001:000159d0       ?_Compat@?$_Vector_const_iterator@V?$_Vector_val@U?$_Simple_types@PEAVformula_t@xlslib_core@@@std@@@std@@@std@@QEBAXAEBV12@@Z 00000001800169d0 f i sheetrec.obj
 0001:000159d0       ??$destroy@PEAU?$_Tree_node@PEAVcell_t@xlslib_core@@PEAX@std@@@?$_Wrap_alloc@V?$allocator@U?$_Tree_node@PEAVcell_t@xlslib_core@@PEAX@std@@@std@@@std@@QEAAXPEAPEAU?$_Tree_node@PEAVcell_t@xlslib_core@@PEAX@1@@Z 00000001800169d0 f i sheetrec.obj
 0001:000159d0       ??$_Destroy_range1@V?$allocator@PEAVCUnit@xlslib_core@@@std@@PEAPEAVCUnit@xlslib_core@@@std@@YAXPEAPEAVCUnit@xlslib_core@@0AEAU?$_Wrap_alloc@V?$allocator@PEAVCUnit@xlslib_core@@@std@@@0@U?$integral_constant@_N$00@0@@Z 00000001800169d0 f i datast.obj
 0001:000159d0       ??$destroy@PEA_W@?$allocator_traits@V?$allocator@_W@std@@@std@@SAXAEAV?$allocator@_W@1@PEAPEA_W@Z 00000001800169d0 f i cbridge.obj
 0001:000159d0       ?_Orphan_range@?$vector@_KV?$allocator@_K@std@@@std@@IEBAXPEA_K0@Z 00000001800169d0 f i sheetrec.obj
 0001:000159d0       ??$destroy@PEAU?$_Tree_node@PEAVrowheight_t@xlslib_core@@PEAX@std@@@?$allocator@U?$_Tree_node@PEAVrowheight_t@xlslib_core@@PEAX@std@@@std@@QEAAXPEAPEAU?$_Tree_node@PEAVrowheight_t@xlslib_core@@PEAX@1@@Z 00000001800169d0 f i sheetrec.obj
 0001:000159d0       ?_Compat@?$_Vector_const_iterator@V?$_Vector_val@U?$_Simple_types@PEAUstyle_t@xlslib_core@@@std@@@std@@@std@@QEBAXAEBV12@@Z 00000001800169d0 f i globalrec.obj
 0001:000159d0       ?_Compat@?$_Vector_const_iterator@V?$_Vector_val@U?$_Simple_types@PEAVxf_t@xlslib_core@@@std@@@std@@@std@@QEBAXAEBV12@@Z 00000001800169d0 f i globalrec.obj
 0001:000159d0       ??$_Pocca@U?$_Wrap_alloc@V?$allocator@_S@std@@@std@@@std@@YAXAEAU?$_Wrap_alloc@V?$allocator@_S@std@@@0@AEBU10@@Z 00000001800169d0 f i formula_estimate.obj
 0001:000159d0       ?_Orphan_range@?$vector@PEAVxf_t@xlslib_core@@V?$allocator@PEAVxf_t@xlslib_core@@@std@@@std@@IEBAXPEAPEAVxf_t@xlslib_core@@0@Z 00000001800169d0 f i globalrec.obj
 0001:000159d0       ??$_Destroy_range1@V?$allocator@PEAVCOleProp@xlslib_core@@@std@@PEAPEAVCOleProp@xlslib_core@@@std@@YAXPEAPEAVCOleProp@xlslib_core@@0AEAU?$_Wrap_alloc@V?$allocator@PEAVCOleProp@xlslib_core@@@std@@@0@U?$integral_constant@_N$00@0@@Z 00000001800169d0 f i oledoc.obj
 0001:000159d0       ?_Destroy@?$vector@PEAUstyle_t@xlslib_core@@V?$allocator@PEAUstyle_t@xlslib_core@@@std@@@std@@IEAAXPEAPEAUstyle_t@xlslib_core@@0@Z 00000001800169d0 f i globalrec.obj
 0001:000159d0       ?_Orphan_all@?$_Vector_alloc@U?$_Vec_base_types@V?$basic_string@_WU?$char_traits@_W@std@@V?$allocator@_W@2@@std@@V?$allocator@V?$basic_string@_WU?$char_traits@_W@std@@V?$allocator@_W@2@@std@@@2@@std@@@std@@QEAAXXZ 00000001800169d0 f i cbridge.obj
 0001:000159d0       ??$_Destroy_range@V?$allocator@Urowblocksize_t@xlslib_core@@@std@@PEAUrowblocksize_t@xlslib_core@@@std@@YAXPEAUrowblocksize_t@xlslib_core@@0AEAU?$_Wrap_alloc@V?$allocator@Urowblocksize_t@xlslib_core@@@std@@@0@@Z 00000001800169d0 f i sheetrec.obj
 0001:000159d0       ?_Compat@?$_Vector_const_iterator@V?$_Vector_val@U?$_Simple_types@PEAUDataValidation@xlslib_core@@@std@@@std@@@std@@QEBAXAEBV12@@Z 00000001800169d0 f i sheetrec.obj
 0001:000159d0       ??$destroy@PEAU?$_Tree_node@PEAVHPSFitem@xlslib_core@@PEAX@std@@@?$allocator@U?$_Tree_node@PEAVHPSFitem@xlslib_core@@PEAX@std@@@std@@QEAAXPEAPEAU?$_Tree_node@PEAVHPSFitem@xlslib_core@@PEAX@1@@Z 00000001800169d0 f i HPSF.obj
 0001:000159d0       ?_Copy_alloc@?$_String_alloc@U?$_String_base_types@DV?$allocator@D@std@@@std@@@std@@QEAAXAEBU?$_Wrap_alloc@V?$allocator@D@std@@@2@@Z 00000001800169d0 f i font.obj
 0001:000159d0       ?_Orphan_all@?$_Vector_alloc@U?$_Vec_base_types@PEAVfont_t@xlslib_core@@V?$allocator@PEAVfont_t@xlslib_core@@@std@@@std@@@std@@QEAAXXZ 00000001800169d0 f i globalrec.obj
 0001:000159d0       ??$_Destroy_range1@V?$allocator@N@std@@PEAN@std@@YAXPEAN0AEAU?$_Wrap_alloc@V?$allocator@N@std@@@0@U?$integral_constant@_N$00@0@@Z 00000001800169d0 f i cbridge.obj
 0001:000159d0       ??$_Pocca@U?$_Wrap_alloc@V?$allocator@_S@std@@@std@@@std@@YAXAEAU?$_Wrap_alloc@V?$allocator@_S@std@@@0@AEBU10@U?$integral_constant@_N$0A@@0@@Z 00000001800169d0 f i formula_estimate.obj
 0001:000159d0       ?_Orphan_range@?$vector@PEAUHyperLink@xlslib_core@@V?$allocator@PEAUHyperLink@xlslib_core@@@std@@@std@@IEBAXPEAPEAUHyperLink@xlslib_core@@0@Z 00000001800169d0 f i sheetrec.obj
 0001:000159d0       ??$destroy@PEAU?$_Tree_node@PEAUcolinfo_t@xlslib_core@@PEAX@std@@@?$_Wrap_alloc@V?$allocator@U?$_Tree_node@PEAUcolinfo_t@xlslib_core@@PEAX@std@@@std@@@std@@QEAAXPEAPEAU?$_Tree_node@PEAUcolinfo_t@xlslib_core@@PEAX@1@@Z 00000001800169d0 f i sheetrec.obj
 0001:000159d0       ?_Destroy_if_not_nil@?$_Tree@V?$_Tset_traits@U?$pair@PEAVxf_t@xlslib_core@@UborderedXft@2@@std@@VxfSorter@xlslib_core@@V?$allocator@U?$pair@PEAVxf_t@xlslib_core@@UborderedXft@2@@std@@@2@$0A@@std@@@std@@IEAAXU_Nil@2@@Z 00000001800169d0 f i range.obj
 0001:000159d0       ??$_Destroy_range@V?$allocator@PEAVboundsheet_t@xlslib_core@@@std@@PEAPEAVboundsheet_t@xlslib_core@@@std@@YAXPEAPEAVboundsheet_t@xlslib_core@@0AEAU?$_Wrap_alloc@V?$allocator@PEAVboundsheet_t@xlslib_core@@@std@@@0@@Z 00000001800169d0 f i globalrec.obj
 0001:000159d0       ?_Destroy@?$vector@_KV?$allocator@_K@std@@@std@@IEAAXPEA_K0@Z 00000001800169d0 f i sheetrec.obj
 0001:000159d0       ??1?$_String_alloc@U?$_String_base_types@DV?$allocator@D@std@@@std@@@std@@QEAA@XZ 00000001800169d0 f i assert_assist.obj
 0001:000159d0       ?_Destroy@?$vector@PEAVworksheet@xlslib_core@@V?$allocator@PEAVworksheet@xlslib_core@@@std@@@std@@IEAAXPEAPEAVworksheet@xlslib_core@@0@Z 00000001800169d0 f i workbook.obj
 0001:000159d0       ?_Orphan_all@?$_Vector_alloc@U?$_Vec_base_types@PEAVxf_t@xlslib_core@@V?$allocator@PEAVxf_t@xlslib_core@@@std@@@std@@@std@@QEAAXXZ 00000001800169d0 f i globalrec.obj
 0001:000159d0       ??1_Bxty@?$_String_val@U?$_Simple_types@D@std@@@std@@QEAA@XZ 00000001800169d0 f i assert_assist.obj
 0001:000159d0       ?_Destroy@?$vector@PEAVformat_t@xlslib_core@@V?$allocator@PEAVformat_t@xlslib_core@@@std@@@std@@IEAAXPEAPEAVformat_t@xlslib_core@@0@Z 00000001800169d0 f i globalrec.obj
 0001:000159d0       ??$destroy@PEAU?$_Tree_node@PEAUcolinfo_t@xlslib_core@@PEAX@std@@@?$allocator@U?$_Tree_node@PEAUcolinfo_t@xlslib_core@@PEAX@std@@@std@@QEAAXPEAPEAU?$_Tree_node@PEAUcolinfo_t@xlslib_core@@PEAX@1@@Z 00000001800169d0 f i sheetrec.obj
 0001:000159d0       ?_Destroy@?$vector@PEAVCUnit@xlslib_core@@V?$allocator@PEAVCUnit@xlslib_core@@@std@@@std@@IEAAXPEAPEAVCUnit@xlslib_core@@0@Z 00000001800169d0 f i datast.obj
 0001:000159d0       ??$destroy@PEAU?$_Tree_node@PEAVHPSFitem@xlslib_core@@PEAX@std@@@?$allocator_traits@V?$allocator@U?$_Tree_node@PEAVHPSFitem@xlslib_core@@PEAX@std@@@std@@@std@@SAXAEAV?$allocator@U?$_Tree_node@PEAVHPSFitem@xlslib_core@@PEAX@std@@@1@PEAPEAU?$_Tree_node@PEAVHPSFitem@xlslib_core@@PEAX@1@@Z 00000001800169d0 f i HPSF.obj
 0001:000159d0       ??$destroy@PEA_W@?$allocator@_W@std@@QEAAXPEAPEA_W@Z 00000001800169d0 f i cbridge.obj
 0001:000159d0       ??$destroy@U?$pair@PEAVxf_t@xlslib_core@@UborderedXft@2@@std@@@?$allocator@U?$_Tree_node@U?$pair@PEAVxf_t@xlslib_core@@UborderedXft@2@@std@@PEAX@std@@@std@@QEAAXPEAU?$pair@PEAVxf_t@xlslib_core@@UborderedXft@2@@1@@Z 00000001800169d0 f i range.obj
 0001:000159d0       ??$destroy@PEAVHPSFitem@xlslib_core@@@?$_Wrap_alloc@V?$allocator@U?$_Tree_node@PEAVHPSFitem@xlslib_core@@PEAX@std@@@std@@@std@@QEAAXPEAPEAVHPSFitem@xlslib_core@@@Z 00000001800169d0 f i HPSF.obj
 0001:000159d0       ?_Compat@?$_Vector_const_iterator@V?$_Vector_val@U?$_Simple_types@PEAUHyperLink@xlslib_core@@@std@@@std@@@std@@QEBAXAEBV12@@Z 00000001800169d0 f i sheetrec.obj
 0001:000159d0       ?_Orphan_all@?$_Vector_alloc@U?$_Vec_base_types@PEAVCOleProp@xlslib_core@@V?$allocator@PEAVCOleProp@xlslib_core@@@std@@@std@@@std@@QEAAXXZ 00000001800169d0 f i oledoc.obj
 0001:000159d0       ??$_Destroy_range1@V?$allocator@PEAUHyperLink@xlslib_core@@@std@@PEAPEAUHyperLink@xlslib_core@@@std@@YAXPEAPEAUHyperLink@xlslib_core@@0AEAU?$_Wrap_alloc@V?$allocator@PEAUHyperLink@xlslib_core@@@std@@@0@U?$integral_constant@_N$00@0@@Z 00000001800169d0 f i sheetrec.obj
 0001:000159d0       ??$_Destroy_range@V?$allocator@PEAVformat_t@xlslib_core@@@std@@PEAPEAVformat_t@xlslib_core@@@std@@YAXPEAPEAVformat_t@xlslib_core@@0AEAU?$_Wrap_alloc@V?$allocator@PEAVformat_t@xlslib_core@@@std@@@0@@Z 00000001800169d0 f i globalrec.obj
 0001:000159d0       ?_Destroy_if_not_nil@?$_Tree@V?$_Tset_traits@PEAVcell_t@xlslib_core@@Vinsertsort@2@V?$allocator@PEAVcell_t@xlslib_core@@@std@@$0A@@std@@@std@@IEAAXU_Nil@2@@Z 00000001800169d0 f i sheetrec.obj
 0001:000159d0       ?_Orphan_all@?$_Vector_alloc@U?$_Vec_base_types@NV?$allocator@N@std@@@std@@@std@@QEAAXXZ 00000001800169d0 f i cbridge.obj
 0001:000159d0       ??1xf_init_t@xlslib_core@@QEAA@XZ 00000001800169d0 f i extformat.obj
 0001:000159d0       ??$_Destroy_range1@V?$allocator@PEBVlabel_t@xlslib_core@@@std@@PEAPEBVlabel_t@xlslib_core@@@std@@YAXPEAPEBVlabel_t@xlslib_core@@0AEAU?$_Wrap_alloc@V?$allocator@PEBVlabel_t@xlslib_core@@@std@@@0@U?$integral_constant@_N$00@0@@Z 00000001800169d0 f i globalrec.obj
 0001:000159d0       ?_Orphan_range@?$vector@PEAVrange@xlslib_core@@V?$allocator@PEAVrange@xlslib_core@@@std@@@std@@IEBAXPEAPEAVrange@xlslib_core@@0@Z 00000001800169d0 f i sheetrec.obj
 0001:000159d0       ??$_Destroy_range1@V?$allocator@_K@std@@PEA_K@std@@YAXPEA_K0AEAU?$_Wrap_alloc@V?$allocator@_K@std@@@0@U?$integral_constant@_N$00@0@@Z 00000001800169d0 f i sheetrec.obj
 0001:000159d0       ??$destroy@PEAD@?$allocator@D@std@@QEAAXPEAPEAD@Z 00000001800169d0 f i assert_assist.obj
 0001:000159d0       ??$destroy@PEA_S@?$allocator_traits@V?$allocator@_S@std@@@std@@SAXAEAV?$allocator@_S@1@PEAPEA_S@Z 00000001800169d0 f i datast.obj
 0001:000159d0       ?_Orphan_range@?$vector@PEAVfont_t@xlslib_core@@V?$allocator@PEAVfont_t@xlslib_core@@@std@@@std@@IEBAXPEAPEAVfont_t@xlslib_core@@0@Z 00000001800169d0 f i globalrec.obj
 0001:000159d0       ??$destroy@PEAU?$_Tree_node@PEAUcolinfo_t@xlslib_core@@PEAX@std@@@?$allocator_traits@V?$allocator@U?$_Tree_node@PEAUcolinfo_t@xlslib_core@@PEAX@std@@@std@@@std@@SAXAEAV?$allocator@U?$_Tree_node@PEAUcolinfo_t@xlslib_core@@PEAX@std@@@1@PEAPEAU?$_Tree_node@PEAUcolinfo_t@xlslib_core@@PEAX@1@@Z 00000001800169d0 f i sheetrec.obj
 0001:000159d0       ??$destroy@PEAVrowheight_t@xlslib_core@@@?$_Wrap_alloc@V?$allocator@U?$_Tree_node@PEAVrowheight_t@xlslib_core@@PEAX@std@@@std@@@std@@QEAAXPEAPEAVrowheight_t@xlslib_core@@@Z 00000001800169d0 f i sheetrec.obj
 0001:000159d0       ??$_Destroy_range@V?$allocator@PEAVrange@xlslib_core@@@std@@PEAPEAVrange@xlslib_core@@@std@@YAXPEAPEAVrange@xlslib_core@@0AEAU?$_Wrap_alloc@V?$allocator@PEAVrange@xlslib_core@@@std@@@0@@Z 00000001800169d0 f i sheetrec.obj
 0001:000159d0       ?_Compat@?$_Vector_const_iterator@V?$_Vector_val@U?$_Simple_types@PEAVfont_t@xlslib_core@@@std@@@std@@@std@@QEBAXAEBV12@@Z 00000001800169d0 f i globalrec.obj
 0001:000159d0       ??$destroy@PEAV?$basic_string@DU?$char_traits@D@std@@V?$allocator@D@2@@std@@@?$_Wrap_alloc@V?$allocator@U?$_List_node@PEAV?$basic_string@DU?$char_traits@D@std@@V?$allocator@D@2@@std@@PEAX@std@@@std@@@std@@QEAAXPEAPEAV?$basic_string@DU?$char_traits@D@std@@V?$allocator@D@2@@1@@Z 00000001800169d0 f i olefs.obj
 0001:000159d0       ??$destroy@PEAVrowheight_t@xlslib_core@@@?$allocator_traits@V?$allocator@U?$_Tree_node@PEAVrowheight_t@xlslib_core@@PEAX@std@@@std@@@std@@SAXAEAV?$allocator@U?$_Tree_node@PEAVrowheight_t@xlslib_core@@PEAX@std@@@1@PEAPEAVrowheight_t@xlslib_core@@@Z 00000001800169d0 f i sheetrec.obj
 0001:000159d0       ??$_Pocca@U?$_Wrap_alloc@V?$allocator@D@std@@@std@@@std@@YAXAEAU?$_Wrap_alloc@V?$allocator@D@std@@@0@AEBU10@U?$integral_constant@_N$0A@@0@@Z 00000001800169d0 f i font.obj
 0001:000159d0       ??$destroy@PEAU?$_Tree_node@U?$pair@PEAVxf_t@xlslib_core@@UborderedXft@2@@std@@PEAX@std@@@?$_Wrap_alloc@V?$allocator@U?$_Tree_node@U?$pair@PEAVxf_t@xlslib_core@@UborderedXft@2@@std@@PEAX@std@@@std@@@std@@QEAAXPEAPEAU?$_Tree_node@U?$pair@PEAVxf_t@xlslib_core@@UborderedXft@2@@std@@PEAX@1@@Z 00000001800169d0 f i range.obj
 0001:000159d0       ??1?$_String_alloc@U?$_String_base_types@_SV?$allocator@_S@std@@@std@@@std@@QEAA@XZ 00000001800169d0 f i datast.obj
 0001:000159d0       ?_Orphan_range@?$vector@PEAVformula_t@xlslib_core@@V?$allocator@PEAVformula_t@xlslib_core@@@std@@@std@@IEBAXPEAPEAVformula_t@xlslib_core@@0@Z 00000001800169d0 f i sheetrec.obj
 0001:000159d0       ?_Orphan_all@?$_Vector_alloc@U?$_Vec_base_types@PEAUstyle_t@xlslib_core@@V?$allocator@PEAUstyle_t@xlslib_core@@@std@@@std@@@std@@QEAAXXZ 00000001800169d0 f i globalrec.obj
 0001:000159d0       ??$_Destroy_range@V?$allocator@_K@std@@PEA_K@std@@YAXPEA_K0AEAU?$_Wrap_alloc@V?$allocator@_K@std@@@0@@Z 00000001800169d0 f i sheetrec.obj
 0001:000159d0       ?_Move_alloc@?$_String_alloc@U?$_String_base_types@DV?$allocator@D@std@@@std@@@std@@QEAAXAEAU?$_Wrap_alloc@V?$allocator@D@std@@@2@@Z 00000001800169d0 f i olefs.obj
 0001:000159d0       ??$destroy@PEAVcell_t@xlslib_core@@@?$allocator@U?$_Tree_node@PEAVcell_t@xlslib_core@@PEAX@std@@@std@@QEAAXPEAPEAVcell_t@xlslib_core@@@Z 00000001800169d0 f i sheetrec.obj
 0001:000159d0       ?_Orphan_range@?$vector@V?$basic_string@_WU?$char_traits@_W@std@@V?$allocator@_W@2@@std@@V?$allocator@V?$basic_string@_WU?$char_traits@_W@std@@V?$allocator@_W@2@@std@@@2@@std@@IEBAXPEAV?$basic_string@_WU?$char_traits@_W@std@@V?$allocator@_W@2@@2@0@Z 00000001800169d0 f i cbridge.obj
 0001:000159d0       ??$destroy@PEAD@?$_Wrap_alloc@V?$allocator@D@std@@@std@@QEAAXPEAPEAD@Z 00000001800169d0 f i assert_assist.obj
 0001:000159d0       ??$destroy@PEAU?$_Tree_node@PEAVcell_t@xlslib_core@@PEAX@std@@@?$allocator_traits@V?$allocator@U?$_Tree_node@PEAVcell_t@xlslib_core@@PEAX@std@@@std@@@std@@SAXAEAV?$allocator@U?$_Tree_node@PEAVcell_t@xlslib_core@@PEAX@std@@@1@PEAPEAU?$_Tree_node@PEAVcell_t@xlslib_core@@PEAX@1@@Z 00000001800169d0 f i sheetrec.obj
 0001:000159d0       ?_Orphan_range@?$vector@Urowblocksize_t@xlslib_core@@V?$allocator@Urowblocksize_t@xlslib_core@@@std@@@std@@IEBAXPEAUrowblocksize_t@xlslib_core@@0@Z 00000001800169d0 f i sheetrec.obj
 0001:000159d0       ??$_Destroy_range@V?$allocator@PEAVCOleProp@xlslib_core@@@std@@PEAPEAVCOleProp@xlslib_core@@@std@@YAXPEAPEAVCOleProp@xlslib_core@@0AEAU?$_Wrap_alloc@V?$allocator@PEAVCOleProp@xlslib_core@@@std@@@0@@Z 00000001800169d0 f i oledoc.obj
 0001:000159d0       ??$destroy@PEAU?$_List_node@PEAV?$basic_string@DU?$char_traits@D@std@@V?$allocator@D@2@@std@@PEAX@std@@@?$allocator_traits@V?$allocator@U?$_List_node@PEAV?$basic_string@DU?$char_traits@D@std@@V?$allocator@D@2@@std@@PEAX@std@@@std@@@std@@SAXAEAV?$allocator@U?$_List_node@PEAV?$basic_string@DU?$char_traits@D@std@@V?$allocator@D@2@@std@@PEAX@std@@@1@PEAPEAU?$_List_node@PEAV?$basic_string@DU?$char_traits@D@std@@V?$allocator@D@2@@std@@PEAX@1@@Z 00000001800169d0 f i olefs.obj
 0001:000159d0       ?_Orphan_all@?$_Vector_alloc@U?$_Vec_base_types@Urowblocksize_t@xlslib_core@@V?$allocator@Urowblocksize_t@xlslib_core@@@std@@@std@@@std@@QEAAXXZ 00000001800169d0 f i sheetrec.obj
 0001:000159d0       ??1?$_String_val@U?$_Simple_types@_S@std@@@std@@QEAA@XZ 00000001800169d0 f i datast.obj
 0001:000159d0       ?_Orphan_range@?$vector@NV?$allocator@N@std@@@std@@IEBAXPEAN0@Z 00000001800169d0 f i cbridge.obj
 0001:000159d0       ?_Destroy_if_not_nil@?$_Tree@V?$_Tset_traits@PEAVHPSFitem@xlslib_core@@Vinsertsort2@2@V?$allocator@PEAVHPSFitem@xlslib_core@@@std@@$0A@@std@@@std@@IEAAXU_Nil@2@@Z 00000001800169d0 f i HPSF.obj
 0001:000159d0       ?_Orphan_all@?$_Vector_alloc@U?$_Vec_base_types@VCUnitStore@xlslib_core@@V?$allocator@VCUnitStore@xlslib_core@@@std@@@std@@@std@@QEAAXXZ 00000001800169d0 f i datast.obj
 0001:000159d0       ??$destroy@PEA_S@?$_Wrap_alloc@V?$allocator@_S@std@@@std@@QEAAXPEAPEA_S@Z 00000001800169d0 f i datast.obj
 0001:000159d0       ?_Orphan_range@?$vector@PEAVCOleProp@xlslib_core@@V?$allocator@PEAVCOleProp@xlslib_core@@@std@@@std@@IEBAXPEAPEAVCOleProp@xlslib_core@@0@Z 00000001800169d0 f i olefs.obj
 0001:000159d0       ??$destroy@PEAU?$_Tree_node@PEAVHPSFitem@xlslib_core@@PEAX@std@@@?$_Wrap_alloc@V?$allocator@U?$_Tree_node@PEAVHPSFitem@xlslib_core@@PEAX@std@@@std@@@std@@QEAAXPEAPEAU?$_Tree_node@PEAVHPSFitem@xlslib_core@@PEAX@1@@Z 00000001800169d0 f i HPSF.obj
 0001:000159d0       ??$_Pocca@U?$_Wrap_alloc@V?$allocator@D@std@@@std@@@std@@YAXAEAU?$_Wrap_alloc@V?$allocator@D@std@@@0@AEBU10@@Z 00000001800169d0 f i font.obj
 0001:000159d0       ??$_Destroy_range1@V?$allocator@PEAVworksheet@xlslib_core@@@std@@PEAPEAVworksheet@xlslib_core@@@std@@YAXPEAPEAVworksheet@xlslib_core@@0AEAU?$_Wrap_alloc@V?$allocator@PEAVworksheet@xlslib_core@@@std@@@0@U?$integral_constant@_N$00@0@@Z 00000001800169d0 f i workbook.obj
 0001:000159d0       ??3@YAXPEAX0@Z             00000001800169d0 f i cbridge.obj
 0001:000159d0       ??$destroy@PEAVcell_t@xlslib_core@@@?$allocator_traits@V?$allocator@U?$_Tree_node@PEAVcell_t@xlslib_core@@PEAX@std@@@std@@@std@@SAXAEAV?$allocator@U?$_Tree_node@PEAVcell_t@xlslib_core@@PEAX@std@@@1@PEAPEAVcell_t@xlslib_core@@@Z 00000001800169d0 f i sheetrec.obj
 0001:000159d0       ??$__vcrt_va_start_verify_argument_type@PEB_W@@YAXXZ 00000001800169d0 f i legacy_stdio_definitions:legacy_stdio_definitions.obj
 0001:000159d0       ??$_Destroy_range1@V?$allocator@PEAVboundsheet_t@xlslib_core@@@std@@PEAPEAVboundsheet_t@xlslib_core@@@std@@YAXPEAPEAVboundsheet_t@xlslib_core@@0AEAU?$_Wrap_alloc@V?$allocator@PEAVboundsheet_t@xlslib_core@@@std@@@0@U?$integral_constant@_N$00@0@@Z 00000001800169d0 f i globalrec.obj
 0001:000159d0       ?_Orphan_range@?$vector@VCUnitStore@xlslib_core@@V?$allocator@VCUnitStore@xlslib_core@@@std@@@std@@IEBAXPEAVCUnitStore@xlslib_core@@0@Z 00000001800169d0 f i datast.obj
 0001:000159d0       ??1?$_String_val@U?$_Simple_types@_W@std@@@std@@QEAA@XZ 00000001800169d0 f i cbridge.obj
 0001:000159d0       ?_Compat@?$_Vector_const_iterator@V?$_Vector_val@U?$_Simple_types@PEAVrange@xlslib_core@@@std@@@std@@@std@@QEBAXAEBV12@@Z 00000001800169d0 f i sheetrec.obj
 0001:000159d0       ??$destroy@PEAU?$_Tree_node@PEAVcell_t@xlslib_core@@PEAX@std@@@?$allocator@U?$_Tree_node@PEAVcell_t@xlslib_core@@PEAX@std@@@std@@QEAAXPEAPEAU?$_Tree_node@PEAVcell_t@xlslib_core@@PEAX@1@@Z 00000001800169d0 f i sheetrec.obj
 0001:000159d0       _guard_check_icall_nop     00000001800169d0 f i MSVCRT:guard_support.obj
 0001:000159d0       ?_Orphan_all@_Container_base0@std@@QEAAXXZ 00000001800169d0 f i cbridge.obj
 0001:000159d0       ?_Compat@?$_Vector_const_iterator@V?$_Vector_val@U?$_Simple_types@VCUnitStore@xlslib_core@@@std@@@std@@@std@@QEBAXAEBV12@@Z 00000001800169d0 f i datast.obj
 0001:000159d0       ??$_Destroy_range1@V?$allocator@PEAUstyle_t@xlslib_core@@@std@@PEAPEAUstyle_t@xlslib_core@@@std@@YAXPEAPEAUstyle_t@xlslib_core@@0AEAU?$_Wrap_alloc@V?$allocator@PEAUstyle_t@xlslib_core@@@std@@@0@U?$integral_constant@_N$00@0@@Z 00000001800169d0 f i globalrec.obj
 0001:000159d0       ??$destroy@U?$pair@PEAVxf_t@xlslib_core@@UborderedXft@2@@std@@@?$_Wrap_alloc@V?$allocator@U?$_Tree_node@U?$pair@PEAVxf_t@xlslib_core@@UborderedXft@2@@std@@PEAX@std@@@std@@@std@@QEAAXPEAU?$pair@PEAVxf_t@xlslib_core@@UborderedXft@2@@1@@Z 00000001800169d0 f i range.obj
 0001:000159d0       ??$destroy@PEAD@?$allocator_traits@V?$allocator@D@std@@@std@@SAXAEAV?$allocator@D@1@PEAPEAD@Z 00000001800169d0 f i assert_assist.obj
 0001:000159d0       ??$destroy@PEAU?$_List_node@PEAV?$basic_string@DU?$char_traits@D@std@@V?$allocator@D@2@@std@@PEAX@std@@@?$allocator@U?$_List_node@PEAV?$basic_string@DU?$char_traits@D@std@@V?$allocator@D@2@@std@@PEAX@std@@@std@@QEAAXPEAPEAU?$_List_node@PEAV?$basic_string@DU?$char_traits@D@std@@V?$allocator@D@2@@std@@PEAX@1@@Z 00000001800169d0 f i olefs.obj
 0001:000159d0       ?_Destroy_if_not_nil@?$_Tree@V?$_Tset_traits@PEAUcolinfo_t@xlslib_core@@Vcolinfosort@2@V?$allocator@PEAUcolinfo_t@xlslib_core@@@std@@$0A@@std@@@std@@IEAAXU_Nil@2@@Z 00000001800169d0 f i sheetrec.obj
 0001:000159d0       ?_Orphan_all@?$_Vector_alloc@U?$_Vec_base_types@PEAVformula_t@xlslib_core@@V?$allocator@PEAVformula_t@xlslib_core@@@std@@@std@@@std@@QEAAXXZ 00000001800169d0 f i sheetrec.obj
 0001:000159d0       ?_Compat@?$_Vector_const_iterator@V?$_Vector_val@U?$_Simple_types@PEBVlabel_t@xlslib_core@@@std@@@std@@@std@@QEBAXAEBV12@@Z 00000001800169d0 f i datast.obj
 0001:000159d0       ?_Orphan_range@?$vector@PEBVlabel_t@xlslib_core@@V?$allocator@PEBVlabel_t@xlslib_core@@@std@@@std@@IEBAXPEAPEBVlabel_t@xlslib_core@@0@Z 00000001800169d0 f i globalrec.obj
 0001:000159d0       ??$__vcrt_va_start_verify_argument_type@QEAU__crt_locale_pointers@@@@YAXXZ 00000001800169d0 f i legacy_stdio_definitions:legacy_stdio_definitions.obj
 0001:000159d0       ??$destroy@PEAUcolinfo_t@xlslib_core@@@?$allocator_traits@V?$allocator@U?$_Tree_node@PEAUcolinfo_t@xlslib_core@@PEAX@std@@@std@@@std@@SAXAEAV?$allocator@U?$_Tree_node@PEAUcolinfo_t@xlslib_core@@PEAX@std@@@1@PEAPEAUcolinfo_t@xlslib_core@@@Z 00000001800169d0 f i sheetrec.obj
 0001:000159d0       ??$_Destroy_range1@V?$allocator@PEAUDataValidation@xlslib_core@@@std@@PEAPEAUDataValidation@xlslib_core@@@std@@YAXPEAPEAUDataValidation@xlslib_core@@0AEAU?$_Wrap_alloc@V?$allocator@PEAUDataValidation@xlslib_core@@@std@@@0@U?$integral_constant@_N$00@0@@Z 00000001800169d0 f i sheetrec.obj
 0001:000159d0       ??$_Destroy_range1@V?$allocator@PEAVformula_t@xlslib_core@@@std@@PEAPEAVformula_t@xlslib_core@@@std@@YAXPEAPEAVformula_t@xlslib_core@@0AEAU?$_Wrap_alloc@V?$allocator@PEAVformula_t@xlslib_core@@@std@@@0@U?$integral_constant@_N$00@0@@Z 00000001800169d0 f i sheetrec.obj
 0001:000159d0       ?_Orphan_range@?$vector@PEAUstyle_t@xlslib_core@@V?$allocator@PEAUstyle_t@xlslib_core@@@std@@@std@@IEBAXPEAPEAUstyle_t@xlslib_core@@0@Z 00000001800169d0 f i globalrec.obj
 0001:000159d0       ??1?$_Compressed_pair@U?$_Wrap_alloc@V?$allocator@D@std@@@std@@V?$_String_val@U?$_Simple_types@D@std@@@2@$00@std@@QEAA@XZ 00000001800169d0 f i assert_assist.obj
 0001:000159d0       ??1?$_String_val@U?$_Simple_types@D@std@@@std@@QEAA@XZ 00000001800169d0 f i assert_assist.obj
 0001:000159d0       ??$destroy@PEAU?$_Tree_node@PEAVrowheight_t@xlslib_core@@PEAX@std@@@?$allocator_traits@V?$allocator@U?$_Tree_node@PEAVrowheight_t@xlslib_core@@PEAX@std@@@std@@@std@@SAXAEAV?$allocator@U?$_Tree_node@PEAVrowheight_t@xlslib_core@@PEAX@std@@@1@PEAPEAU?$_Tree_node@PEAVrowheight_t@xlslib_core@@PEAX@1@@Z 00000001800169d0 f i sheetrec.obj
 0001:000159d0       ??$_Pocma@U?$_Wrap_alloc@V?$allocator@D@std@@@std@@@std@@YAXAEAU?$_Wrap_alloc@V?$allocator@D@std@@@0@0U?$integral_constant@_N$00@0@@Z 00000001800169d0 f i olefs.obj
 0001:000159d0       ??$_Destroy_range@V?$allocator@N@std@@PEAN@std@@YAXPEAN0AEAU?$_Wrap_alloc@V?$allocator@N@std@@@0@@Z 00000001800169d0 f i cbridge.obj
 0001:000159d0       ??$_Destroy_range@V?$allocator@PEAVxf_t@xlslib_core@@@std@@PEAPEAVxf_t@xlslib_core@@@std@@YAXPEAPEAVxf_t@xlslib_core@@0AEAU?$_Wrap_alloc@V?$allocator@PEAVxf_t@xlslib_core@@@std@@@0@@Z 00000001800169d0 f i globalrec.obj
 0001:000159d0       ??$_Pocma@U?$_Wrap_alloc@V?$allocator@D@std@@@std@@@std@@YAXAEAU?$_Wrap_alloc@V?$allocator@D@std@@@0@0@Z 00000001800169d0 f i olefs.obj
 0001:000159d0       ??$destroy@PEAVxf_t@xlslib_core@@@?$_Wrap_alloc@V?$allocator@PEAVxf_t@xlslib_core@@@std@@@std@@QEAAXPEAPEAVxf_t@xlslib_core@@@Z 00000001800169d0 f i globalrec.obj
 0001:000159d0       ?_Destroy@?$vector@Urowblocksize_t@xlslib_core@@V?$allocator@Urowblocksize_t@xlslib_core@@@std@@@std@@IEAAXPEAUrowblocksize_t@xlslib_core@@0@Z 00000001800169d0 f i sheetrec.obj
 0001:000159d0       ?_Compat@?$_Vector_const_iterator@V?$_Vector_val@U?$_Simple_types@PEAVrange_t@xlslib_core@@@std@@@std@@@std@@QEBAXAEBV12@@Z 00000001800169d0 f i sheetrec.obj
 0001:000159d0       ??$destroy@PEAV?$basic_string@DU?$char_traits@D@std@@V?$allocator@D@2@@std@@@?$allocator_traits@V?$allocator@U?$_List_node@PEAV?$basic_string@DU?$char_traits@D@std@@V?$allocator@D@2@@std@@PEAX@std@@@std@@@std@@SAXAEAV?$allocator@U?$_List_node@PEAV?$basic_string@DU?$char_traits@D@std@@V?$allocator@D@2@@std@@PEAX@std@@@1@PEAPEAV?$basic_string@DU?$char_traits@D@std@@V?$allocator@D@2@@1@@Z 00000001800169d0 f i olefs.obj
 0001:000159d0       ?_Orphan_all@?$_Vector_alloc@U?$_Vec_base_types@PEAVboundsheet_t@xlslib_core@@V?$allocator@PEAVboundsheet_t@xlslib_core@@@std@@@std@@@std@@QEAAXXZ 00000001800169d0 f i globalrec.obj
 0001:000159d0       ?_Orphan_all@?$_Vector_alloc@U?$_Vec_base_types@PEBVlabel_t@xlslib_core@@V?$allocator@PEBVlabel_t@xlslib_core@@@std@@@std@@@std@@QEAAXXZ 00000001800169d0 f i globalrec.obj
 0001:000159d0       ?_Compat@?$_Vector_const_iterator@V?$_Vector_val@U?$_Simple_types@Urowblocksize_t@xlslib_core@@@std@@@std@@@std@@QEBAXAEBV12@@Z 00000001800169d0 f i sheetrec.obj
 0001:000159d0       ?_Compat@?$_Vector_const_iterator@V?$_Vector_val@U?$_Simple_types@PEAVformat_t@xlslib_core@@@std@@@std@@@std@@QEBAXAEBV12@@Z 00000001800169d0 f i globalrec.obj
 0001:000159d0       ?_Destroy@?$vector@PEAVCOleProp@xlslib_core@@V?$allocator@PEAVCOleProp@xlslib_core@@@std@@@std@@IEAAXPEAPEAVCOleProp@xlslib_core@@0@Z 00000001800169d0 f i oledoc.obj
 0001:000159d0       ?_Adopt@_Iterator_base0@std@@QEAAXPEBX@Z 00000001800169d0 f i datast.obj
 0001:000159d0       ??$_Destroy_range1@V?$allocator@PEAVformat_t@xlslib_core@@@std@@PEAPEAVformat_t@xlslib_core@@@std@@YAXPEAPEAVformat_t@xlslib_core@@0AEAU?$_Wrap_alloc@V?$allocator@PEAVformat_t@xlslib_core@@@std@@@0@U?$integral_constant@_N$00@0@@Z 00000001800169d0 f i globalrec.obj
 0001:000159d0       ??$destroy@PEAU?$_Tree_node@U?$pair@PEAVxf_t@xlslib_core@@UborderedXft@2@@std@@PEAX@std@@@?$allocator_traits@V?$allocator@U?$_Tree_node@U?$pair@PEAVxf_t@xlslib_core@@UborderedXft@2@@std@@PEAX@std@@@std@@@std@@SAXAEAV?$allocator@U?$_Tree_node@U?$pair@PEAVxf_t@xlslib_core@@UborderedXft@2@@std@@PEAX@std@@@1@PEAPEAU?$_Tree_node@U?$pair@PEAVxf_t@xlslib_core@@UborderedXft@2@@std@@PEAX@1@@Z 00000001800169d0 f i range.obj
 0001:000159d0       ?_Compat@?$_Vector_const_iterator@V?$_Vector_val@U?$_Simple_types@PEAVCOleProp@xlslib_core@@@std@@@std@@@std@@QEBAXAEBV12@@Z 00000001800169d0 f i oledoc.obj
 0001:000159d0       ??$destroy@PEA_W@?$_Wrap_alloc@V?$allocator@_W@std@@@std@@QEAAXPEAPEA_W@Z 00000001800169d0 f i cbridge.obj
 0001:000159d0       ??$_Destroy_range1@V?$allocator@Urowblocksize_t@xlslib_core@@@std@@PEAUrowblocksize_t@xlslib_core@@@std@@YAXPEAUrowblocksize_t@xlslib_core@@0AEAU?$_Wrap_alloc@V?$allocator@Urowblocksize_t@xlslib_core@@@std@@@0@U?$integral_constant@_N$00@0@@Z 00000001800169d0 f i sheetrec.obj
 0001:000159d0       ?_Destroy@?$vector@PEAUHyperLink@xlslib_core@@V?$allocator@PEAUHyperLink@xlslib_core@@@std@@@std@@IEAAXPEAPEAUHyperLink@xlslib_core@@0@Z 00000001800169d0 f i sheetrec.obj
 0001:000159d0       ??$destroy@PEAVxf_t@xlslib_core@@@?$allocator@PEAVxf_t@xlslib_core@@@std@@QEAAXPEAPEAVxf_t@xlslib_core@@@Z 00000001800169d0 f i globalrec.obj
 0001:000159d0       ??$_Destroy_range1@V?$allocator@PEAVxf_t@xlslib_core@@@std@@PEAPEAVxf_t@xlslib_core@@@std@@YAXPEAPEAVxf_t@xlslib_core@@0AEAU?$_Wrap_alloc@V?$allocator@PEAVxf_t@xlslib_core@@@std@@@0@U?$integral_constant@_N$00@0@@Z 00000001800169d0 f i globalrec.obj
 0001:000159d0       ??$destroy@PEAVxf_t@xlslib_core@@@?$allocator_traits@V?$allocator@PEAVxf_t@xlslib_core@@@std@@@std@@SAXAEAV?$allocator@PEAVxf_t@xlslib_core@@@1@PEAPEAVxf_t@xlslib_core@@@Z 00000001800169d0 f i globalrec.obj
 0001:000159d0       ?_Orphan_all@?$_Vector_alloc@U?$_Vec_base_types@PEAVCUnit@xlslib_core@@V?$allocator@PEAVCUnit@xlslib_core@@@std@@@std@@@std@@QEAAXXZ 00000001800169d0 f i datast.obj
 0001:000159d0       ??$destroy@PEA_S@?$allocator@_S@std@@QEAAXPEAPEA_S@Z 00000001800169d0 f i datast.obj
 0001:000159d0       ??$destroy@U?$pair@PEAVxf_t@xlslib_core@@UborderedXft@2@@std@@@?$allocator_traits@V?$allocator@U?$_Tree_node@U?$pair@PEAVxf_t@xlslib_core@@UborderedXft@2@@std@@PEAX@std@@@std@@@std@@SAXAEAV?$allocator@U?$_Tree_node@U?$pair@PEAVxf_t@xlslib_core@@UborderedXft@2@@std@@PEAX@std@@@1@PEAU?$pair@PEAVxf_t@xlslib_core@@UborderedXft@2@@1@@Z 00000001800169d0 f i range.obj
 0001:000159d0       ??$destroy@PEAU?$_Tree_node@U?$pair@PEAVxf_t@xlslib_core@@UborderedXft@2@@std@@PEAX@std@@@?$allocator@U?$_Tree_node@U?$pair@PEAVxf_t@xlslib_core@@UborderedXft@2@@std@@PEAX@std@@@std@@QEAAXPEAPEAU?$_Tree_node@U?$pair@PEAVxf_t@xlslib_core@@UborderedXft@2@@std@@PEAX@1@@Z 00000001800169d0 f i range.obj
 0001:000159d0       ?_Destroy@?$vector@NV?$allocator@N@std@@@std@@IEAAXPEAN0@Z 00000001800169d0 f i cbridge.obj
 0001:000159d0       ??1?$_Compressed_pair@U?$_Wrap_alloc@V?$allocator@_W@std@@@std@@V?$_String_val@U?$_Simple_types@_W@std@@@2@$00@std@@QEAA@XZ 00000001800169d0 f i cbridge.obj
 0001:000159d0       ?_Orphan_all@?$_Vector_alloc@U?$_Vec_base_types@PEAUHyperLink@xlslib_core@@V?$allocator@PEAUHyperLink@xlslib_core@@@std@@@std@@@std@@QEAAXXZ 00000001800169d0 f i sheetrec.obj
 0001:000159d0       ??$destroy@PEAV?$basic_string@DU?$char_traits@D@std@@V?$allocator@D@2@@std@@@?$allocator@U?$_List_node@PEAV?$basic_string@DU?$char_traits@D@std@@V?$allocator@D@2@@std@@PEAX@std@@@std@@QEAAXPEAPEAV?$basic_string@DU?$char_traits@D@std@@V?$allocator@D@2@@1@@Z 00000001800169d0 f i olefs.obj
 0001:000159d0       ??$_Destroy_range@V?$allocator@PEBVlabel_t@xlslib_core@@@std@@PEAPEBVlabel_t@xlslib_core@@@std@@YAXPEAPEBVlabel_t@xlslib_core@@0AEAU?$_Wrap_alloc@V?$allocator@PEBVlabel_t@xlslib_core@@@std@@@0@@Z 00000001800169d0 f i globalrec.obj
 0001:000159d0       ??$_Destroy_range1@V?$allocator@PEAVrange@xlslib_core@@@std@@PEAPEAVrange@xlslib_core@@@std@@YAXPEAPEAVrange@xlslib_core@@0AEAU?$_Wrap_alloc@V?$allocator@PEAVrange@xlslib_core@@@std@@@0@U?$integral_constant@_N$00@0@@Z 00000001800169d0 f i sheetrec.obj
 0001:000159d0       ??$_Destroy_range@V?$allocator@PEAVrange_t@xlslib_core@@@std@@PEAPEAVrange_t@xlslib_core@@@std@@YAXPEAPEAVrange_t@xlslib_core@@0AEAU?$_Wrap_alloc@V?$allocator@PEAVrange_t@xlslib_core@@@std@@@0@@Z 00000001800169d0 f i sheetrec.obj
 0001:000159d0       ??$destroy@PEAVHPSFitem@xlslib_core@@@?$allocator_traits@V?$allocator@U?$_Tree_node@PEAVHPSFitem@xlslib_core@@PEAX@std@@@std@@@std@@SAXAEAV?$allocator@U?$_Tree_node@PEAVHPSFitem@xlslib_core@@PEAX@std@@@1@PEAPEAVHPSFitem@xlslib_core@@@Z 00000001800169d0 f i HPSF.obj
 0001:000159d0       ??$_Destroy_range1@V?$allocator@PEAVfont_t@xlslib_core@@@std@@PEAPEAVfont_t@xlslib_core@@@std@@YAXPEAPEAVfont_t@xlslib_core@@0AEAU?$_Wrap_alloc@V?$allocator@PEAVfont_t@xlslib_core@@@std@@@0@U?$integral_constant@_N$00@0@@Z 00000001800169d0 f i globalrec.obj
 0001:000159d0       ??$_Destroy_range@V?$allocator@PEAVformula_t@xlslib_core@@@std@@PEAPEAVformula_t@xlslib_core@@@std@@YAXPEAPEAVformula_t@xlslib_core@@0AEAU?$_Wrap_alloc@V?$allocator@PEAVformula_t@xlslib_core@@@std@@@0@@Z 00000001800169d0 f i sheetrec.obj
 0001:000159d0       ?_Copy_alloc@?$_String_alloc@U?$_String_base_types@_SV?$allocator@_S@std@@@std@@@std@@QEAAXAEBU?$_Wrap_alloc@V?$allocator@_S@std@@@2@@Z 00000001800169d0 f i formula_estimate.obj
 0001:000159d0       ??$_Destroy_range@V?$allocator@PEAVfont_t@xlslib_core@@@std@@PEAPEAVfont_t@xlslib_core@@@std@@YAXPEAPEAVfont_t@xlslib_core@@0AEAU?$_Wrap_alloc@V?$allocator@PEAVfont_t@xlslib_core@@@std@@@0@@Z 00000001800169d0 f i globalrec.obj
 0001:000159d0       ?_Compat@?$_String_const_iterator@V?$_String_val@U?$_Simple_types@D@std@@@std@@@std@@QEBAXAEBV12@@Z 00000001800169d0 f i globalrec.obj
 0001:000159d0       ?_Orphan_range@?$vector@PEAUDataValidation@xlslib_core@@V?$allocator@PEAUDataValidation@xlslib_core@@@std@@@std@@IEBAXPEAPEAUDataValidation@xlslib_core@@0@Z 00000001800169d0 f i sheetrec.obj
 0001:000159d0       ??$destroy@PEAVcell_t@xlslib_core@@@?$_Wrap_alloc@V?$allocator@U?$_Tree_node@PEAVcell_t@xlslib_core@@PEAX@std@@@std@@@std@@QEAAXPEAPEAVcell_t@xlslib_core@@@Z 00000001800169d0 f i sheetrec.obj
 0001:000159d0       ??$destroy@PEAUcolinfo_t@xlslib_core@@@?$allocator@U?$_Tree_node@PEAUcolinfo_t@xlslib_core@@PEAX@std@@@std@@QEAAXPEAPEAUcolinfo_t@xlslib_core@@@Z 00000001800169d0 f i sheetrec.obj
 0001:000159d0       ??$__vcrt_va_start_verify_argument_type@QEBD@@YAXXZ 00000001800169d0 f i legacy_stdio_definitions:legacy_stdio_definitions.obj
 0001:000159d0       ?_Orphan_all@?$_Vector_alloc@U?$_Vec_base_types@PEAVworksheet@xlslib_core@@V?$allocator@PEAVworksheet@xlslib_core@@@std@@@std@@@std@@QEAAXXZ 00000001800169d0 f i workbook.obj
 0001:000159f0       xlslib_report_failed_assertion 00000001800169f0 f   assert_assist.obj
 0001:00015a00       xlslib_register_assert_reporter 0000000180016a00 f   assert_assist.obj
 0001:00015a10       ??1?$basic_string@DU?$char_traits@D@std@@V?$allocator@D@2@@std@@QEAA@XZ 0000000180016a10 f i assert_assist.obj
 0001:00015aa0       ??0?$basic_string@DU?$char_traits@D@std@@V?$allocator@D@2@@std@@QEAA@$$QEAV01@@Z 0000000180016aa0 f i assert_assist.obj
 0001:00015ad0       ??0?$basic_string@DU?$char_traits@D@std@@V?$allocator@D@2@@std@@QEAA@PEBD_K@Z 0000000180016ad0 f i assert_assist.obj
 0001:00015b00       ??0?$basic_string@DU?$char_traits@D@std@@V?$allocator@D@2@@std@@QEAA@XZ 0000000180016b00 f i assert_assist.obj
 0001:00015b20       ??0?$basic_string@DU?$char_traits@D@std@@V?$allocator@D@2@@std@@QEAA@AEBV01@@Z 0000000180016b20 f i assert_assist.obj
 0001:00015b60       ?str@?$basic_stringstream@DU?$char_traits@D@std@@V?$allocator@D@2@@std@@QEBA?AV?$basic_string@DU?$char_traits@D@std@@V?$allocator@D@2@@2@XZ 0000000180016b60 f i assert_assist.obj
 0001:00015b90       ??1?$basic_stringstream@DU?$char_traits@D@std@@V?$allocator@D@2@@std@@UEAA@XZ 0000000180016b90 f i assert_assist.obj
 0001:00015c10       ??0?$basic_stringstream@DU?$char_traits@D@std@@V?$allocator@D@2@@std@@QEAA@H@Z 0000000180016c10 f i assert_assist.obj
 0001:00015cc0       ?seekpos@?$basic_stringbuf@DU?$char_traits@D@std@@V?$allocator@D@2@@std@@MEAA?AV?$fpos@U_Mbstatet@@@2@V32@H@Z 0000000180016cc0 f i assert_assist.obj
 0001:00015dd0       ?seekoff@?$basic_stringbuf@DU?$char_traits@D@std@@V?$allocator@D@2@@std@@MEAA?AV?$fpos@U_Mbstatet@@@2@_JHH@Z 0000000180016dd0 f i assert_assist.obj
 0001:00015f70       ?underflow@?$basic_stringbuf@DU?$char_traits@D@std@@V?$allocator@D@2@@std@@MEAAHXZ 0000000180016f70 f i assert_assist.obj
 0001:00015fd0       ?pbackfail@?$basic_stringbuf@DU?$char_traits@D@std@@V?$allocator@D@2@@std@@MEAAHH@Z 0000000180016fd0 f i assert_assist.obj
 0001:00016020       ?overflow@?$basic_stringbuf@DU?$char_traits@D@std@@V?$allocator@D@2@@std@@MEAAHH@Z 0000000180017020 f i assert_assist.obj
 0001:00016280       ??1?$basic_stringbuf@DU?$char_traits@D@std@@V?$allocator@D@2@@std@@UEAA@XZ 0000000180017280 f i assert_assist.obj
 0001:000162b0       ??_G?$basic_stringstream@DU?$char_traits@D@std@@V?$allocator@D@2@@std@@UEAAPEAXI@Z 00000001800172b0 f i assert_assist.obj
 0001:000162b0       ??_E?$basic_stringstream@DU?$char_traits@D@std@@V?$allocator@D@2@@std@@UEAAPEAXI@Z 00000001800172b0 f i * CIL library *:* CIL module *
 0001:00016300       ??_G?$basic_stringbuf@DU?$char_traits@D@std@@V?$allocator@D@2@@std@@UEAAPEAXI@Z 0000000180017300 f i assert_assist.obj
 0001:00016300       ??_E?$basic_stringbuf@DU?$char_traits@D@std@@V?$allocator@D@2@@std@@UEAAPEAXI@Z 0000000180017300 f i * CIL library *:* CIL module *
 0001:00016350       ?_Myend@?$_Vector_alloc@U?$_Vec_base_types@PEAUHyperLink@xlslib_core@@V?$allocator@PEAUHyperLink@xlslib_core@@@std@@@std@@@std@@QEAAAEAPEAPEAUHyperLink@xlslib_core@@XZ 0000000180017350 f i sheetrec.obj
 0001:00016350       ?_Myend@?$_Vector_alloc@U?$_Vec_base_types@Urowblocksize_t@xlslib_core@@V?$allocator@Urowblocksize_t@xlslib_core@@@std@@@std@@@std@@QEAAAEAPEAUrowblocksize_t@xlslib_core@@XZ 0000000180017350 f i sheetrec.obj
 0001:00016350       ?_Myend@?$_Vector_alloc@U?$_Vec_base_types@V?$basic_string@_WU?$char_traits@_W@std@@V?$allocator@_W@2@@std@@V?$allocator@V?$basic_string@_WU?$char_traits@_W@std@@V?$allocator@_W@2@@std@@@2@@std@@@std@@QEAAAEAPEAV?$basic_string@_WU?$char_traits@_W@std@@V?$allocator@_W@2@@2@XZ 0000000180017350 f i cbridge.obj
 0001:00016350       ?_Right@?$_Tree_val@U?$_Tree_simple_types@PEAUcolinfo_t@xlslib_core@@@std@@@std@@SAAEAPEAU?$_Tree_node@PEAUcolinfo_t@xlslib_core@@PEAX@2@PEAU32@@Z 0000000180017350 f i sheetrec.obj
 0001:00016350       ?_Myend@?$_Vector_alloc@U?$_Vec_base_types@PEAVformula_t@xlslib_core@@V?$allocator@PEAVformula_t@xlslib_core@@@std@@@std@@@std@@QEAAAEAPEAPEAVformula_t@xlslib_core@@XZ 0000000180017350 f i sheetrec.obj
 0001:00016350       ?_Myend@?$_Vector_alloc@U?$_Vec_base_types@V?$basic_string@DU?$char_traits@D@std@@V?$allocator@D@2@@std@@V?$allocator@V?$basic_string@DU?$char_traits@D@std@@V?$allocator@D@2@@std@@@2@@std@@@std@@QEBAAEBQEAV?$basic_string@DU?$char_traits@D@std@@V?$allocator@D@2@@2@XZ 0000000180017350 f i cbridge.obj
 0001:00016350       ?GetName@font_t@xlslib_core@@QEBAAEBV?$basic_string@DU?$char_traits@D@std@@V?$allocator@D@2@@std@@XZ 0000000180017350 f i font.obj
 0001:00016350       ?_Mysize@?$_String_alloc@U?$_String_base_types@_SV?$allocator@_S@std@@@std@@@std@@QEBAAEB_KXZ 0000000180017350 f i datast.obj
 0001:00016350       ?_Right@?$_Tree_comp_alloc@V?$_Tset_traits@PEAVHPSFitem@xlslib_core@@Vinsertsort2@2@V?$allocator@PEAVHPSFitem@xlslib_core@@@std@@$0A@@std@@@std@@SAAEAPEAU?$_Tree_node@PEAVHPSFitem@xlslib_core@@PEAX@2@PEAU32@@Z 0000000180017350 f i HPSF.obj
 0001:00016350       ?_Myend@?$_Vector_alloc@U?$_Vec_base_types@PEBVlabel_t@xlslib_core@@V?$allocator@PEBVlabel_t@xlslib_core@@@std@@@std@@@std@@QEAAAEAPEAPEBVlabel_t@xlslib_core@@XZ 0000000180017350 f i globalrec.obj
 0001:00016350       ?_Myend@?$_Vector_alloc@U?$_Vec_base_types@_KV?$allocator@_K@std@@@std@@@std@@QEBAAEBQEA_KXZ 0000000180017350 f i sheetrec.obj
 0001:00016350       ?_Right@?$_Tree_comp_alloc@V?$_Tset_traits@PEAVcell_t@xlslib_core@@Vinsertsort@2@V?$allocator@PEAVcell_t@xlslib_core@@@std@@$0A@@std@@@std@@SAAEAPEAU?$_Tree_node@PEAVcell_t@xlslib_core@@PEAX@2@PEAU32@@Z 0000000180017350 f i sheetrec.obj
 0001:00016350       ?_Myend@?$_Vector_alloc@U?$_Vec_base_types@PEAVCUnit@xlslib_core@@V?$allocator@PEAVCUnit@xlslib_core@@@std@@@std@@@std@@QEBAAEBQEAPEAVCUnit@xlslib_core@@XZ 0000000180017350 f i datast.obj
 0001:00016350       ?_Myend@?$_Vector_alloc@U?$_Vec_base_types@VCUnitStore@xlslib_core@@V?$allocator@VCUnitStore@xlslib_core@@@std@@@std@@@std@@QEBAAEBQEAVCUnitStore@xlslib_core@@XZ 0000000180017350 f i datast.obj
 0001:00016350       ?_Mysize@?$_String_alloc@U?$_String_base_types@_WV?$allocator@_W@std@@@std@@@std@@QEBAAEB_KXZ 0000000180017350 f i cbridge.obj
 0001:00016350       ?_Myend@?$_Vector_alloc@U?$_Vec_base_types@Urowblocksize_t@xlslib_core@@V?$allocator@Urowblocksize_t@xlslib_core@@@std@@@std@@@std@@QEBAAEBQEAUrowblocksize_t@xlslib_core@@XZ 0000000180017350 f i sheetrec.obj
 0001:00016350       ?_Myend@?$_Vector_alloc@U?$_Vec_base_types@V?$basic_string@_WU?$char_traits@_W@std@@V?$allocator@_W@2@@std@@V?$allocator@V?$basic_string@_WU?$char_traits@_W@std@@V?$allocator@_W@2@@std@@@2@@std@@@std@@QEBAAEBQEAV?$basic_string@_WU?$char_traits@_W@std@@V?$allocator@_W@2@@2@XZ 0000000180017350 f i cbridge.obj
 0001:00016350       ?_Myend@?$_Vector_alloc@U?$_Vec_base_types@PEAUHyperLink@xlslib_core@@V?$allocator@PEAUHyperLink@xlslib_core@@@std@@@std@@@std@@QEBAAEBQEAPEAUHyperLink@xlslib_core@@XZ 0000000180017350 f i sheetrec.obj
 0001:00016350       ?_Right@?$_Tree_val@U?$_Tree_simple_types@PEAVHPSFitem@xlslib_core@@@std@@@std@@SAAEAPEAU?$_Tree_node@PEAVHPSFitem@xlslib_core@@PEAX@2@PEAU32@@Z 0000000180017350 f i HPSF.obj
 0001:00016350       ?_Myend@?$_Vector_alloc@U?$_Vec_base_types@PEAVrange_t@xlslib_core@@V?$allocator@PEAVrange_t@xlslib_core@@@std@@@std@@@std@@QEBAAEBQEAPEAVrange_t@xlslib_core@@XZ 0000000180017350 f i sheetrec.obj
 0001:00016350       ?_Right@?$_Tree_val@U?$_Tree_simple_types@U?$pair@PEAVxf_t@xlslib_core@@UborderedXft@2@@std@@@std@@@std@@SAAEAPEAU?$_Tree_node@U?$pair@PEAVxf_t@xlslib_core@@UborderedXft@2@@std@@PEAX@2@PEAU32@@Z 0000000180017350 f i range.obj
 0001:00016350       ?_Myend@?$_Vector_alloc@U?$_Vec_base_types@PEAUDataValidation@xlslib_core@@V?$allocator@PEAUDataValidation@xlslib_core@@@std@@@std@@@std@@QEBAAEBQEAPEAUDataValidation@xlslib_core@@XZ 0000000180017350 f i sheetrec.obj
 0001:00016350       ?_Myend@?$_Vector_alloc@U?$_Vec_base_types@PEAVfont_t@xlslib_core@@V?$allocator@PEAVfont_t@xlslib_core@@@std@@@std@@@std@@QEAAAEAPEAPEAVfont_t@xlslib_core@@XZ 0000000180017350 f i globalrec.obj
 0001:00016350       ?_Right@?$_Tree_comp_alloc@V?$_Tset_traits@PEAVrowheight_t@xlslib_core@@Vrowheightsort@2@V?$allocator@PEAVrowheight_t@xlslib_core@@@std@@$0A@@std@@@std@@SAAEAPEAU?$_Tree_node@PEAVrowheight_t@xlslib_core@@PEAX@2@PEAU32@@Z 0000000180017350 f i sheetrec.obj
 0001:00016350       ?_Myend@?$_Vector_alloc@U?$_Vec_base_types@PEAVboundsheet_t@xlslib_core@@V?$allocator@PEAVboundsheet_t@xlslib_core@@@std@@@std@@@std@@QEAAAEAPEAPEAVboundsheet_t@xlslib_core@@XZ 0000000180017350 f i globalrec.obj
 0001:00016350       ?_Mysize@?$_String_alloc@U?$_String_base_types@_WV?$allocator@_W@std@@@std@@@std@@QEAAAEA_KXZ 0000000180017350 f i cbridge.obj
 0001:00016350       ?_Myend@?$_Vector_alloc@U?$_Vec_base_types@PEAVfont_t@xlslib_core@@V?$allocator@PEAVfont_t@xlslib_core@@@std@@@std@@@std@@QEBAAEBQEAPEAVfont_t@xlslib_core@@XZ 0000000180017350 f i globalrec.obj
 0001:00016350       ?_Mysize@?$_String_alloc@U?$_String_base_types@DV?$allocator@D@std@@@std@@@std@@QEAAAEA_KXZ 0000000180017350 f i assert_assist.obj
 0001:00016350       ?_Myend@?$_Vector_alloc@U?$_Vec_base_types@PEAVxf_t@xlslib_core@@V?$allocator@PEAVxf_t@xlslib_core@@@std@@@std@@@std@@QEBAAEBQEAPEAVxf_t@xlslib_core@@XZ 0000000180017350 f i globalrec.obj
 0001:00016350       ?_Myend@?$_Vector_alloc@U?$_Vec_base_types@PEBVlabel_t@xlslib_core@@V?$allocator@PEBVlabel_t@xlslib_core@@@std@@@std@@@std@@QEBAAEBQEAPEBVlabel_t@xlslib_core@@XZ 0000000180017350 f i globalrec.obj
 0001:00016350       ?_Mysize@?$_String_alloc@U?$_String_base_types@DV?$allocator@D@std@@@std@@@std@@QEBAAEB_KXZ 0000000180017350 f i assert_assist.obj
 0001:00016350       ?_Myend@?$_Vector_alloc@U?$_Vec_base_types@PEAVrange_t@xlslib_core@@V?$allocator@PEAVrange_t@xlslib_core@@@std@@@std@@@std@@QEAAAEAPEAPEAVrange_t@xlslib_core@@XZ 0000000180017350 f i sheetrec.obj
 0001:00016350       ?_Myend@?$_Vector_alloc@U?$_Vec_base_types@VCUnitStore@xlslib_core@@V?$allocator@VCUnitStore@xlslib_core@@@std@@@std@@@std@@QEAAAEAPEAVCUnitStore@xlslib_core@@XZ 0000000180017350 f i datast.obj
 0001:00016350       ?_Myend@?$_Vector_alloc@U?$_Vec_base_types@PEAVformula_t@xlslib_core@@V?$allocator@PEAVformula_t@xlslib_core@@@std@@@std@@@std@@QEBAAEBQEAPEAVformula_t@xlslib_core@@XZ 0000000180017350 f i sheetrec.obj
 0001:00016350       ?_Myend@?$_Vector_alloc@U?$_Vec_base_types@PEAVrange@xlslib_core@@V?$allocator@PEAVrange@xlslib_core@@@std@@@std@@@std@@QEAAAEAPEAPEAVrange@xlslib_core@@XZ 0000000180017350 f i sheetrec.obj
 0001:00016350       ?_Right@?$_Tree_comp_alloc@V?$_Tset_traits@PEAUcolinfo_t@xlslib_core@@Vcolinfosort@2@V?$allocator@PEAUcolinfo_t@xlslib_core@@@std@@$0A@@std@@@std@@SAAEAPEAU?$_Tree_node@PEAUcolinfo_t@xlslib_core@@PEAX@2@PEAU32@@Z 0000000180017350 f i sheetrec.obj
 0001:00016350       ?_Myend@?$_Vector_alloc@U?$_Vec_base_types@V?$basic_string@DU?$char_traits@D@std@@V?$allocator@D@2@@std@@V?$allocator@V?$basic_string@DU?$char_traits@D@std@@V?$allocator@D@2@@std@@@2@@std@@@std@@QEAAAEAPEAV?$basic_string@DU?$char_traits@D@std@@V?$allocator@D@2@@2@XZ 0000000180017350 f i cbridge.obj
 0001:00016350       ?_Myend@?$_Vector_alloc@U?$_Vec_base_types@NV?$allocator@N@std@@@std@@@std@@QEBAAEBQEANXZ 0000000180017350 f i cbridge.obj
 0001:00016350       ?_Right@?$_Tree_val@U?$_Tree_simple_types@PEAVrowheight_t@xlslib_core@@@std@@@std@@SAAEAPEAU?$_Tree_node@PEAVrowheight_t@xlslib_core@@PEAX@2@PEAU32@@Z 0000000180017350 f i sheetrec.obj
 0001:00016350       ?_Myend@?$_Vector_alloc@U?$_Vec_base_types@PEAVCUnit@xlslib_core@@V?$allocator@PEAVCUnit@xlslib_core@@@std@@@std@@@std@@QEAAAEAPEAPEAVCUnit@xlslib_core@@XZ 0000000180017350 f i datast.obj
 0001:00016350       ?_Myend@?$_Vector_alloc@U?$_Vec_base_types@PEAVformat_t@xlslib_core@@V?$allocator@PEAVformat_t@xlslib_core@@@std@@@std@@@std@@QEBAAEBQEAPEAVformat_t@xlslib_core@@XZ 0000000180017350 f i globalrec.obj
 0001:00016350       ?_Myend@?$_Vector_alloc@U?$_Vec_base_types@PEAUstyle_t@xlslib_core@@V?$allocator@PEAUstyle_t@xlslib_core@@@std@@@std@@@std@@QEAAAEAPEAPEAUstyle_t@xlslib_core@@XZ 0000000180017350 f i globalrec.obj
 0001:00016350       ?_Mysize@?$_String_alloc@U?$_String_base_types@_SV?$allocator@_S@std@@@std@@@std@@QEAAAEA_KXZ 0000000180017350 f i datast.obj
 0001:00016350       ?_Myend@?$_Vector_alloc@U?$_Vec_base_types@PEAVboundsheet_t@xlslib_core@@V?$allocator@PEAVboundsheet_t@xlslib_core@@@std@@@std@@@std@@QEBAAEBQEAPEAVboundsheet_t@xlslib_core@@XZ 0000000180017350 f i globalrec.obj
 0001:00016350       ?_Myend@?$_Vector_alloc@U?$_Vec_base_types@PEAVformat_t@xlslib_core@@V?$allocator@PEAVformat_t@xlslib_core@@@std@@@std@@@std@@QEAAAEAPEAPEAVformat_t@xlslib_core@@XZ 0000000180017350 f i globalrec.obj
 0001:00016350       ?GetXFshadow@xf_t@xlslib_core@@AEBAAEBVxf_init_t@2@XZ 0000000180017350 f i extformat.obj
 0001:00016350       ?_Myend@?$_Vector_alloc@U?$_Vec_base_types@PEAUstyle_t@xlslib_core@@V?$allocator@PEAUstyle_t@xlslib_core@@@std@@@std@@@std@@QEBAAEBQEAPEAUstyle_t@xlslib_core@@XZ 0000000180017350 f i globalrec.obj
 0001:00016350       ?_Myend@?$_Vector_alloc@U?$_Vec_base_types@PEAVxf_t@xlslib_core@@V?$allocator@PEAVxf_t@xlslib_core@@@std@@@std@@@std@@QEAAAEAPEAPEAVxf_t@xlslib_core@@XZ 0000000180017350 f i globalrec.obj
 0001:00016350       ?_Myend@?$_Vector_alloc@U?$_Vec_base_types@PEAUDataValidation@xlslib_core@@V?$allocator@PEAUDataValidation@xlslib_core@@@std@@@std@@@std@@QEAAAEAPEAPEAUDataValidation@xlslib_core@@XZ 0000000180017350 f i sheetrec.obj
 0001:00016350       ?_Myval@?$_List_alloc@U?$_List_base_types@PEAV?$basic_string@DU?$char_traits@D@std@@V?$allocator@D@2@@std@@V?$allocator@PEAV?$basic_string@DU?$char_traits@D@std@@V?$allocator@D@2@@std@@@2@@std@@@std@@SAAEAPEAV?$basic_string@DU?$char_traits@D@std@@V?$allocator@D@2@@2@PEAU?$_List_node@PEAV?$basic_string@DU?$char_traits@D@std@@V?$allocator@D@2@@std@@PEAX@2@@Z 0000000180017350 f i olefs.obj
 0001:00016350       ?_Myend@?$_Vector_alloc@U?$_Vec_base_types@PEAVCOleProp@xlslib_core@@V?$allocator@PEAVCOleProp@xlslib_core@@@std@@@std@@@std@@QEAAAEAPEAPEAVCOleProp@xlslib_core@@XZ 0000000180017350 f i oledoc.obj
 0001:00016350       ?_Myend@?$_Vector_alloc@U?$_Vec_base_types@PEAVworksheet@xlslib_core@@V?$allocator@PEAVworksheet@xlslib_core@@@std@@@std@@@std@@QEAAAEAPEAPEAVworksheet@xlslib_core@@XZ 0000000180017350 f i workbook.obj
 0001:00016350       ?_Right@?$_Tree_val@U?$_Tree_simple_types@PEAVcell_t@xlslib_core@@@std@@@std@@SAAEAPEAU?$_Tree_node@PEAVcell_t@xlslib_core@@PEAX@2@PEAU32@@Z 0000000180017350 f i sheetrec.obj
 0001:00016350       ?_Myval@?$_List_val@U?$_List_simple_types@PEAV?$basic_string@DU?$char_traits@D@std@@V?$allocator@D@2@@std@@@std@@@std@@SAAEAPEAV?$basic_string@DU?$char_traits@D@std@@V?$allocator@D@2@@2@PEAU?$_List_node@PEAV?$basic_string@DU?$char_traits@D@std@@V?$allocator@D@2@@std@@PEAX@2@@Z 0000000180017350 f i olefs.obj
 0001:00016350       ?_Right@?$_Tree_comp_alloc@V?$_Tset_traits@U?$pair@PEAVxf_t@xlslib_core@@UborderedXft@2@@std@@VxfSorter@xlslib_core@@V?$allocator@U?$pair@PEAVxf_t@xlslib_core@@UborderedXft@2@@std@@@2@$0A@@std@@@std@@SAAEAPEAU?$_Tree_node@U?$pair@PEAVxf_t@xlslib_core@@UborderedXft@2@@std@@PEAX@2@PEAU32@@Z 0000000180017350 f i range.obj
 0001:00016350       ?_Myend@?$_Vector_alloc@U?$_Vec_base_types@_KV?$allocator@_K@std@@@std@@@std@@QEAAAEAPEA_KXZ 0000000180017350 f i sheetrec.obj
 0001:00016350       ?_Myend@?$_Vector_alloc@U?$_Vec_base_types@PEAVworksheet@xlslib_core@@V?$allocator@PEAVworksheet@xlslib_core@@@std@@@std@@@std@@QEBAAEBQEAPEAVworksheet@xlslib_core@@XZ 0000000180017350 f i workbook.obj
 0001:00016350       ?_Myend@?$_Vector_alloc@U?$_Vec_base_types@PEAVrange@xlslib_core@@V?$allocator@PEAVrange@xlslib_core@@@std@@@std@@@std@@QEBAAEBQEAPEAVrange@xlslib_core@@XZ 0000000180017350 f i sheetrec.obj
 0001:00016350       ?_Myend@?$_Vector_alloc@U?$_Vec_base_types@PEAVCOleProp@xlslib_core@@V?$allocator@PEAVCOleProp@xlslib_core@@@std@@@std@@@std@@QEBAAEBQEAPEAVCOleProp@xlslib_core@@XZ 0000000180017350 f i olefs.obj
 0001:00016350       ?_Myend@?$_Vector_alloc@U?$_Vec_base_types@NV?$allocator@N@std@@@std@@@std@@QEAAAEAPEANXZ 0000000180017350 f i cbridge.obj
 0001:00016360       ??$?0$$V@?$_Compressed_pair@U?$_Wrap_alloc@V?$allocator@_W@std@@@std@@V?$_String_val@U?$_Simple_types@_W@std@@@2@$00@std@@QEAA@U_Zero_then_variadic_args_t@1@@Z 0000000180017360 f i cbridge.obj
 0001:00016360       ??$?0U?$_Wrap_alloc@V?$allocator@D@std@@@std@@$$V@?$_Compressed_pair@U?$_Wrap_alloc@V?$allocator@D@std@@@std@@V?$_String_val@U?$_Simple_types@D@std@@@2@$00@std@@QEAA@U_One_then_variadic_args_t@1@$$QEAU?$_Wrap_alloc@V?$allocator@D@std@@@1@@Z 0000000180017360 f i assert_assist.obj
 0001:00016360       ??$?0AEBV?$allocator@D@std@@$$V@?$_Compressed_pair@U?$_Wrap_alloc@V?$allocator@D@std@@@std@@V?$_String_val@U?$_Simple_types@D@std@@@2@$00@std@@QEAA@U_One_then_variadic_args_t@1@AEBV?$allocator@D@1@@Z 0000000180017360 f i olefs.obj
 0001:00016360       ??$?0$$V@?$_Compressed_pair@U?$_Wrap_alloc@V?$allocator@D@std@@@std@@V?$_String_val@U?$_Simple_types@D@std@@@2@$00@std@@QEAA@U_Zero_then_variadic_args_t@1@@Z 0000000180017360 f i assert_assist.obj
 0001:00016360       ??0?$_String_val@U?$_Simple_types@_W@std@@@std@@QEAA@XZ 0000000180017360 f i cbridge.obj
 0001:00016360       ??0?$_String_alloc@U?$_String_base_types@_WV?$allocator@_W@std@@@std@@@std@@QEAA@XZ 0000000180017360 f i cbridge.obj
 0001:00016360       ??$?0U?$_Wrap_alloc@V?$allocator@_W@std@@@std@@$$V@?$_Compressed_pair@U?$_Wrap_alloc@V?$allocator@_W@std@@@std@@V?$_String_val@U?$_Simple_types@_W@std@@@2@$00@std@@QEAA@U_One_then_variadic_args_t@1@$$QEAU?$_Wrap_alloc@V?$allocator@_W@std@@@1@@Z 0000000180017360 f i cbridge.obj
 0001:00016360       ??$?0U?$_Wrap_alloc@V?$allocator@_S@std@@@std@@X@?$_String_alloc@U?$_String_base_types@_SV?$allocator@_S@std@@@std@@@std@@QEAA@$$QEAU?$_Wrap_alloc@V?$allocator@_S@std@@@1@@Z 0000000180017360 f i datast.obj
 0001:00016360       ??0?$_String_alloc@U?$_String_base_types@_SV?$allocator@_S@std@@@std@@@std@@QEAA@XZ 0000000180017360 f i format.obj
 0001:00016360       ??$?0AEBV?$allocator@D@std@@X@?$_String_alloc@U?$_String_base_types@DV?$allocator@D@std@@@std@@@std@@QEAA@AEBV?$allocator@D@1@@Z 0000000180017360 f i olefs.obj
 0001:00016360       ??$?0U?$_Wrap_alloc@V?$allocator@_S@std@@@std@@$$V@?$_Compressed_pair@U?$_Wrap_alloc@V?$allocator@_S@std@@@std@@V?$_String_val@U?$_Simple_types@_S@std@@@2@$00@std@@QEAA@U_One_then_variadic_args_t@1@$$QEAU?$_Wrap_alloc@V?$allocator@_S@std@@@1@@Z 0000000180017360 f i datast.obj
 0001:00016360       ??$?0U?$_Wrap_alloc@V?$allocator@D@std@@@std@@X@?$_String_alloc@U?$_String_base_types@DV?$allocator@D@std@@@std@@@std@@QEAA@$$QEAU?$_Wrap_alloc@V?$allocator@D@std@@@1@@Z 0000000180017360 f i assert_assist.obj
 0001:00016360       ??0?$_String_val@U?$_Simple_types@_S@std@@@std@@QEAA@XZ 0000000180017360 f i datast.obj
 0001:00016360       ??0?$_String_alloc@U?$_String_base_types@DV?$allocator@D@std@@@std@@@std@@QEAA@XZ 0000000180017360 f i assert_assist.obj
 0001:00016360       ??0?$_String_val@U?$_Simple_types@D@std@@@std@@QEAA@XZ 0000000180017360 f i assert_assist.obj
 0001:00016360       ??$?0U?$_Wrap_alloc@V?$allocator@_W@std@@@std@@X@?$_String_alloc@U?$_String_base_types@_WV?$allocator@_W@std@@@std@@@std@@QEAA@$$QEAU?$_Wrap_alloc@V?$allocator@_W@std@@@1@@Z 0000000180017360 f i cbridge.obj
 0001:00016360       ??$?0$$V@?$_Compressed_pair@U?$_Wrap_alloc@V?$allocator@_S@std@@@std@@V?$_String_val@U?$_Simple_types@_S@std@@@2@$00@std@@QEAA@U_Zero_then_variadic_args_t@1@@Z 0000000180017360 f i format.obj
 0001:00016370       ?_Myptr@?$_String_alloc@U?$_String_base_types@DV?$allocator@D@std@@@std@@@std@@QEAAPEADXZ 0000000180017370 f i assert_assist.obj
 0001:00016370       ?_Myptr@?$_String_alloc@U?$_String_base_types@DV?$allocator@D@std@@@std@@@std@@QEBAPEBDXZ 0000000180017370 f i assert_assist.obj
 0001:00016370       ?_Myptr@?$_String_val@U?$_Simple_types@D@std@@@std@@QEAAPEADXZ 0000000180017370 f i assert_assist.obj
 0001:00016370       ?c_str@?$basic_string@DU?$char_traits@D@std@@V?$allocator@D@2@@std@@QEBAPEBDXZ 0000000180017370 f i cbridge.obj
 0001:00016370       ?_Myptr@?$_String_val@U?$_Simple_types@D@std@@@std@@QEBAPEBDXZ 0000000180017370 f i assert_assist.obj
 0001:00016380       ?_Tidy@?$basic_string@DU?$char_traits@D@std@@V?$allocator@D@2@@std@@QEAAX_N_K@Z 0000000180017380 f i assert_assist.obj
 0001:00016430       ?assign@?$basic_string@DU?$char_traits@D@std@@V?$allocator@D@2@@std@@QEAAAEAV12@PEBD_K@Z 0000000180017430 f i assert_assist.obj
 0001:00016560       ?assign@?$basic_string@DU?$char_traits@D@std@@V?$allocator@D@2@@std@@QEAAAEAV12@AEBV12@_K1@Z 0000000180017560 f i assert_assist.obj
 0001:00016690       ?_Assign_rv@?$basic_string@DU?$char_traits@D@std@@V?$allocator@D@2@@std@@QEAAX$$QEAV12@@Z 0000000180017690 f i assert_assist.obj
 0001:00016720       ?_Tidy@?$basic_stringbuf@DU?$char_traits@D@std@@V?$allocator@D@2@@std@@IEAAXXZ 0000000180017720 f i assert_assist.obj
 0001:000167f0       ?str@?$basic_stringbuf@DU?$char_traits@D@std@@V?$allocator@D@2@@std@@QEBA?AV?$basic_string@DU?$char_traits@D@std@@V?$allocator@D@2@@2@XZ 00000001800177f0 f i assert_assist.obj
 0001:00016a50       ??0?$basic_stringbuf@DU?$char_traits@D@std@@V?$allocator@D@2@@std@@QEAA@H@Z 0000000180017a50 f i assert_assist.obj
 0001:00016ad0       ?allocate@?$_Wrap_alloc@V?$allocator@D@std@@@std@@QEAAPEAD_K@Z 0000000180017ad0 f i assert_assist.obj
 0001:00016ad0       ?allocate@?$allocator@D@std@@QEAAPEAD_K@Z 0000000180017ad0 f i assert_assist.obj
 0001:00016b30       ?deallocate@?$allocator@D@std@@QEAAXPEAD_K@Z 0000000180017b30 f i assert_assist.obj
 0001:00016b30       ?deallocate@?$_Wrap_alloc@V?$allocator@D@std@@@std@@QEAAXPEAD_K@Z 0000000180017b30 f i assert_assist.obj
 0001:00016b90       ??B?$fpos@U_Mbstatet@@@std@@QEBA_JXZ 0000000180017b90 f i assert_assist.obj
 0001:00016ba0       ??0?$fpos@U_Mbstatet@@@std@@QEAA@_J@Z 0000000180017ba0 f i assert_assist.obj
 0001:00016bc0       ?_Color@?$_Tree_val@U?$_Tree_simple_types@U?$pair@PEAVxf_t@xlslib_core@@UborderedXft@2@@std@@@std@@@std@@SAAEADPEAU?$_Tree_node@U?$pair@PEAVxf_t@xlslib_core@@UborderedXft@2@@std@@PEAX@2@@Z 0000000180017bc0 f i range.obj
 0001:00016bc0       ?_Color@?$_Tree_val@U?$_Tree_simple_types@PEAVcell_t@xlslib_core@@@std@@@std@@SAAEADPEAU?$_Tree_node@PEAVcell_t@xlslib_core@@PEAX@2@@Z 0000000180017bc0 f i sheetrec.obj
 0001:00016bc0       ?_Myres@?$_String_alloc@U?$_String_base_types@DV?$allocator@D@std@@@std@@@std@@QEAAAEA_KXZ 0000000180017bc0 f i assert_assist.obj
 0001:00016bc0       ?_Color@?$_Tree_comp_alloc@V?$_Tset_traits@U?$pair@PEAVxf_t@xlslib_core@@UborderedXft@2@@std@@VxfSorter@xlslib_core@@V?$allocator@U?$pair@PEAVxf_t@xlslib_core@@UborderedXft@2@@std@@@2@$0A@@std@@@std@@SAAEADPEAU?$_Tree_node@U?$pair@PEAVxf_t@xlslib_core@@UborderedXft@2@@std@@PEAX@2@@Z 0000000180017bc0 f i range.obj
 0001:00016bc0       ?_Color@?$_Tree_comp_alloc@V?$_Tset_traits@PEAUcolinfo_t@xlslib_core@@Vcolinfosort@2@V?$allocator@PEAUcolinfo_t@xlslib_core@@@std@@$0A@@std@@@std@@SAAEADPEAU?$_Tree_node@PEAUcolinfo_t@xlslib_core@@PEAX@2@@Z 0000000180017bc0 f i sheetrec.obj
 0001:00016bc0       ?_Color@?$_Tree_comp_alloc@V?$_Tset_traits@PEAVrowheight_t@xlslib_core@@Vrowheightsort@2@V?$allocator@PEAVrowheight_t@xlslib_core@@@std@@$0A@@std@@@std@@SAAEADPEAU?$_Tree_node@PEAVrowheight_t@xlslib_core@@PEAX@2@@Z 0000000180017bc0 f i sheetrec.obj
 0001:00016bc0       ?_Color@?$_Tree_comp_alloc@V?$_Tset_traits@PEAVcell_t@xlslib_core@@Vinsertsort@2@V?$allocator@PEAVcell_t@xlslib_core@@@std@@$0A@@std@@@std@@SAAEADPEAU?$_Tree_node@PEAVcell_t@xlslib_core@@PEAX@2@@Z 0000000180017bc0 f i sheetrec.obj
 0001:00016bc0       ?_Color@?$_Tree_val@U?$_Tree_simple_types@PEAUcolinfo_t@xlslib_core@@@std@@@std@@SAAEADPEAU?$_Tree_node@PEAUcolinfo_t@xlslib_core@@PEAX@2@@Z 0000000180017bc0 f i sheetrec.obj
 0001:00016bc0       ?_Myres@?$_String_alloc@U?$_String_base_types@_SV?$allocator@_S@std@@@std@@@std@@QEAAAEA_KXZ 0000000180017bc0 f i datast.obj
 0001:00016bc0       ?_Color@?$_Tree_val@U?$_Tree_simple_types@PEAVrowheight_t@xlslib_core@@@std@@@std@@SAAEADPEAU?$_Tree_node@PEAVrowheight_t@xlslib_core@@PEAX@2@@Z 0000000180017bc0 f i sheetrec.obj
 0001:00016bc0       ?_Myres@?$_String_alloc@U?$_String_base_types@_WV?$allocator@_W@std@@@std@@@std@@QEAAAEA_KXZ 0000000180017bc0 f i cbridge.obj
 0001:00016bc0       ?_Color@?$_Tree_comp_alloc@V?$_Tset_traits@PEAVHPSFitem@xlslib_core@@Vinsertsort2@2@V?$allocator@PEAVHPSFitem@xlslib_core@@@std@@$0A@@std@@@std@@SAAEADPEAU?$_Tree_node@PEAVHPSFitem@xlslib_core@@PEAX@2@@Z 0000000180017bc0 f i HPSF.obj
 0001:00016bc0       ?_Color@?$_Tree_val@U?$_Tree_simple_types@PEAVHPSFitem@xlslib_core@@@std@@@std@@SAAEADPEAU?$_Tree_node@PEAVHPSFitem@xlslib_core@@PEAX@2@@Z 0000000180017bc0 f i HPSF.obj
 0001:00016bd0       ?_Check_offset@?$basic_string@_SU?$char_traits@_S@std@@V?$allocator@_S@2@@std@@QEBAX_K@Z 0000000180017bd0 f i datast.obj
 0001:00016bd0       ?_Check_offset@?$basic_string@DU?$char_traits@D@std@@V?$allocator@D@2@@std@@QEBAX_K@Z 0000000180017bd0 f i assert_assist.obj
 0001:00016bd0       ?_Check_offset@?$basic_string@_WU?$char_traits@_W@std@@V?$allocator@_W@2@@std@@QEBAX_K@Z 0000000180017bd0 f i cbridge.obj
 0001:00016bf0       ?_Xlen@?$basic_string@_SU?$char_traits@_S@std@@V?$allocator@_S@2@@std@@QEBAXXZ 0000000180017bf0 f i datast.obj
 0001:00016bf0       ?_Xlen@?$basic_string@_WU?$char_traits@_W@std@@V?$allocator@_W@2@@std@@QEBAXXZ 0000000180017bf0 f i cbridge.obj
 0001:00016bf0       ?_Xlen@?$basic_string@DU?$char_traits@D@std@@V?$allocator@D@2@@std@@QEBAXXZ 0000000180017bf0 f i assert_assist.obj
 0001:00016c10       ?_Inside@?$basic_string@DU?$char_traits@D@std@@V?$allocator@D@2@@std@@QEAA_NPEBD@Z 0000000180017c10 f i assert_assist.obj
 0001:00016c50       ?_Grow@?$basic_string@DU?$char_traits@D@std@@V?$allocator@D@2@@std@@QEAA_N_K_N@Z 0000000180017c50 f i assert_assist.obj
 0001:00016ce0       ?_Eos@?$basic_string@DU?$char_traits@D@std@@V?$allocator@D@2@@std@@QEAAX_K@Z 0000000180017ce0 f i assert_assist.obj
 0001:00016d00       ?_Clamp_suffix_size@?$basic_string@_SU?$char_traits@_S@std@@V?$allocator@_S@2@@std@@QEBA_K_K0@Z 0000000180017d00 f i datast.obj
 0001:00016d00       ?_Clamp_suffix_size@?$basic_string@_WU?$char_traits@_W@std@@V?$allocator@_W@2@@std@@QEBA_K_K0@Z 0000000180017d00 f i cbridge.obj
 0001:00016d00       ?_Clamp_suffix_size@?$basic_string@DU?$char_traits@D@std@@V?$allocator@D@2@@std@@QEBA_K_K0@Z 0000000180017d00 f i assert_assist.obj
 0001:00016d10       ?erase@?$basic_string@DU?$char_traits@D@std@@V?$allocator@D@2@@std@@QEAAAEAV12@_K0@Z 0000000180017d10 f i assert_assist.obj
 0001:00016de0       ?erase@?$basic_string@DU?$char_traits@D@std@@V?$allocator@D@2@@std@@QEAAAEAV12@_K@Z 0000000180017de0 f i assert_assist.obj
 0001:00016e20       ?_Getstate@?$basic_stringbuf@DU?$char_traits@D@std@@V?$allocator@D@2@@std@@AEAAHH@Z 0000000180017e20 f i assert_assist.obj
 0001:00016e60       ?_Init@?$basic_stringbuf@DU?$char_traits@D@std@@V?$allocator@D@2@@std@@IEAAXPEBD_KH@Z 0000000180017e60 f i assert_assist.obj
 0001:00016f60       ?_Xran@?$basic_string@DU?$char_traits@D@std@@V?$allocator@D@2@@std@@QEBAXXZ 0000000180017f60 f i assert_assist.obj
 0001:00016f60       ?_Xran@?$basic_string@_WU?$char_traits@_W@std@@V?$allocator@_W@2@@std@@QEBAXXZ 0000000180017f60 f i cbridge.obj
 0001:00016f60       ?_Xran@?$basic_string@_SU?$char_traits@_S@std@@V?$allocator@_S@2@@std@@QEBAXXZ 0000000180017f60 f i datast.obj
 0001:00016f80       ?_Copy@?$basic_string@DU?$char_traits@D@std@@V?$allocator@D@2@@std@@QEAAX_K0@Z 0000000180017f80 f i assert_assist.obj
 0001:00017110       ?max_size@?$basic_string@DU?$char_traits@D@std@@V?$allocator@D@2@@std@@QEBA_KXZ 0000000180018110 f i assert_assist.obj
 0001:00017120       ?max_size@?$allocator@D@std@@QEBA_KXZ 0000000180018120 f i assert_assist.obj
 0001:00017120       ?max_size@?$_Wrap_alloc@V?$allocator@D@std@@@std@@QEBA_KU_Nil@2@@Z 0000000180018120 f i assert_assist.obj
 0001:00017120       ?max_size@?$allocator_traits@V?$allocator@D@std@@@std@@SA_KAEBV?$allocator@D@2@@Z 0000000180018120 f i assert_assist.obj
 0001:00017130       ??$write_to_stream@$$BY0BD@D@Private@@YAAEBVstr_stream@@AEBV1@AEAY0BD@$$CBD@Z 0000000180018130 f i assert_assist.obj
 0001:00017130       ??$?6$$BY0BD@D@@YAAEBVstr_stream@@AEBV0@AEAY0BD@$$CBD@Z 0000000180018130 f i assert_assist.obj
 0001:00017160       ??$?6PEBD@@YAAEBVstr_stream@@AEBV0@AEBQEBD@Z 0000000180018160 f i assert_assist.obj
 0001:00017160       ??$write_to_stream@PEBD@Private@@YAAEBVstr_stream@@AEBV1@AEBQEBD@Z 0000000180018160 f i assert_assist.obj
 0001:00017180       ??$?6$$BY09D@@YAAEBVstr_stream@@AEBV0@AEAY09$$CBD@Z 0000000180018180 f i assert_assist.obj
 0001:00017180       ??$write_to_stream@$$BY09D@Private@@YAAEBVstr_stream@@AEBV1@AEAY09$$CBD@Z 0000000180018180 f i assert_assist.obj
 0001:000171b0       ??$?6H@@YAAEBVstr_stream@@AEBV0@AEBH@Z 00000001800181b0 f i assert_assist.obj
 0001:000171b0       ??$write_to_stream@H@Private@@YAAEBVstr_stream@@AEBV1@AEBH@Z 00000001800181b0 f i assert_assist.obj
 0001:000171d0       ??$write_to_stream@$$BY02D@Private@@YAAEBVstr_stream@@AEBV1@AEAY02$$CBD@Z 00000001800181d0 f i assert_assist.obj
 0001:000171d0       ??$?6$$BY02D@@YAAEBVstr_stream@@AEBV0@AEAY02$$CBD@Z 00000001800181d0 f i assert_assist.obj
 0001:00017200       ??$?6$$BY01D@@YAAEBVstr_stream@@AEBV0@AEAY01$$CBD@Z 0000000180018200 f i assert_assist.obj
 0001:00017200       ??$write_to_stream@$$BY01D@Private@@YAAEBVstr_stream@@AEBV1@AEAY01$$CBD@Z 0000000180018200 f i assert_assist.obj
 0001:00017230       ??$?6$$BY04D@@YAAEBVstr_stream@@AEBV0@AEAY04$$CBD@Z 0000000180018230 f i assert_assist.obj
 0001:00017230       ??$write_to_stream@$$BY04D@Private@@YAAEBVstr_stream@@AEBV1@AEAY04$$CBD@Z 0000000180018230 f i assert_assist.obj
 0001:00017260       ??$?6$$BY0BP@D@@YAAEBVstr_stream@@AEBV0@AEAY0BP@$$CBD@Z 0000000180018260 f i assert_assist.obj
 0001:00017260       ??$write_to_stream@$$BY0BP@D@Private@@YAAEBVstr_stream@@AEBV1@AEAY0BP@$$CBD@Z 0000000180018260 f i assert_assist.obj
 0001:00017290       ??$construct@PEAUHyperLink@xlslib_core@@AEAPEAU12@@?$_Wrap_alloc@V?$allocator@PEAUHyperLink@xlslib_core@@@std@@@std@@QEAAXPEAPEAUHyperLink@xlslib_core@@AEAPEAU23@@Z 0000000180018290 f i sheetrec.obj
 0001:00017290       ??$construct@PEBVlabel_t@xlslib_core@@PEBV12@@?$_Wrap_alloc@V?$allocator@PEBVlabel_t@xlslib_core@@@std@@@std@@QEAAXPEAPEBVlabel_t@xlslib_core@@$$QEAPEBV23@@Z 0000000180018290 f i globalrec.obj
 0001:00017290       ??$construct@PEAVfont_t@xlslib_core@@AEAPEAV12@@?$allocator_traits@V?$allocator@PEAVfont_t@xlslib_core@@@std@@@std@@SAXAEAV?$allocator@PEAVfont_t@xlslib_core@@@1@PEAPEAVfont_t@xlslib_core@@AEAPEAV34@@Z 0000000180018290 f i globalrec.obj
 0001:00017290       ??$construct@PEAUDataValidation@xlslib_core@@AEAPEAU12@@?$allocator_traits@V?$allocator@PEAUDataValidation@xlslib_core@@@std@@@std@@SAXAEAV?$allocator@PEAUDataValidation@xlslib_core@@@1@PEAPEAUDataValidation@xlslib_core@@AEAPEAU34@@Z 0000000180018290 f i sheetrec.obj
 0001:00017290       ??$construct@PEAVxf_t@xlslib_core@@AEAPEAV12@@?$allocator@PEAVxf_t@xlslib_core@@@std@@QEAAXPEAPEAVxf_t@xlslib_core@@AEAPEAV23@@Z 0000000180018290 f i globalrec.obj
 0001:00017290       ??$construct@PEAVworksheet@xlslib_core@@AEBQEAV12@@?$_Wrap_alloc@V?$allocator@PEAVworksheet@xlslib_core@@@std@@@std@@QEAAXPEAPEAVworksheet@xlslib_core@@AEBQEAV23@@Z 0000000180018290 f i workbook.obj
 0001:00017290       ??$construct@PEAVxf_t@xlslib_core@@AEBQEAV12@@?$allocator@PEAVxf_t@xlslib_core@@@std@@QEAAXPEAPEAVxf_t@xlslib_core@@AEBQEAV23@@Z 0000000180018290 f i globalrec.obj
 0001:00017290       ??$construct@PEAVCUnit@xlslib_core@@AEBQEAV12@@?$allocator@PEAVCUnit@xlslib_core@@@std@@QEAAXPEAPEAVCUnit@xlslib_core@@AEBQEAV23@@Z 0000000180018290 f i datast.obj
 0001:00017290       ??$construct@PEAVworksheet@xlslib_core@@AEAPEAV12@@?$_Wrap_alloc@V?$allocator@PEAVworksheet@xlslib_core@@@std@@@std@@QEAAXPEAPEAVworksheet@xlslib_core@@AEAPEAV23@@Z 0000000180018290 f i workbook.obj
 0001:00017290       ??$construct@PEAVworksheet@xlslib_core@@AEAPEAV12@@?$allocator_traits@V?$allocator@PEAVworksheet@xlslib_core@@@std@@@std@@SAXAEAV?$allocator@PEAVworksheet@xlslib_core@@@1@PEAPEAVworksheet@xlslib_core@@AEAPEAV34@@Z 0000000180018290 f i workbook.obj
 0001:00017290       ??$construct@PEAU?$_Tree_node@PEAUcolinfo_t@xlslib_core@@PEAX@std@@AEAPEAU12@@?$allocator@U?$_Tree_node@PEAUcolinfo_t@xlslib_core@@PEAX@std@@@std@@QEAAXPEAPEAU?$_Tree_node@PEAUcolinfo_t@xlslib_core@@PEAX@1@AEAPEAU21@@Z 0000000180018290 f i sheetrec.obj
 0001:00017290       ??$construct@PEAUHyperLink@xlslib_core@@AEBQEAU12@@?$allocator@PEAUHyperLink@xlslib_core@@@std@@QEAAXPEAPEAUHyperLink@xlslib_core@@AEBQEAU23@@Z 0000000180018290 f i sheetrec.obj
 0001:00017290       ??$construct@PEA_SAEAPEA_S@?$_Wrap_alloc@V?$allocator@_S@std@@@std@@QEAAXPEAPEA_SAEAPEA_S@Z 0000000180018290 f i datast.obj
 0001:00017290       ??$construct@PEADAEAPEAD@?$allocator_traits@V?$allocator@D@std@@@std@@SAXAEAV?$allocator@D@1@PEAPEADAEAPEAD@Z 0000000180018290 f i assert_assist.obj
 0001:00017290       ??$construct@PEAVCUnit@xlslib_core@@AEAPEAV12@@?$allocator_traits@V?$allocator@PEAVCUnit@xlslib_core@@@std@@@std@@SAXAEAV?$allocator@PEAVCUnit@xlslib_core@@@1@PEAPEAVCUnit@xlslib_core@@AEAPEAV34@@Z 0000000180018290 f i datast.obj
 0001:00017290       ??$construct@PEAVrange_t@xlslib_core@@AEBQEAV12@@?$allocator_traits@V?$allocator@PEAVrange_t@xlslib_core@@@std@@@std@@SAXAEAV?$allocator@PEAVrange_t@xlslib_core@@@1@PEAPEAVrange_t@xlslib_core@@AEBQEAV34@@Z 0000000180018290 f i sheetrec.obj
 0001:00017290       ??$construct@PEAU?$_List_node@PEAV?$basic_string@DU?$char_traits@D@std@@V?$allocator@D@2@@std@@PEAX@std@@AEAPEAU12@@?$_Wrap_alloc@V?$allocator@U?$_List_node@PEAV?$basic_string@DU?$char_traits@D@std@@V?$allocator@D@2@@std@@PEAX@std@@@std@@@std@@QEAAXPEAPEAU?$_List_node@PEAV?$basic_string@DU?$char_traits@D@std@@V?$allocator@D@2@@std@@PEAX@1@AEAPEAU21@@Z 0000000180018290 f i olefs.obj
 0001:00017290       ??$construct@PEAUstyle_t@xlslib_core@@AEAPEAU12@@?$_Wrap_alloc@V?$allocator@PEAUstyle_t@xlslib_core@@@std@@@std@@QEAAXPEAPEAUstyle_t@xlslib_core@@AEAPEAU23@@Z 0000000180018290 f i globalrec.obj
 0001:00017290       ??$construct@PEAU?$_Tree_node@PEAVrowheight_t@xlslib_core@@PEAX@std@@AEAPEAU12@@?$allocator_traits@V?$allocator@U?$_Tree_node@PEAVrowheight_t@xlslib_core@@PEAX@std@@@std@@@std@@SAXAEAV?$allocator@U?$_Tree_node@PEAVrowheight_t@xlslib_core@@PEAX@std@@@1@PEAPEAU?$_Tree_node@PEAVrowheight_t@xlslib_core@@PEAX@1@AEAPEAU31@@Z 0000000180018290 f i sheetrec.obj
 0001:00017290       ??$construct@_K_K@?$allocator@_K@std@@QEAAXPEA_K$$QEA_K@Z 0000000180018290 f i sheetrec.obj
 0001:00017290       ??$construct@PEAVCUnit@xlslib_core@@AEAPEAV12@@?$allocator@PEAVCUnit@xlslib_core@@@std@@QEAAXPEAPEAVCUnit@xlslib_core@@AEAPEAV23@@Z 0000000180018290 f i datast.obj
 0001:00017290       ??$construct@_K_K@?$_Wrap_alloc@V?$allocator@_K@std@@@std@@QEAAXPEA_K$$QEA_K@Z 0000000180018290 f i sheetrec.obj
 0001:00017290       ??$construct@PEAVrange@xlslib_core@@AEAPEAV12@@?$_Wrap_alloc@V?$allocator@PEAVrange@xlslib_core@@@std@@@std@@QEAAXPEAPEAVrange@xlslib_core@@AEAPEAV23@@Z 0000000180018290 f i sheetrec.obj
 0001:00017290       ??$construct@PEAU?$_Tree_node@PEAVHPSFitem@xlslib_core@@PEAX@std@@AEAPEAU12@@?$_Wrap_alloc@V?$allocator@U?$_Tree_node@PEAVHPSFitem@xlslib_core@@PEAX@std@@@std@@@std@@QEAAXPEAPEAU?$_Tree_node@PEAVHPSFitem@xlslib_core@@PEAX@1@AEAPEAU21@@Z 0000000180018290 f i HPSF.obj
 0001:00017290       ??$construct@PEAVrowheight_t@xlslib_core@@AEBQEAV12@@?$allocator@U?$_Tree_node@PEAVrowheight_t@xlslib_core@@PEAX@std@@@std@@QEAAXPEAPEAVrowheight_t@xlslib_core@@AEBQEAV23@@Z 0000000180018290 f i sheetrec.obj
 0001:00017290       ??$construct@PEAUDataValidation@xlslib_core@@AEBQEAU12@@?$allocator_traits@V?$allocator@PEAUDataValidation@xlslib_core@@@std@@@std@@SAXAEAV?$allocator@PEAUDataValidation@xlslib_core@@@1@PEAPEAUDataValidation@xlslib_core@@AEBQEAU34@@Z 0000000180018290 f i sheetrec.obj
 0001:00017290       ??$construct@PEADAEAPEAD@?$allocator@D@std@@QEAAXPEAPEADAEAPEAD@Z 0000000180018290 f i assert_assist.obj
 0001:00017290       ??$construct@PEAUDataValidation@xlslib_core@@AEBQEAU12@@?$allocator@PEAUDataValidation@xlslib_core@@@std@@QEAAXPEAPEAUDataValidation@xlslib_core@@AEBQEAU23@@Z 0000000180018290 f i sheetrec.obj
 0001:00017290       ??$construct@PEAVformat_t@xlslib_core@@AEAPEAV12@@?$allocator@PEAVformat_t@xlslib_core@@@std@@QEAAXPEAPEAVformat_t@xlslib_core@@AEAPEAV23@@Z 0000000180018290 f i globalrec.obj
 0001:00017290       ??$construct@PEAVboundsheet_t@xlslib_core@@AEBQEAV12@@?$allocator@PEAVboundsheet_t@xlslib_core@@@std@@QEAAXPEAPEAVboundsheet_t@xlslib_core@@AEBQEAV23@@Z 0000000180018290 f i globalrec.obj
 0001:00017290       ??$construct@PEAVformat_t@xlslib_core@@AEBQEAV12@@?$allocator@PEAVformat_t@xlslib_core@@@std@@QEAAXPEAPEAVformat_t@xlslib_core@@AEBQEAV23@@Z 0000000180018290 f i globalrec.obj
 0001:00017290       ??$construct@PEAVformula_t@xlslib_core@@AEBQEAV12@@?$allocator_traits@V?$allocator@PEAVformula_t@xlslib_core@@@std@@@std@@SAXAEAV?$allocator@PEAVformula_t@xlslib_core@@@1@PEAPEAVformula_t@xlslib_core@@AEBQEAV34@@Z 0000000180018290 f i sheetrec.obj
 0001:00017290       ??$construct@PEBVlabel_t@xlslib_core@@PEBV12@@?$allocator_traits@V?$allocator@PEBVlabel_t@xlslib_core@@@std@@@std@@SAXAEAV?$allocator@PEBVlabel_t@xlslib_core@@@1@PEAPEBVlabel_t@xlslib_core@@$$QEAPEBV34@@Z 0000000180018290 f i globalrec.obj
 0001:00017290       ??$construct@PEADAEAPEAD@?$_Wrap_alloc@V?$allocator@D@std@@@std@@QEAAXPEAPEADAEAPEAD@Z 0000000180018290 f i assert_assist.obj
 0001:00017290       ??$construct@_K_K@?$allocator_traits@V?$allocator@_K@std@@@std@@SAXAEAV?$allocator@_K@1@PEA_K$$QEA_K@Z 0000000180018290 f i sheetrec.obj
 0001:00017290       ??$construct@PEAVCOleProp@xlslib_core@@AEBQEAV12@@?$allocator@PEAVCOleProp@xlslib_core@@@std@@QEAAXPEAPEAVCOleProp@xlslib_core@@AEBQEAV23@@Z 0000000180018290 f i olefs.obj
 0001:00017290       ??$construct@PEAVrange_t@xlslib_core@@AEBQEAV12@@?$allocator@PEAVrange_t@xlslib_core@@@std@@QEAAXPEAPEAVrange_t@xlslib_core@@AEBQEAV23@@Z 0000000180018290 f i sheetrec.obj
 0001:00017290       ??$construct@PEAV?$basic_string@DU?$char_traits@D@std@@V?$allocator@D@2@@std@@AEBQEAV12@@?$allocator_traits@V?$allocator@U?$_List_node@PEAV?$basic_string@DU?$char_traits@D@std@@V?$allocator@D@2@@std@@PEAX@std@@@std@@@std@@SAXAEAV?$allocator@U?$_List_node@PEAV?$basic_string@DU?$char_traits@D@std@@V?$allocator@D@2@@std@@PEAX@std@@@1@PEAPEAV?$basic_string@DU?$char_traits@D@std@@V?$allocator@D@2@@1@AEBQEAV31@@Z 0000000180018290 f i olefs.obj
 0001:00017290       ??$construct@PEAVxf_t@xlslib_core@@AEAPEAV12@@?$allocator_traits@V?$allocator@PEAVxf_t@xlslib_core@@@std@@@std@@SAXAEAV?$allocator@PEAVxf_t@xlslib_core@@@1@PEAPEAVxf_t@xlslib_core@@AEAPEAV34@@Z 0000000180018290 f i globalrec.obj
 0001:00017290       ??$construct@PEAU?$_Tree_node@PEAVHPSFitem@xlslib_core@@PEAX@std@@AEAPEAU12@@?$allocator_traits@V?$allocator@U?$_Tree_node@PEAVHPSFitem@xlslib_core@@PEAX@std@@@std@@@std@@SAXAEAV?$allocator@U?$_Tree_node@PEAVHPSFitem@xlslib_core@@PEAX@std@@@1@PEAPEAU?$_Tree_node@PEAVHPSFitem@xlslib_core@@PEAX@1@AEAPEAU31@@Z 0000000180018290 f i HPSF.obj
 0001:00017290       ??$construct@PEAVrange@xlslib_core@@AEBQEAV12@@?$allocator@PEAVrange@xlslib_core@@@std@@QEAAXPEAPEAVrange@xlslib_core@@AEBQEAV23@@Z 0000000180018290 f i sheetrec.obj
 0001:00017290       ??$construct@PEAU?$_Tree_node@PEAVcell_t@xlslib_core@@PEAX@std@@AEAPEAU12@@?$allocator@U?$_Tree_node@PEAVcell_t@xlslib_core@@PEAX@std@@@std@@QEAAXPEAPEAU?$_Tree_node@PEAVcell_t@xlslib_core@@PEAX@1@AEAPEAU21@@Z 0000000180018290 f i sheetrec.obj
 0001:00017290       ??$construct@PEAVxf_t@xlslib_core@@AEAPEAV12@@?$_Wrap_alloc@V?$allocator@PEAVxf_t@xlslib_core@@@std@@@std@@QEAAXPEAPEAVxf_t@xlslib_core@@AEAPEAV23@@Z 0000000180018290 f i globalrec.obj
 0001:00017290       ??$construct@PEAUDataValidation@xlslib_core@@AEAPEAU12@@?$allocator@PEAUDataValidation@xlslib_core@@@std@@QEAAXPEAPEAUDataValidation@xlslib_core@@AEAPEAU23@@Z 0000000180018290 f i sheetrec.obj
 0001:00017290       ??$construct@PEAVworksheet@xlslib_core@@AEAPEAV12@@?$allocator@PEAVworksheet@xlslib_core@@@std@@QEAAXPEAPEAVworksheet@xlslib_core@@AEAPEAV23@@Z 0000000180018290 f i workbook.obj
 0001:00017290       ??$construct@PEAVHPSFitem@xlslib_core@@AEBQEAV12@@?$allocator_traits@V?$allocator@U?$_Tree_node@PEAVHPSFitem@xlslib_core@@PEAX@std@@@std@@@std@@SAXAEAV?$allocator@U?$_Tree_node@PEAVHPSFitem@xlslib_core@@PEAX@std@@@1@PEAPEAVHPSFitem@xlslib_core@@AEBQEAV34@@Z 0000000180018290 f i HPSF.obj
 0001:00017290       ??$construct@PEAU?$_Tree_node@PEAVcell_t@xlslib_core@@PEAX@std@@AEAPEAU12@@?$_Wrap_alloc@V?$allocator@U?$_Tree_node@PEAVcell_t@xlslib_core@@PEAX@std@@@std@@@std@@QEAAXPEAPEAU?$_Tree_node@PEAVcell_t@xlslib_core@@PEAX@1@AEAPEAU21@@Z 0000000180018290 f i sheetrec.obj
 0001:00017290       ??$construct@PEAUstyle_t@xlslib_core@@AEBQEAU12@@?$allocator@PEAUstyle_t@xlslib_core@@@std@@QEAAXPEAPEAUstyle_t@xlslib_core@@AEBQEAU23@@Z 0000000180018290 f i globalrec.obj
 0001:00017290       ??$construct@PEAU?$_List_node@PEAV?$basic_string@DU?$char_traits@D@std@@V?$allocator@D@2@@std@@PEAX@std@@AEAPEAU12@@?$allocator_traits@V?$allocator@U?$_List_node@PEAV?$basic_string@DU?$char_traits@D@std@@V?$allocator@D@2@@std@@PEAX@std@@@std@@@std@@SAXAEAV?$allocator@U?$_List_node@PEAV?$basic_string@DU?$char_traits@D@std@@V?$allocator@D@2@@std@@PEAX@std@@@1@PEAPEAU?$_List_node@PEAV?$basic_string@DU?$char_traits@D@std@@V?$allocator@D@2@@std@@PEAX@1@AEAPEAU31@@Z 0000000180018290 f i olefs.obj
 0001:00017290       ??$construct@PEAU?$_Tree_node@PEAVrowheight_t@xlslib_core@@PEAX@std@@AEAPEAU12@@?$_Wrap_alloc@V?$allocator@U?$_Tree_node@PEAVrowheight_t@xlslib_core@@PEAX@std@@@std@@@std@@QEAAXPEAPEAU?$_Tree_node@PEAVrowheight_t@xlslib_core@@PEAX@1@AEAPEAU21@@Z 0000000180018290 f i sheetrec.obj
 0001:00017290       ??$construct@PEAV?$basic_string@DU?$char_traits@D@std@@V?$allocator@D@2@@std@@AEBQEAV12@@?$_Wrap_alloc@V?$allocator@U?$_List_node@PEAV?$basic_string@DU?$char_traits@D@std@@V?$allocator@D@2@@std@@PEAX@std@@@std@@@std@@QEAAXPEAPEAV?$basic_string@DU?$char_traits@D@std@@V?$allocator@D@2@@1@AEBQEAV21@@Z 0000000180018290 f i olefs.obj
 0001:00017290       ??$construct@PEAVfont_t@xlslib_core@@AEBQEAV12@@?$allocator_traits@V?$allocator@PEAVfont_t@xlslib_core@@@std@@@std@@SAXAEAV?$allocator@PEAVfont_t@xlslib_core@@@1@PEAPEAVfont_t@xlslib_core@@AEBQEAV34@@Z 0000000180018290 f i globalrec.obj
 0001:00017290       ??$construct@PEAUHyperLink@xlslib_core@@AEAPEAU12@@?$allocator@PEAUHyperLink@xlslib_core@@@std@@QEAAXPEAPEAUHyperLink@xlslib_core@@AEAPEAU23@@Z 0000000180018290 f i sheetrec.obj
 0001:00017290       ??$construct@PEAVformula_t@xlslib_core@@AEBQEAV12@@?$_Wrap_alloc@V?$allocator@PEAVformula_t@xlslib_core@@@std@@@std@@QEAAXPEAPEAVformula_t@xlslib_core@@AEBQEAV23@@Z 0000000180018290 f i sheetrec.obj
 0001:00017290       ??$construct@PEAVcell_t@xlslib_core@@AEBQEAV12@@?$_Wrap_alloc@V?$allocator@U?$_Tree_node@PEAVcell_t@xlslib_core@@PEAX@std@@@std@@@std@@QEAAXPEAPEAVcell_t@xlslib_core@@AEBQEAV23@@Z 0000000180018290 f i sheetrec.obj
 0001:00017290       ??$construct@PEA_WAEAPEA_W@?$_Wrap_alloc@V?$allocator@_W@std@@@std@@QEAAXPEAPEA_WAEAPEA_W@Z 0000000180018290 f i cbridge.obj
 0001:00017290       ??$construct@PEAVCUnit@xlslib_core@@AEAPEAV12@@?$_Wrap_alloc@V?$allocator@PEAVCUnit@xlslib_core@@@std@@@std@@QEAAXPEAPEAVCUnit@xlslib_core@@AEAPEAV23@@Z 0000000180018290 f i datast.obj
 0001:00017290       ??$construct@PEAUstyle_t@xlslib_core@@AEAPEAU12@@?$allocator_traits@V?$allocator@PEAUstyle_t@xlslib_core@@@std@@@std@@SAXAEAV?$allocator@PEAUstyle_t@xlslib_core@@@1@PEAPEAUstyle_t@xlslib_core@@AEAPEAU34@@Z 0000000180018290 f i globalrec.obj
 0001:00017290       ??$construct@PEAU?$_Tree_node@U?$pair@PEAVxf_t@xlslib_core@@UborderedXft@2@@std@@PEAX@std@@AEAPEAU12@@?$_Wrap_alloc@V?$allocator@U?$_Tree_node@U?$pair@PEAVxf_t@xlslib_core@@UborderedXft@2@@std@@PEAX@std@@@std@@@std@@QEAAXPEAPEAU?$_Tree_node@U?$pair@PEAVxf_t@xlslib_core@@UborderedXft@2@@std@@PEAX@1@AEAPEAU21@@Z 0000000180018290 f i range.obj
 0001:00017290       ??$construct@PEAUcolinfo_t@xlslib_core@@AEBQEAU12@@?$allocator_traits@V?$allocator@U?$_Tree_node@PEAUcolinfo_t@xlslib_core@@PEAX@std@@@std@@@std@@SAXAEAV?$allocator@U?$_Tree_node@PEAUcolinfo_t@xlslib_core@@PEAX@std@@@1@PEAPEAUcolinfo_t@xlslib_core@@AEBQEAU34@@Z 0000000180018290 f i sheetrec.obj
 0001:00017290       ??$construct@PEAUstyle_t@xlslib_core@@AEBQEAU12@@?$allocator_traits@V?$allocator@PEAUstyle_t@xlslib_core@@@std@@@std@@SAXAEAV?$allocator@PEAUstyle_t@xlslib_core@@@1@PEAPEAUstyle_t@xlslib_core@@AEBQEAU34@@Z 0000000180018290 f i globalrec.obj
 0001:00017290       ??$construct@PEAU?$_Tree_node@PEAVHPSFitem@xlslib_core@@PEAX@std@@AEAPEAU12@@?$allocator@U?$_Tree_node@PEAVHPSFitem@xlslib_core@@PEAX@std@@@std@@QEAAXPEAPEAU?$_Tree_node@PEAVHPSFitem@xlslib_core@@PEAX@1@AEAPEAU21@@Z 0000000180018290 f i HPSF.obj
 0001:00017290       ??$construct@PEAUDataValidation@xlslib_core@@AEBQEAU12@@?$_Wrap_alloc@V?$allocator@PEAUDataValidation@xlslib_core@@@std@@@std@@QEAAXPEAPEAUDataValidation@xlslib_core@@AEBQEAU23@@Z 0000000180018290 f i sheetrec.obj
 0001:00017290       ??$construct@PEAVfont_t@xlslib_core@@AEAPEAV12@@?$allocator@PEAVfont_t@xlslib_core@@@std@@QEAAXPEAPEAVfont_t@xlslib_core@@AEAPEAV23@@Z 0000000180018290 f i globalrec.obj
 0001:00017290       ??$construct@PEAVrowheight_t@xlslib_core@@AEBQEAV12@@?$_Wrap_alloc@V?$allocator@U?$_Tree_node@PEAVrowheight_t@xlslib_core@@PEAX@std@@@std@@@std@@QEAAXPEAPEAVrowheight_t@xlslib_core@@AEBQEAV23@@Z 0000000180018290 f i sheetrec.obj
 0001:00017290       ??$construct@NAEBN@?$_Wrap_alloc@V?$allocator@N@std@@@std@@QEAAXPEANAEBN@Z 0000000180018290 f i cbridge.obj
 0001:00017290       ??$construct@PEBVlabel_t@xlslib_core@@PEBV12@@?$allocator@PEBVlabel_t@xlslib_core@@@std@@QEAAXPEAPEBVlabel_t@xlslib_core@@$$QEAPEBV23@@Z 0000000180018290 f i globalrec.obj
 0001:00017290       ??$construct@PEAVHPSFitem@xlslib_core@@AEBQEAV12@@?$_Wrap_alloc@V?$allocator@U?$_Tree_node@PEAVHPSFitem@xlslib_core@@PEAX@std@@@std@@@std@@QEAAXPEAPEAVHPSFitem@xlslib_core@@AEBQEAV23@@Z 0000000180018290 f i HPSF.obj
 0001:00017290       ??$construct@PEAVformula_t@xlslib_core@@AEBQEAV12@@?$allocator@PEAVformula_t@xlslib_core@@@std@@QEAAXPEAPEAVformula_t@xlslib_core@@AEBQEAV23@@Z 0000000180018290 f i sheetrec.obj
 0001:00017290       ??$construct@NAEAN@?$_Wrap_alloc@V?$allocator@N@std@@@std@@QEAAXPEANAEAN@Z 0000000180018290 f i cbridge.obj
 0001:00017290       ??$construct@PEAVrange_t@xlslib_core@@AEAPEAV12@@?$_Wrap_alloc@V?$allocator@PEAVrange_t@xlslib_core@@@std@@@std@@QEAAXPEAPEAVrange_t@xlslib_core@@AEAPEAV23@@Z 0000000180018290 f i sheetrec.obj
 0001:00017290       ??$construct@PEAV?$basic_string@DU?$char_traits@D@std@@V?$allocator@D@2@@std@@AEBQEAV12@@?$allocator@U?$_List_node@PEAV?$basic_string@DU?$char_traits@D@std@@V?$allocator@D@2@@std@@PEAX@std@@@std@@QEAAXPEAPEAV?$basic_string@DU?$char_traits@D@std@@V?$allocator@D@2@@1@AEBQEAV21@@Z 0000000180018290 f i olefs.obj
 0001:00017290       ??$construct@PEAVboundsheet_t@xlslib_core@@AEAPEAV12@@?$allocator@PEAVboundsheet_t@xlslib_core@@@std@@QEAAXPEAPEAVboundsheet_t@xlslib_core@@AEAPEAV23@@Z 0000000180018290 f i globalrec.obj
 0001:00017290       ??$construct@NAEAN@?$allocator@N@std@@QEAAXPEANAEAN@Z 0000000180018290 f i cbridge.obj
 0001:00017290       ??$construct@PEAVrange@xlslib_core@@AEAPEAV12@@?$allocator_traits@V?$allocator@PEAVrange@xlslib_core@@@std@@@std@@SAXAEAV?$allocator@PEAVrange@xlslib_core@@@1@PEAPEAVrange@xlslib_core@@AEAPEAV34@@Z 0000000180018290 f i sheetrec.obj
 0001:00017290       ??$construct@PEAU?$_Tree_node@U?$pair@PEAVxf_t@xlslib_core@@UborderedXft@2@@std@@PEAX@std@@AEAPEAU12@@?$allocator@U?$_Tree_node@U?$pair@PEAVxf_t@xlslib_core@@UborderedXft@2@@std@@PEAX@std@@@std@@QEAAXPEAPEAU?$_Tree_node@U?$pair@PEAVxf_t@xlslib_core@@UborderedXft@2@@std@@PEAX@1@AEAPEAU21@@Z 0000000180018290 f i range.obj
 0001:00017290       ??$construct@PEAVCOleProp@xlslib_core@@AEAPEAV12@@?$_Wrap_alloc@V?$allocator@PEAVCOleProp@xlslib_core@@@std@@@std@@QEAAXPEAPEAVCOleProp@xlslib_core@@AEAPEAV23@@Z 0000000180018290 f i olefs.obj
 0001:00017290       ??$construct@PEAUstyle_t@xlslib_core@@AEBQEAU12@@?$_Wrap_alloc@V?$allocator@PEAUstyle_t@xlslib_core@@@std@@@std@@QEAAXPEAPEAUstyle_t@xlslib_core@@AEBQEAU23@@Z 0000000180018290 f i globalrec.obj
 0001:00017290       ??$construct@NAEBN@?$allocator@N@std@@QEAAXPEANAEBN@Z 0000000180018290 f i cbridge.obj
 0001:00017290       ??$construct@PEAVCUnit@xlslib_core@@AEBQEAV12@@?$allocator_traits@V?$allocator@PEAVCUnit@xlslib_core@@@std@@@std@@SAXAEAV?$allocator@PEAVCUnit@xlslib_core@@@1@PEAPEAVCUnit@xlslib_core@@AEBQEAV34@@Z 0000000180018290 f i datast.obj
 0001:00017290       ??$construct@PEAUcolinfo_t@xlslib_core@@AEBQEAU12@@?$_Wrap_alloc@V?$allocator@U?$_Tree_node@PEAUcolinfo_t@xlslib_core@@PEAX@std@@@std@@@std@@QEAAXPEAPEAUcolinfo_t@xlslib_core@@AEBQEAU23@@Z 0000000180018290 f i sheetrec.obj
 0001:00017290       ??$construct@PEAUDataValidation@xlslib_core@@AEAPEAU12@@?$_Wrap_alloc@V?$allocator@PEAUDataValidation@xlslib_core@@@std@@@std@@QEAAXPEAPEAUDataValidation@xlslib_core@@AEAPEAU23@@Z 0000000180018290 f i sheetrec.obj
 0001:00017290       ??$construct@PEAVcell_t@xlslib_core@@AEBQEAV12@@?$allocator_traits@V?$allocator@U?$_Tree_node@PEAVcell_t@xlslib_core@@PEAX@std@@@std@@@std@@SAXAEAV?$allocator@U?$_Tree_node@PEAVcell_t@xlslib_core@@PEAX@std@@@1@PEAPEAVcell_t@xlslib_core@@AEBQEAV34@@Z 0000000180018290 f i sheetrec.obj
 0001:00017290       ??$construct@PEAVCUnit@xlslib_core@@AEBQEAV12@@?$_Wrap_alloc@V?$allocator@PEAVCUnit@xlslib_core@@@std@@@std@@QEAAXPEAPEAVCUnit@xlslib_core@@AEBQEAV23@@Z 0000000180018290 f i datast.obj
 0001:00017290       ??$construct@PEAU?$_Tree_node@PEAUcolinfo_t@xlslib_core@@PEAX@std@@AEAPEAU12@@?$allocator_traits@V?$allocator@U?$_Tree_node@PEAUcolinfo_t@xlslib_core@@PEAX@std@@@std@@@std@@SAXAEAV?$allocator@U?$_Tree_node@PEAUcolinfo_t@xlslib_core@@PEAX@std@@@1@PEAPEAU?$_Tree_node@PEAUcolinfo_t@xlslib_core@@PEAX@1@AEAPEAU31@@Z 0000000180018290 f i sheetrec.obj
 0001:00017290       ??$construct@PEAVformat_t@xlslib_core@@AEBQEAV12@@?$_Wrap_alloc@V?$allocator@PEAVformat_t@xlslib_core@@@std@@@std@@QEAAXPEAPEAVformat_t@xlslib_core@@AEBQEAV23@@Z 0000000180018290 f i globalrec.obj
 0001:00017290       ??$construct@PEAVrange_t@xlslib_core@@AEAPEAV12@@?$allocator_traits@V?$allocator@PEAVrange_t@xlslib_core@@@std@@@std@@SAXAEAV?$allocator@PEAVrange_t@xlslib_core@@@1@PEAPEAVrange_t@xlslib_core@@AEAPEAV34@@Z 0000000180018290 f i sheetrec.obj
 0001:00017290       ??$construct@PEAVworksheet@xlslib_core@@AEBQEAV12@@?$allocator@PEAVworksheet@xlslib_core@@@std@@QEAAXPEAPEAVworksheet@xlslib_core@@AEBQEAV23@@Z 0000000180018290 f i workbook.obj
 0001:00017290       ??$construct@PEAU?$_Tree_node@PEAVcell_t@xlslib_core@@PEAX@std@@AEAPEAU12@@?$allocator_traits@V?$allocator@U?$_Tree_node@PEAVcell_t@xlslib_core@@PEAX@std@@@std@@@std@@SAXAEAV?$allocator@U?$_Tree_node@PEAVcell_t@xlslib_core@@PEAX@std@@@1@PEAPEAU?$_Tree_node@PEAVcell_t@xlslib_core@@PEAX@1@AEAPEAU31@@Z 0000000180018290 f i sheetrec.obj
 0001:00017290       ??$construct@PEAVrange@xlslib_core@@AEBQEAV12@@?$allocator_traits@V?$allocator@PEAVrange@xlslib_core@@@std@@@std@@SAXAEAV?$allocator@PEAVrange@xlslib_core@@@1@PEAPEAVrange@xlslib_core@@AEBQEAV34@@Z 0000000180018290 f i sheetrec.obj
 0001:00017290       ??$construct@PEAVHPSFitem@xlslib_core@@AEBQEAV12@@?$allocator@U?$_Tree_node@PEAVHPSFitem@xlslib_core@@PEAX@std@@@std@@QEAAXPEAPEAVHPSFitem@xlslib_core@@AEBQEAV23@@Z 0000000180018290 f i HPSF.obj
 0001:00017290       ??$construct@PEAUHyperLink@xlslib_core@@AEAPEAU12@@?$allocator_traits@V?$allocator@PEAUHyperLink@xlslib_core@@@std@@@std@@SAXAEAV?$allocator@PEAUHyperLink@xlslib_core@@@1@PEAPEAUHyperLink@xlslib_core@@AEAPEAU34@@Z 0000000180018290 f i sheetrec.obj
 0001:00017290       ??$construct@PEAVCOleProp@xlslib_core@@AEAPEAV12@@?$allocator@PEAVCOleProp@xlslib_core@@@std@@QEAAXPEAPEAVCOleProp@xlslib_core@@AEAPEAV23@@Z 0000000180018290 f i olefs.obj
 0001:00017290       ??$construct@PEAVrange@xlslib_core@@AEBQEAV12@@?$_Wrap_alloc@V?$allocator@PEAVrange@xlslib_core@@@std@@@std@@QEAAXPEAPEAVrange@xlslib_core@@AEBQEAV23@@Z 0000000180018290 f i sheetrec.obj
 0001:00017290       ??$construct@PEAUcolinfo_t@xlslib_core@@AEBQEAU12@@?$allocator@U?$_Tree_node@PEAUcolinfo_t@xlslib_core@@PEAX@std@@@std@@QEAAXPEAPEAUcolinfo_t@xlslib_core@@AEBQEAU23@@Z 0000000180018290 f i sheetrec.obj
 0001:00017290       ??$construct@PEAVboundsheet_t@xlslib_core@@AEAPEAV12@@?$_Wrap_alloc@V?$allocator@PEAVboundsheet_t@xlslib_core@@@std@@@std@@QEAAXPEAPEAVboundsheet_t@xlslib_core@@AEAPEAV23@@Z 0000000180018290 f i globalrec.obj
 0001:00017290       ??$construct@NAEBN@?$allocator_traits@V?$allocator@N@std@@@std@@SAXAEAV?$allocator@N@1@PEANAEBN@Z 0000000180018290 f i cbridge.obj
 0001:00017290       ??$construct@PEAVformula_t@xlslib_core@@AEAPEAV12@@?$allocator@PEAVformula_t@xlslib_core@@@std@@QEAAXPEAPEAVformula_t@xlslib_core@@AEAPEAV23@@Z 0000000180018290 f i sheetrec.obj
 0001:00017290       ??$construct@PEAVrange_t@xlslib_core@@AEAPEAV12@@?$allocator@PEAVrange_t@xlslib_core@@@std@@QEAAXPEAPEAVrange_t@xlslib_core@@AEAPEAV23@@Z 0000000180018290 f i sheetrec.obj
 0001:00017290       ??$construct@PEAU?$_Tree_node@PEAUcolinfo_t@xlslib_core@@PEAX@std@@AEAPEAU12@@?$_Wrap_alloc@V?$allocator@U?$_Tree_node@PEAUcolinfo_t@xlslib_core@@PEAX@std@@@std@@@std@@QEAAXPEAPEAU?$_Tree_node@PEAUcolinfo_t@xlslib_core@@PEAX@1@AEAPEAU21@@Z 0000000180018290 f i sheetrec.obj
 0001:00017290       ??$construct@PEAUstyle_t@xlslib_core@@AEAPEAU12@@?$allocator@PEAUstyle_t@xlslib_core@@@std@@QEAAXPEAPEAUstyle_t@xlslib_core@@AEAPEAU23@@Z 0000000180018290 f i globalrec.obj
 0001:00017290       ??$construct@PEAVfont_t@xlslib_core@@AEBQEAV12@@?$allocator@PEAVfont_t@xlslib_core@@@std@@QEAAXPEAPEAVfont_t@xlslib_core@@AEBQEAV23@@Z 0000000180018290 f i globalrec.obj
 0001:00017290       ??$construct@PEAUHyperLink@xlslib_core@@AEBQEAU12@@?$_Wrap_alloc@V?$allocator@PEAUHyperLink@xlslib_core@@@std@@@std@@QEAAXPEAPEAUHyperLink@xlslib_core@@AEBQEAU23@@Z 0000000180018290 f i sheetrec.obj
 0001:00017290       ??$construct@PEAVxf_t@xlslib_core@@AEBQEAV12@@?$_Wrap_alloc@V?$allocator@PEAVxf_t@xlslib_core@@@std@@@std@@QEAAXPEAPEAVxf_t@xlslib_core@@AEBQEAV23@@Z 0000000180018290 f i globalrec.obj
 0001:00017290       ??$construct@PEA_WAEAPEA_W@?$allocator@_W@std@@QEAAXPEAPEA_WAEAPEA_W@Z 0000000180018290 f i cbridge.obj
 0001:00017290       ??$construct@PEA_SAEAPEA_S@?$allocator@_S@std@@QEAAXPEAPEA_SAEAPEA_S@Z 0000000180018290 f i datast.obj
 0001:00017290       ??$construct@PEAVformula_t@xlslib_core@@AEAPEAV12@@?$_Wrap_alloc@V?$allocator@PEAVformula_t@xlslib_core@@@std@@@std@@QEAAXPEAPEAVformula_t@xlslib_core@@AEAPEAV23@@Z 0000000180018290 f i sheetrec.obj
 0001:00017290       ??$construct@PEAVformat_t@xlslib_core@@AEAPEAV12@@?$_Wrap_alloc@V?$allocator@PEAVformat_t@xlslib_core@@@std@@@std@@QEAAXPEAPEAVformat_t@xlslib_core@@AEAPEAV23@@Z 0000000180018290 f i globalrec.obj
 0001:00017290       ??$construct@PEAVworksheet@xlslib_core@@AEBQEAV12@@?$allocator_traits@V?$allocator@PEAVworksheet@xlslib_core@@@std@@@std@@SAXAEAV?$allocator@PEAVworksheet@xlslib_core@@@1@PEAPEAVworksheet@xlslib_core@@AEBQEAV34@@Z 0000000180018290 f i workbook.obj
 0001:00017290       ??$construct@PEAU?$_List_node@PEAV?$basic_string@DU?$char_traits@D@std@@V?$allocator@D@2@@std@@PEAX@std@@AEAPEAU12@@?$allocator@U?$_List_node@PEAV?$basic_string@DU?$char_traits@D@std@@V?$allocator@D@2@@std@@PEAX@std@@@std@@QEAAXPEAPEAU?$_List_node@PEAV?$basic_string@DU?$char_traits@D@std@@V?$allocator@D@2@@std@@PEAX@1@AEAPEAU21@@Z 0000000180018290 f i olefs.obj
 0001:00017290       ??$construct@PEAVCOleProp@xlslib_core@@AEBQEAV12@@?$allocator_traits@V?$allocator@PEAVCOleProp@xlslib_core@@@std@@@std@@SAXAEAV?$allocator@PEAVCOleProp@xlslib_core@@@1@PEAPEAVCOleProp@xlslib_core@@AEBQEAV34@@Z 0000000180018290 f i olefs.obj
 0001:00017290       ??$construct@PEAVrange@xlslib_core@@AEAPEAV12@@?$allocator@PEAVrange@xlslib_core@@@std@@QEAAXPEAPEAVrange@xlslib_core@@AEAPEAV23@@Z 0000000180018290 f i sheetrec.obj
 0001:00017290       ??$construct@PEAVxf_t@xlslib_core@@AEBQEAV12@@?$allocator_traits@V?$allocator@PEAVxf_t@xlslib_core@@@std@@@std@@SAXAEAV?$allocator@PEAVxf_t@xlslib_core@@@1@PEAPEAVxf_t@xlslib_core@@AEBQEAV34@@Z 0000000180018290 f i globalrec.obj
 0001:00017290       ??$construct@PEA_SAEAPEA_S@?$allocator_traits@V?$allocator@_S@std@@@std@@SAXAEAV?$allocator@_S@1@PEAPEA_SAEAPEA_S@Z 0000000180018290 f i datast.obj
 0001:00017290       ??$construct@PEAVrange_t@xlslib_core@@AEBQEAV12@@?$_Wrap_alloc@V?$allocator@PEAVrange_t@xlslib_core@@@std@@@std@@QEAAXPEAPEAVrange_t@xlslib_core@@AEBQEAV23@@Z 0000000180018290 f i sheetrec.obj
 0001:00017290       ??$construct@PEA_WAEAPEA_W@?$allocator_traits@V?$allocator@_W@std@@@std@@SAXAEAV?$allocator@_W@1@PEAPEA_WAEAPEA_W@Z 0000000180018290 f i cbridge.obj
 0001:00017290       ??$construct@PEAVfont_t@xlslib_core@@AEAPEAV12@@?$_Wrap_alloc@V?$allocator@PEAVfont_t@xlslib_core@@@std@@@std@@QEAAXPEAPEAVfont_t@xlslib_core@@AEAPEAV23@@Z 0000000180018290 f i globalrec.obj
 0001:00017290       ??$construct@PEAVformat_t@xlslib_core@@AEAPEAV12@@?$allocator_traits@V?$allocator@PEAVformat_t@xlslib_core@@@std@@@std@@SAXAEAV?$allocator@PEAVformat_t@xlslib_core@@@1@PEAPEAVformat_t@xlslib_core@@AEAPEAV34@@Z 0000000180018290 f i globalrec.obj
 0001:00017290       ??$construct@PEAU?$_Tree_node@U?$pair@PEAVxf_t@xlslib_core@@UborderedXft@2@@std@@PEAX@std@@AEAPEAU12@@?$allocator_traits@V?$allocator@U?$_Tree_node@U?$pair@PEAVxf_t@xlslib_core@@UborderedXft@2@@std@@PEAX@std@@@std@@@std@@SAXAEAV?$allocator@U?$_Tree_node@U?$pair@PEAVxf_t@xlslib_core@@UborderedXft@2@@std@@PEAX@std@@@1@PEAPEAU?$_Tree_node@U?$pair@PEAVxf_t@xlslib_core@@UborderedXft@2@@std@@PEAX@1@AEAPEAU31@@Z 0000000180018290 f i range.obj
 0001:00017290       ??$construct@PEAUHyperLink@xlslib_core@@AEBQEAU12@@?$allocator_traits@V?$allocator@PEAUHyperLink@xlslib_core@@@std@@@std@@SAXAEAV?$allocator@PEAUHyperLink@xlslib_core@@@1@PEAPEAUHyperLink@xlslib_core@@AEBQEAU34@@Z 0000000180018290 f i sheetrec.obj
 0001:00017290       ??$construct@PEAVCOleProp@xlslib_core@@AEBQEAV12@@?$_Wrap_alloc@V?$allocator@PEAVCOleProp@xlslib_core@@@std@@@std@@QEAAXPEAPEAVCOleProp@xlslib_core@@AEBQEAV23@@Z 0000000180018290 f i olefs.obj
 0001:00017290       ??$construct@PEAVboundsheet_t@xlslib_core@@AEBQEAV12@@?$allocator_traits@V?$allocator@PEAVboundsheet_t@xlslib_core@@@std@@@std@@SAXAEAV?$allocator@PEAVboundsheet_t@xlslib_core@@@1@PEAPEAVboundsheet_t@xlslib_core@@AEBQEAV34@@Z 0000000180018290 f i globalrec.obj
 0001:00017290       ??$construct@PEAVCOleProp@xlslib_core@@AEAPEAV12@@?$allocator_traits@V?$allocator@PEAVCOleProp@xlslib_core@@@std@@@std@@SAXAEAV?$allocator@PEAVCOleProp@xlslib_core@@@1@PEAPEAVCOleProp@xlslib_core@@AEAPEAV34@@Z 0000000180018290 f i olefs.obj
 0001:00017290       ??$construct@PEAVcell_t@xlslib_core@@AEBQEAV12@@?$allocator@U?$_Tree_node@PEAVcell_t@xlslib_core@@PEAX@std@@@std@@QEAAXPEAPEAVcell_t@xlslib_core@@AEBQEAV23@@Z 0000000180018290 f i sheetrec.obj
 0001:00017290       ??$construct@PEAVboundsheet_t@xlslib_core@@AEAPEAV12@@?$allocator_traits@V?$allocator@PEAVboundsheet_t@xlslib_core@@@std@@@std@@SAXAEAV?$allocator@PEAVboundsheet_t@xlslib_core@@@1@PEAPEAVboundsheet_t@xlslib_core@@AEAPEAV34@@Z 0000000180018290 f i globalrec.obj
 0001:00017290       ??$construct@NAEAN@?$allocator_traits@V?$allocator@N@std@@@std@@SAXAEAV?$allocator@N@1@PEANAEAN@Z 0000000180018290 f i cbridge.obj
 0001:00017290       ??$construct@PEAU?$_Tree_node@PEAVrowheight_t@xlslib_core@@PEAX@std@@AEAPEAU12@@?$allocator@U?$_Tree_node@PEAVrowheight_t@xlslib_core@@PEAX@std@@@std@@QEAAXPEAPEAU?$_Tree_node@PEAVrowheight_t@xlslib_core@@PEAX@1@AEAPEAU21@@Z 0000000180018290 f i sheetrec.obj
 0001:00017290       ??$construct@PEAVboundsheet_t@xlslib_core@@AEBQEAV12@@?$_Wrap_alloc@V?$allocator@PEAVboundsheet_t@xlslib_core@@@std@@@std@@QEAAXPEAPEAVboundsheet_t@xlslib_core@@AEBQEAV23@@Z 0000000180018290 f i globalrec.obj
 0001:00017290       ??$construct@PEAVformat_t@xlslib_core@@AEBQEAV12@@?$allocator_traits@V?$allocator@PEAVformat_t@xlslib_core@@@std@@@std@@SAXAEAV?$allocator@PEAVformat_t@xlslib_core@@@1@PEAPEAVformat_t@xlslib_core@@AEBQEAV34@@Z 0000000180018290 f i globalrec.obj
 0001:00017290       ??$construct@PEAVformula_t@xlslib_core@@AEAPEAV12@@?$allocator_traits@V?$allocator@PEAVformula_t@xlslib_core@@@std@@@std@@SAXAEAV?$allocator@PEAVformula_t@xlslib_core@@@1@PEAPEAVformula_t@xlslib_core@@AEAPEAV34@@Z 0000000180018290 f i sheetrec.obj
 0001:00017290       ??$construct@PEAVfont_t@xlslib_core@@AEBQEAV12@@?$_Wrap_alloc@V?$allocator@PEAVfont_t@xlslib_core@@@std@@@std@@QEAAXPEAPEAVfont_t@xlslib_core@@AEBQEAV23@@Z 0000000180018290 f i globalrec.obj
 0001:00017290       ??$construct@PEAVrowheight_t@xlslib_core@@AEBQEAV12@@?$allocator_traits@V?$allocator@U?$_Tree_node@PEAVrowheight_t@xlslib_core@@PEAX@std@@@std@@@std@@SAXAEAV?$allocator@U?$_Tree_node@PEAVrowheight_t@xlslib_core@@PEAX@std@@@1@PEAPEAVrowheight_t@xlslib_core@@AEBQEAV34@@Z 0000000180018290 f i sheetrec.obj
 0001:0001729c       ??_E?$basic_stringstream@DU?$char_traits@D@std@@V?$allocator@D@2@@std@@$4PPPPPPPM@A@EAAPEAXI@Z 000000018001829c f i assert_assist.obj
 0001:000172b0       xlsCellGetRow              00000001800182b0 f i cbridge.obj
 0001:000172b0       ?GetRow@cell_t@xlslib_core@@QEBAIXZ 00000001800182b0 f i blank.obj
 0001:000172c0       xlsCellGetCol              00000001800182c0 f i cbridge.obj
 0001:000172c0       ?GetCol@cell_t@xlslib_core@@QEBAIXZ 00000001800182c0 f i blank.obj
 0001:000172d0       ?GetSize@blank_t@xlslib_core@@UEBA_KXZ 00000001800182d0 f i blank.obj
 0001:000172e0       ??0blank_t@xlslib_core@@AEAA@AEAVCGlobalRecords@1@IIPEAVxf_t@1@@Z 00000001800182e0 f   blank.obj
 0001:00017320       ??_Gblank_t@xlslib_core@@EEAAPEAXI@Z 0000000180018320 f i blank.obj
 0001:00017320       ??_Eblank_t@xlslib_core@@EEAAPEAXI@Z 0000000180018320 f i * CIL library *:* CIL module *
 0001:00017320       ??_Ecell_t@xlslib_core@@MEAAPEAXI@Z 0000000180018320 f i * CIL library *:* CIL module *
 0001:00017320       ??_Gcell_t@xlslib_core@@MEAAPEAXI@Z 0000000180018320 f i cell.obj
 0001:000173a0       ?GetData@blank_t@xlslib_core@@UEBAPEAVCUnit@2@AEAVCDataStorage@2@@Z 00000001800183a0 f   blank.obj
 0001:000173f0       ??1err_t@xlslib_core@@EEAA@XZ 00000001800183f0 f   err.obj
 0001:000173f0       ??1number_t@xlslib_core@@EEAA@XZ 00000001800183f0 f   number.obj
 0001:000173f0       ??1cell_t@xlslib_core@@MEAA@XZ 00000001800183f0 f   cell.obj
 0001:000173f0       ??1blank_t@xlslib_core@@EEAA@XZ 00000001800183f0 f   blank.obj
 0001:000173f0       ??1boolean_t@xlslib_core@@EEAA@XZ 00000001800183f0 f   boolean.obj
 0001:00017450       ??0CBlank@xlslib_core@@IEAA@AEAVCDataStorage@1@AEBVblank_t@1@@Z 0000000180018450 f   blank.obj
 0001:00017580       ??_ECBoolean@xlslib_core@@EEAAPEAXI@Z 0000000180018580 f i * CIL library *:* CIL module *
 0001:00017580       ??_GCBoolean@xlslib_core@@EEAAPEAXI@Z 0000000180018580 f i boolean.obj
 0001:00017580       ??_ECDateMode@xlslib_core@@EEAAPEAXI@Z 0000000180018580 f i * CIL library *:* CIL module *
 0001:00017580       ??_GCBof@xlslib_core@@EEAAPEAXI@Z 0000000180018580 f i recdef.obj
 0001:00017580       ??_GCFont@xlslib_core@@EEAAPEAXI@Z 0000000180018580 f i font.obj
 0001:00017580       ??_ECNote@xlslib_core@@EEAAPEAXI@Z 0000000180018580 f i * CIL library *:* CIL module *
 0001:00017580       ??_GCFormat@xlslib_core@@EEAAPEAXI@Z 0000000180018580 f i format.obj
 0001:00017580       ??_GCNote@xlslib_core@@EEAAPEAXI@Z 0000000180018580 f i note.obj
 0001:00017580       ??_ECBlank@xlslib_core@@EEAAPEAXI@Z 0000000180018580 f i * CIL library *:* CIL module *
 0001:00017580       ??_ECBof@xlslib_core@@EEAAPEAXI@Z 0000000180018580 f i * CIL library *:* CIL module *
 0001:00017580       ??_ECDBCell@xlslib_core@@EEAAPEAXI@Z 0000000180018580 f i * CIL library *:* CIL module *
 0001:00017580       ??_ECContinue@xlslib_core@@EEAAPEAXI@Z 0000000180018580 f i * CIL library *:* CIL module *
 0001:00017580       ??_GCExtFormat@xlslib_core@@EEAAPEAXI@Z 0000000180018580 f i extformat.obj
 0001:00017580       ??_GCContinue@xlslib_core@@EEAAPEAXI@Z 0000000180018580 f i continue.obj
 0001:00017580       ??_GCErr@xlslib_core@@EEAAPEAXI@Z 0000000180018580 f i err.obj
 0001:00017580       ??_GCEof@xlslib_core@@EEAAPEAXI@Z 0000000180018580 f i recdef.obj
 0001:00017580       ??_GCDimension@xlslib_core@@EEAAPEAXI@Z 0000000180018580 f i recdef.obj
 0001:00017580       ??_ECBSheet@xlslib_core@@EEAAPEAXI@Z 0000000180018580 f i * CIL library *:* CIL module *
 0001:00017580       ??_ECEof@xlslib_core@@EEAAPEAXI@Z 0000000180018580 f i * CIL library *:* CIL module *
 0001:00017580       ??_GCStyle@xlslib_core@@EEAAPEAXI@Z 0000000180018580 f i recdef.obj
 0001:00017580       ??_GCWindow2@xlslib_core@@EEAAPEAXI@Z 0000000180018580 f i recdef.obj
 0001:00017580       ??_ECExtFormat@xlslib_core@@EEAAPEAXI@Z 0000000180018580 f i * CIL library *:* CIL module *
 0001:00017580       ??_ECRecord@xlslib_core@@MEAAPEAXI@Z 0000000180018580 f i * CIL library *:* CIL module *
 0001:00017580       ??_GCLabel@xlslib_core@@EEAAPEAXI@Z 0000000180018580 f i label.obj
 0001:00017580       ??_GCPalette@xlslib_core@@EEAAPEAXI@Z 0000000180018580 f i colors.obj
 0001:00017580       ??_ECCodePage@xlslib_core@@EEAAPEAXI@Z 0000000180018580 f i * CIL library *:* CIL module *
 0001:00017580       ??_ECErr@xlslib_core@@EEAAPEAXI@Z 0000000180018580 f i * CIL library *:* CIL module *
 0001:00017580       ??_GCBSheet@xlslib_core@@EEAAPEAXI@Z 0000000180018580 f i recdef.obj
 0001:00017580       ??_ECNumber@xlslib_core@@EEAAPEAXI@Z 0000000180018580 f i * CIL library *:* CIL module *
 0001:00017580       ??_GCDBCell@xlslib_core@@EEAAPEAXI@Z 0000000180018580 f i row.obj
 0001:00017580       ??_GCRow@xlslib_core@@EEAAPEAXI@Z 0000000180018580 f i row.obj
 0001:00017580       ??_GCIndex@xlslib_core@@EEAAPEAXI@Z 0000000180018580 f i index.obj
 0001:00017580       ??_GCWindow1@xlslib_core@@EEAAPEAXI@Z 0000000180018580 f i recdef.obj
 0001:00017580       ??_ECFont@xlslib_core@@EEAAPEAXI@Z 0000000180018580 f i * CIL library *:* CIL module *
 0001:00017580       ??_ECStyle@xlslib_core@@EEAAPEAXI@Z 0000000180018580 f i * CIL library *:* CIL module *
 0001:00017580       ??_ECRow@xlslib_core@@EEAAPEAXI@Z 0000000180018580 f i * CIL library *:* CIL module *
 0001:00017580       ??_ECDimension@xlslib_core@@EEAAPEAXI@Z 0000000180018580 f i * CIL library *:* CIL module *
 0001:00017580       ??_ECPalette@xlslib_core@@EEAAPEAXI@Z 0000000180018580 f i * CIL library *:* CIL module *
 0001:00017580       ??_GCColInfo@xlslib_core@@EEAAPEAXI@Z 0000000180018580 f i colinfo.obj
 0001:00017580       ??_GCCodePage@xlslib_core@@EEAAPEAXI@Z 0000000180018580 f i recdef.obj
 0001:00017580       ??_ECColInfo@xlslib_core@@EEAAPEAXI@Z 0000000180018580 f i * CIL library *:* CIL module *
 0001:00017580       ??_GCNumber@xlslib_core@@EEAAPEAXI@Z 0000000180018580 f i number.obj
 0001:00017580       ??_ECIndex@xlslib_core@@EEAAPEAXI@Z 0000000180018580 f i * CIL library *:* CIL module *
 0001:00017580       ??_ECMergedCells@xlslib_core@@EEAAPEAXI@Z 0000000180018580 f i * CIL library *:* CIL module *
 0001:00017580       ??_GCMergedCells@xlslib_core@@EEAAPEAXI@Z 0000000180018580 f i merged.obj
 0001:00017580       ??_ECFormat@xlslib_core@@EEAAPEAXI@Z 0000000180018580 f i * CIL library *:* CIL module *
 0001:00017580       ??_GCBlank@xlslib_core@@EEAAPEAXI@Z 0000000180018580 f i blank.obj
 0001:00017580       ??_GCFormula@xlslib_core@@EEAAPEAXI@Z 0000000180018580 f i formula_cell.obj
 0001:00017580       ??_GCRecord@xlslib_core@@MEAAPEAXI@Z 0000000180018580 f i record.obj
 0001:00017580       ??_GCDateMode@xlslib_core@@EEAAPEAXI@Z 0000000180018580 f i recdef.obj
 0001:00017580       ??_ECWindow1@xlslib_core@@EEAAPEAXI@Z 0000000180018580 f i * CIL library *:* CIL module *
 0001:00017580       ??_ECLabel@xlslib_core@@EEAAPEAXI@Z 0000000180018580 f i * CIL library *:* CIL module *
 0001:00017580       ??_ECFormula@xlslib_core@@EEAAPEAXI@Z 0000000180018580 f i * CIL library *:* CIL module *
 0001:00017580       ??_ECWindow2@xlslib_core@@EEAAPEAXI@Z 0000000180018580 f i * CIL library *:* CIL module *
 0001:000175c0       ??1CDateMode@xlslib_core@@EEAA@XZ 00000001800185c0 f   recdef.obj
 0001:000175c0       ??1CFormat@xlslib_core@@EEAA@XZ 00000001800185c0 f   format.obj
 0001:000175c0       ??1CExtFormat@xlslib_core@@EEAA@XZ 00000001800185c0 f   extformat.obj
 0001:000175c0       ??1CDBCell@xlslib_core@@EEAA@XZ 00000001800185c0 f   row.obj
 0001:000175c0       ??1CEof@xlslib_core@@EEAA@XZ 00000001800185c0 f   recdef.obj
 0001:000175c0       ??1CIndex@xlslib_core@@EEAA@XZ 00000001800185c0 f   index.obj
 0001:000175c0       ??1CCodePage@xlslib_core@@EEAA@XZ 00000001800185c0 f   recdef.obj
 0001:000175c0       ??1CWindow1@xlslib_core@@EEAA@XZ 00000001800185c0 f   recdef.obj
 0001:000175c0       ??1CColInfo@xlslib_core@@EEAA@XZ 00000001800185c0 f   colinfo.obj
 0001:000175c0       ??1CErr@xlslib_core@@EEAA@XZ 00000001800185c0 f   err.obj
 0001:000175c0       ??1CStyle@xlslib_core@@EEAA@XZ 00000001800185c0 f   recdef.obj
 0001:000175c0       ??1CNumber@xlslib_core@@EEAA@XZ 00000001800185c0 f   number.obj
 0001:000175c0       ??1CWindow2@xlslib_core@@EEAA@XZ 00000001800185c0 f   recdef.obj
 0001:000175c0       ??1CRecord@xlslib_core@@MEAA@XZ 00000001800185c0 f   record.obj
 0001:000175c0       ??1CBlank@xlslib_core@@EEAA@XZ 00000001800185c0 f   blank.obj
 0001:000175c0       ??1CRow@xlslib_core@@EEAA@XZ 00000001800185c0 f   row.obj
 0001:000175c0       ??1CLabel@xlslib_core@@EEAA@XZ 00000001800185c0 f   label.obj
 0001:000175c0       ??1CContinue@xlslib_core@@EEAA@XZ 00000001800185c0 f   continue.obj
 0001:000175c0       ??1CFont@xlslib_core@@EEAA@XZ 00000001800185c0 f   font.obj
 0001:000175c0       ??1CBSheet@xlslib_core@@EEAA@XZ 00000001800185c0 f   recdef.obj
 0001:000175c0       ??1CNote@xlslib_core@@EEAA@XZ 00000001800185c0 f   note.obj
 0001:000175c0       ??1CBof@xlslib_core@@EEAA@XZ 00000001800185c0 f   recdef.obj
 0001:000175c0       ??1CPalette@xlslib_core@@EEAA@XZ 00000001800185c0 f   colors.obj
 0001:000175c0       ??1CFormula@xlslib_core@@EEAA@XZ 00000001800185c0 f   formula_cell.obj
 0001:000175c0       ??1CMergedCells@xlslib_core@@EEAA@XZ 00000001800185c0 f   merged.obj
 0001:000175c0       ??1CBoolean@xlslib_core@@EEAA@XZ 00000001800185c0 f   boolean.obj
 0001:000175c0       ??1CDimension@xlslib_core@@EEAA@XZ 00000001800185c0 f   recdef.obj
 0001:000175d0       ?GetSize@note_t@xlslib_core@@UEBA_KXZ 00000001800185d0 f i note.obj
 0001:000175d0       ?GetSize@boolean_t@xlslib_core@@UEBA_KXZ 00000001800185d0 f i boolean.obj
 0001:000175d0       ?GetSize@err_t@xlslib_core@@UEBA_KXZ 00000001800185d0 f i err.obj
 0001:000175e0       ?GetBoolean@boolean_t@xlslib_core@@QEBA_NXZ 00000001800185e0 f i boolean.obj
 0001:000175f0       ??_Eerr_t@xlslib_core@@EEAAPEAXI@Z 00000001800185f0 f i * CIL library *:* CIL module *
 0001:000175f0       ??_Gerr_t@xlslib_core@@EEAAPEAXI@Z 00000001800185f0 f i err.obj
 0001:000175f0       ??_Gboolean_t@xlslib_core@@EEAAPEAXI@Z 00000001800185f0 f i boolean.obj
 0001:000175f0       ??_Eboolean_t@xlslib_core@@EEAAPEAXI@Z 00000001800185f0 f i * CIL library *:* CIL module *
 0001:00017670       ??0boolean_t@xlslib_core@@AEAA@AEAVCGlobalRecords@1@II_NPEAVxf_t@1@@Z 0000000180018670 f   boolean.obj
 0001:000176c0       ?GetData@boolean_t@xlslib_core@@UEBAPEAVCUnit@2@AEAVCDataStorage@2@@Z 00000001800186c0 f   boolean.obj
 0001:00017710       ??0CBoolean@xlslib_core@@IEAA@AEAVCDataStorage@1@AEBVboolean_t@1@@Z 0000000180018710 f   boolean.obj
 0001:00017860       wmemcpy                    0000000180018860 f i cbridge.obj
 0001:00017880       wmemmove                   0000000180018880 f i cbridge.obj
 0001:00017890       wmemset                    0000000180018890 f i cbridge.obj
 0001:000178a0       ?length@?$char_traits@_W@std@@SA_KPEB_W@Z 00000001800188a0 f i cbridge.obj
 0001:000178c0       ?copy@?$char_traits@_W@std@@SAPEA_WPEA_WPEB_W_K@Z 00000001800188c0 f i cbridge.obj
 0001:000178e0       ?move@?$char_traits@_W@std@@SAPEA_WPEA_WPEB_W_K@Z 00000001800188e0 f i cbridge.obj
 0001:00017900       ?assign@?$char_traits@_W@std@@SAPEA_WPEA_W_K_W@Z 0000000180018900 f i cbridge.obj
 0001:00017900       ?assign@?$_Char_traits@_SG@std@@SAPEA_SPEA_S_K_S@Z 0000000180018900 f i note.obj
 0001:00017910       ?assign@?$_Char_traits@_SG@std@@SAXAEA_SAEB_S@Z 0000000180018910 f i datast.obj
 0001:00017910       ?assign@?$char_traits@_W@std@@SAXAEA_WAEB_W@Z 0000000180018910 f i cbridge.obj
 0001:00017920       ?length@?$char_traits@D@std@@SA_KPEBD@Z 0000000180018920 f i cbridge.obj
 0001:00017940       ?assign@?$char_traits@D@std@@SAPEADPEAD_KD@Z 0000000180018940 f i cbridge.obj
 0001:00017970       ??0range_t@xlslib_core@@QEAA@XZ 0000000180018970 f i cbridge.obj
 0001:00017990       ??1range_t@xlslib_core@@UEAA@XZ 0000000180018990 f i cbridge.obj
 0001:000179a0       ??_Erange_t@xlslib_core@@UEAAPEAXI@Z 00000001800189a0 f i * CIL library *:* CIL module *
 0001:000179a0       ??_Grange_t@xlslib_core@@UEAAPEAXI@Z 00000001800189a0 f i cbridge.obj
 0001:000179d0       ?SetFillColor@note_t@xlslib_core@@QEAAXEEE@Z 00000001800189d0 f i cbridge.obj
 0001:000179d0       xlsNoteSetFillColor        00000001800189d0 f i cbridge.obj
 0001:000179f0       xlsWorksheetSplitWindow    00000001800189f0 f i cbridge.obj
 0001:000179f0       ?SplitWindow@worksheet@xlslib_core@@QEAAXGG@Z 00000001800189f0 f i cbridge.obj
 0001:00017a00       xlsNewWorkbook             0000000180018a00 f   cbridge.obj
 0001:00017a20       xlsDeleteWorkbook          0000000180018a20 f   cbridge.obj
 0001:00017a40       xlsWorkbookSheet           0000000180018a40 f   cbridge.obj
 0001:00017b20       xlsWorkbookSheetW          0000000180018b20 f   cbridge.obj
 0001:00017bc0       xlsWorkbookGetSheet        0000000180018bc0 f   cbridge.obj
 0001:00017bf0       xlsWorkbookFont            0000000180018bf0 f   cbridge.obj
 0001:00017cd0       xlsWorkbookFormat          0000000180018cd0 f   cbridge.obj
 0001:00017db0       xlsWorkbookFormatW         0000000180018db0 f   cbridge.obj
 0001:00017e50       xlsWorkbookxFormat         0000000180018e50 f   cbridge.obj
 0001:00017e90       xlsWorkbookxFormatFont     0000000180018e90 f   cbridge.obj
 0001:00017ea0       xlsWorkbookIconvInType     0000000180018ea0 f   cbridge.obj
 0001:00017eb0       xlsWorkbookProperty        0000000180018eb0 f   cbridge.obj
 0001:00018040       ?windPosition@workbook@xlslib_core@@QEAAXGG@Z 0000000180019040 f   workbook.obj
 0001:00018040       xlsWorkBookWindPosition    0000000180019040 f   cbridge.obj
 0001:00018050       xlsWorkBookWindSize        0000000180019050 f   cbridge.obj
 0001:00018050       ?windSize@workbook@xlslib_core@@QEAAXGG@Z 0000000180019050 f   workbook.obj
 0001:00018060       ?firstTab@workbook@xlslib_core@@QEAAXG@Z 0000000180019060 f   workbook.obj
 0001:00018060       xlsWorkBookFirstTab        0000000180019060 f   cbridge.obj
 0001:00018070       xlsWorkBookTabBarWidth     0000000180019070 f   cbridge.obj
 0001:00018070       ?tabBarWidth@workbook@xlslib_core@@QEAAXG@Z 0000000180019070 f   workbook.obj
 0001:00018090       xlsWorkbookDump            0000000180019090 f   cbridge.obj
 0001:00018170       xlsWorksheetMakeActive     0000000180019170 f   cbridge.obj
 0001:00018170       ?MakeActive@worksheet@xlslib_core@@QEAAXXZ 0000000180019170 f   sheetrec.obj
 0001:00018190       xlsWorksheetFindCell       0000000180019190 f   cbridge.obj
 0001:000181a0       xlsWorksheetMerge          00000001800191a0 f   cbridge.obj
 0001:000181b0       xlsWorksheetColwidth       00000001800191b0 f   cbridge.obj
 0001:000181c0       xlsWorksheetRowheight      00000001800191c0 f   cbridge.obj
 0001:000181d0       xlsWorksheetRangegroup     00000001800191d0 f   cbridge.obj
 0001:000181e0       xlsWorksheetLabel          00000001800191e0 f   cbridge.obj
 0001:00018400       xlsWorksheetLabelW         0000000180019400 f   cbridge.obj
 0001:000185b0       xlsWorksheetBlank          00000001800195b0 f   cbridge.obj
 0001:000185c0       xlsWorksheetNumberDbl      00000001800195c0 f   cbridge.obj
 0001:000185d0       xlsWorksheetNumberInt      00000001800195d0 f   cbridge.obj
 0001:000185e0       xlsWorksheetBoolean        00000001800195e0 f   cbridge.obj
 0001:000185f0       xlsWorksheetError          00000001800195f0 f   cbridge.obj
 0001:00018600       xlsWorksheetNote           0000000180019600 f   cbridge.obj
 0001:00018880       xlsWorksheetNoteW          0000000180019880 f   cbridge.obj
 0001:00018a10       xlsWorksheetFormula        0000000180019a10 f   cbridge.obj
 0001:00018a20       xlsFormulaPushBoolean      0000000180019a20 f   cbridge.obj
 0001:00018a60       ?PushMissingArgument@formula_t@xlslib_core@@QEAADXZ 0000000180019a60 f   formula.obj
 0001:00018a60       xlsFormulaPushMissingArgument 0000000180019a60 f   cbridge.obj
 0001:00018a70       xlsFormulaPushError        0000000180019a70 f   cbridge.obj
 0001:00018ab0       xlsFormulaPushNumberInt    0000000180019ab0 f   cbridge.obj
 0001:00018ac0       xlsFormulaPushNumberDbl    0000000180019ac0 f   cbridge.obj
 0001:00018b00       xlsFormulaPushNumberArray  0000000180019b00 f   cbridge.obj
 0001:00018d40       xlsFormulaPushOperator     0000000180019d40 f   cbridge.obj
 0001:00018d40       ?PushOperator@formula_t@xlslib_core@@QEAADW4expr_operator_code_t@2@@Z 0000000180019d40 f   formula.obj
 0001:00018d50       xlsFormulaPushCellReference 0000000180019d50 f   cbridge.obj
 0001:00018d90       xlsFormulaPushCellAreaReference 0000000180019d90 f   cbridge.obj
 0001:00018de0       xlsFormulaPushCellReferenceC 0000000180019de0 f   cbridge.obj
 0001:00018de0       ?PushCellReference@formula_t@xlslib_core@@QEAADAEBVcell_t@2@W4cell_addr_mode_t@2@W4cell_op_class_t@2@@Z 0000000180019de0 f   formula.obj
 0001:00018e20       xlsFormulaPushCellAreaReferenceC 0000000180019e20 f   cbridge.obj
 0001:00018e70       xlsFormulaPushFunction     0000000180019e70 f   cbridge.obj
 0001:00018e80       xlsFormulaPushFunctionV    0000000180019e80 f   cbridge.obj
 0001:00018e90       xlsFormulaPushFunctionC    0000000180019e90 f   cbridge.obj
 0001:00018ea0       xlsFormulaPushFunctionVC   0000000180019ea0 f   cbridge.obj
 0001:00018eb0       xlsFormulaPushCharacterArray 0000000180019eb0 f   cbridge.obj
 0001:00019060       xlsFormulaPushCharacterArrayW 000000018001a060 f   cbridge.obj
 0001:000193c0       xlsFormulaPushText         000000018001a3c0 f   cbridge.obj
 0001:000194f0       xlsFormulaPushTextW        000000018001a4f0 f   cbridge.obj
 0001:000195e0       xlsFormulaPushTextArray    000000018001a5e0 f   cbridge.obj
 0001:00019940       xlsFormulaPushTextArrayW   000000018001a940 f   cbridge.obj
 0001:00019cb0       xlsWorksheetFormulaCell    000000018001acb0 f   cbridge.obj
 0001:00019cd0       xlsWorksheetFormulaCellArray 000000018001acd0 f   cbridge.obj
 0001:00019cf0       xlsWorksheetValidateCell   000000018001acf0 f   cbridge.obj
 0001:0001a0a0       xlsWorksheetValidateCellW  000000018001b0a0 f   cbridge.obj
 0001:0001a340       xlsWorksheetValidateCellArea 000000018001b340 f   cbridge.obj
 0001:0001a6f0       xlsWorksheetValidateCellAreaW 000000018001b6f0 f   cbridge.obj
 0001:0001a990       xlsWorksheetHyperLink      000000018001b990 f   cbridge.obj
 0001:0001ab40       xlsWorksheetHyperLinkW     000000018001bb40 f   cbridge.obj
 0001:0001ac60       xlsCellFont                000000018001bc60 f   cbridge.obj
 0001:0001ac70       xlsCellFormat              000000018001bc70 f   cbridge.obj
 0001:0001ac80       xlsCellFormatP             000000018001bc80 f   cbridge.obj
 0001:0001ac90       xlsCellHalign              000000018001bc90 f   cbridge.obj
 0001:0001aca0       xlsCellValign              000000018001bca0 f   cbridge.obj
 0001:0001acb0       xlsCellIndent              000000018001bcb0 f   cbridge.obj
 0001:0001acc0       xlsCellOrientation         000000018001bcc0 f   cbridge.obj
 0001:0001acd0       xlsCellFillfgcolor         000000018001bcd0 f   cbridge.obj
 0001:0001ace0       xlsCellFillbgcolor         000000018001bce0 f   cbridge.obj
 0001:0001acf0       xlsCellFillstyle           000000018001bcf0 f   cbridge.obj
 0001:0001ad00       xlsCellLocked              000000018001bd00 f   cbridge.obj
 0001:0001ad10       xlsCellHidden              000000018001bd10 f   cbridge.obj
 0001:0001ad20       xlsCellWrap                000000018001bd20 f   cbridge.obj
 0001:0001ad30       xlsCellBorderstyle         000000018001bd30 f   cbridge.obj
 0001:0001ad40       xlsCellBordercolor         000000018001bd40 f   cbridge.obj
 0001:0001ad50       xlsCellBordercolorIdx      000000018001bd50 f   cbridge.obj
 0001:0001ad60       xlsCellFontname            000000018001bd60 f   cbridge.obj
 0001:0001ae60       xlsCellFontheight          000000018001be60 f   cbridge.obj
 0001:0001ae60       ?fontheight@cell_t@xlslib_core@@QEAAXG@Z 000000018001be60 f   cell.obj
 0001:0001ae90       xlsCellFontbold            000000018001be90 f   cbridge.obj
 0001:0001ae90       ?fontbold@cell_t@xlslib_core@@QEAAXW4boldness_option_t@2@@Z 000000018001be90 f   cell.obj
 0001:0001aed0       xlsCellFontunderline       000000018001bed0 f   cbridge.obj
 0001:0001aed0       ?fontunderline@cell_t@xlslib_core@@QEAAXW4underline_option_t@2@@Z 000000018001bed0 f   cell.obj
 0001:0001af10       ?fontscript@cell_t@xlslib_core@@QEAAXW4script_option_t@2@@Z 000000018001bf10 f   cell.obj
 0001:0001af10       xlsCellFontscript          000000018001bf10 f   cbridge.obj
 0001:0001af50       xlsCellFontcolor           000000018001bf50 f   cbridge.obj
 0001:0001af50       ?fontcolor@cell_t@xlslib_core@@QEAAXW4color_name_t@2@@Z 000000018001bf50 f   cell.obj
 0001:0001af90       xlsCellFontitalic          000000018001bf90 f   cbridge.obj
 0001:0001af90       ?fontitalic@cell_t@xlslib_core@@QEAAX_N@Z 000000018001bf90 f   cell.obj
 0001:0001afe0       xlsCellFontstrikeout       000000018001bfe0 f   cbridge.obj
 0001:0001afe0       ?fontstrikeout@cell_t@xlslib_core@@QEAAX_N@Z 000000018001bfe0 f   cell.obj
 0001:0001b030       ?fontoutline@cell_t@xlslib_core@@QEAAX_N@Z 000000018001c030 f   cell.obj
 0001:0001b030       xlsCellFontoutline         000000018001c030 f   cbridge.obj
 0001:0001b080       ?fontshadow@cell_t@xlslib_core@@QEAAX_N@Z 000000018001c080 f   cell.obj
 0001:0001b080       xlsCellFontshadow          000000018001c080 f   cbridge.obj
 0001:0001b0d0       xlsRangeCellcolor          000000018001c0d0 f   cbridge.obj
 0001:0001b0e0       xlsXformatSetFont          000000018001c0e0 f   cbridge.obj
 0001:0001b0e0       ?SetFont@xf_t@xlslib_core@@QEAAXPEAVfont_t@2@@Z 000000018001c0e0 f   extformat.obj
 0001:0001b130       ?GetFontIndex@xf_t@xlslib_core@@QEBAGXZ 000000018001c130 f   extformat.obj
 0001:0001b130       xlsXformatGetFontIndex     000000018001c130 f   cbridge.obj
 0001:0001b140       xlsXformatGetFont          000000018001c140 f   cbridge.obj
 0001:0001b140       ?GetFont@xf_t@xlslib_core@@QEBAPEAVfont_t@2@XZ 000000018001c140 f   extformat.obj
 0001:0001b150       xlsXformatSetFormat        000000018001c150 f   cbridge.obj
 0001:0001b150       ?SetFormat@xf_t@xlslib_core@@QEAAXW4format_number_t@2@@Z 000000018001c150 f   extformat.obj
 0001:0001b1a0       xlsXformatSetFormatP       000000018001c1a0 f   cbridge.obj
 0001:0001b1a0       ?SetFormat@xf_t@xlslib_core@@QEAAXPEAVformat_t@2@@Z 000000018001c1a0 f   extformat.obj
 0001:0001b200       xlsXformatSetHAlign        000000018001c200 f   cbridge.obj
 0001:0001b200       ?SetHAlign@xf_t@xlslib_core@@QEAAXW4halign_option_t@2@@Z 000000018001c200 f   extformat.obj
 0001:0001b250       xlsXformatGetHAlign        000000018001c250 f   cbridge.obj
 0001:0001b250       ?GetHAlign@xf_t@xlslib_core@@QEBAEXZ 000000018001c250 f   extformat.obj
 0001:0001b260       ?SetVAlign@xf_t@xlslib_core@@QEAAXW4valign_option_t@2@@Z 000000018001c260 f   extformat.obj
 0001:0001b260       xlsXformatSetVAlign        000000018001c260 f   cbridge.obj
 0001:0001b2b0       xlsXformatGetVAlign        000000018001c2b0 f   cbridge.obj
 0001:0001b2b0       ?GetVAlign@xf_t@xlslib_core@@QEBAEXZ 000000018001c2b0 f   extformat.obj
 0001:0001b2c0       ?SetIndent@xf_t@xlslib_core@@QEAAXW4indent_option_t@2@@Z 000000018001c2c0 f   extformat.obj
 0001:0001b2c0       xlsXformatSetIndent        000000018001c2c0 f   cbridge.obj
 0001:0001b310       xlsXformatGetIndent        000000018001c310 f   cbridge.obj
 0001:0001b310       ?GetIndent@xf_t@xlslib_core@@QEBAEXZ 000000018001c310 f   extformat.obj
 0001:0001b320       ?SetTxtOrientation@xf_t@xlslib_core@@QEAAXW4txtori_option_t@2@@Z 000000018001c320 f   extformat.obj
 0001:0001b320       xlsXformatSetTxtOrientation 000000018001c320 f   cbridge.obj
 0001:0001b370       xlsXformatGetTxtOrientation 000000018001c370 f   cbridge.obj
 0001:0001b370       ?GetTxtOrientation@xf_t@xlslib_core@@QEBAEXZ 000000018001c370 f   extformat.obj
 0001:0001b380       xlsXformatSetFillFGColor   000000018001c380 f   cbridge.obj
 0001:0001b380       ?SetFillFGColor@xf_t@xlslib_core@@QEAAXW4color_name_t@2@@Z 000000018001c380 f   extformat.obj
 0001:0001b3d0       ?GetFillFGColorIdx@xf_t@xlslib_core@@QEBAGXZ 000000018001c3d0 f   extformat.obj
 0001:0001b3d0       xlsXformatGetFillFGColorIdx 000000018001c3d0 f   cbridge.obj
 0001:0001b3e0       ?SetFillBGColor@xf_t@xlslib_core@@QEAAXW4color_name_t@2@@Z 000000018001c3e0 f   extformat.obj
 0001:0001b3e0       xlsXformatSetFillBGColor   000000018001c3e0 f   cbridge.obj
 0001:0001b430       xlsXformatGetFillBGColorIdx 000000018001c430 f   cbridge.obj
 0001:0001b430       ?GetFillBGColorIdx@xf_t@xlslib_core@@QEBAGXZ 000000018001c430 f   extformat.obj
 0001:0001b440       xlsXformatSetFillStyle     000000018001c440 f   cbridge.obj
 0001:0001b440       ?SetFillStyle@xf_t@xlslib_core@@QEAAXW4fill_option_t@2@@Z 000000018001c440 f   extformat.obj
 0001:0001b490       xlsXformatGetFillStyle     000000018001c490 f   cbridge.obj
 0001:0001b490       ?GetFillStyle@xf_t@xlslib_core@@QEBAEXZ 000000018001c490 f   extformat.obj
 0001:0001b4a0       xlsXformatSetLocked        000000018001c4a0 f   cbridge.obj
 0001:0001b4a0       ?SetLocked@xf_t@xlslib_core@@QEAAX_N@Z 000000018001c4a0 f   extformat.obj
 0001:0001b4f0       xlsXformatIsLocked         000000018001c4f0 f   cbridge.obj
 0001:0001b4f0       ?IsLocked@xf_t@xlslib_core@@QEBA_NXZ 000000018001c4f0 f   extformat.obj
 0001:0001b500       ?SetHidden@xf_t@xlslib_core@@QEAAX_N@Z 000000018001c500 f   extformat.obj
 0001:0001b500       xlsXformatSetHidden        000000018001c500 f   cbridge.obj
 0001:0001b550       xlsXformatIsHidden         000000018001c550 f   cbridge.obj
 0001:0001b550       ?IsHidden@xf_t@xlslib_core@@QEBA_NXZ 000000018001c550 f   extformat.obj
 0001:0001b560       ?SetWrap@xf_t@xlslib_core@@QEAAX_N@Z 000000018001c560 f   extformat.obj
 0001:0001b560       xlsXformatSetWrap          000000018001c560 f   cbridge.obj
 0001:0001b5b0       xlsXformatIsWrap           000000018001c5b0 f   cbridge.obj
 0001:0001b5b0       ?IsWrap@xf_t@xlslib_core@@QEBA_NXZ 000000018001c5b0 f   extformat.obj
 0001:0001b5c0       xlsXformatSetBorderStyle   000000018001c5c0 f   cbridge.obj
 0001:0001b5c0       ?SetBorderStyle@xf_t@xlslib_core@@QEAAXW4border_side_t@2@W4border_style_t@2@@Z 000000018001c5c0 f   extformat.obj
 0001:0001b620       xlsXformatSetBorderColor   000000018001c620 f   cbridge.obj
 0001:0001b620       ?SetBorderColor@xf_t@xlslib_core@@QEAAXW4border_side_t@2@W4color_name_t@2@@Z 000000018001c620 f   extformat.obj
 0001:0001b670       xlsXformatSetBorderColorIdx 000000018001c670 f   cbridge.obj
 0001:0001b670       ?SetBorderColor@xf_t@xlslib_core@@QEAAXW4border_side_t@2@E@Z 000000018001c670 f   extformat.obj
 0001:0001b6b0       ?GetBorderStyle@xf_t@xlslib_core@@QEBAEW4border_side_t@2@@Z 000000018001c6b0 f   extformat.obj
 0001:0001b6b0       xlsXformatGetBorderStyle   000000018001c6b0 f   cbridge.obj
 0001:0001b6c0       xlsXformatGetBorderColorIdx 000000018001c6c0 f   cbridge.obj
 0001:0001b6c0       ?GetBorderColorIdx@xf_t@xlslib_core@@QEBAGW4border_side_t@2@@Z 000000018001c6c0 f   extformat.obj
 0001:0001b6d0       xlsFontSetName             000000018001c6d0 f   cbridge.obj
 0001:0001b7c0       xlsFontGetName             000000018001c7c0 f   cbridge.obj
 0001:0001b820       ?SetHeight@font_t@xlslib_core@@QEAAXG@Z 000000018001c820 f   font.obj
 0001:0001b820       xlsFontSetHeight           000000018001c820 f   cbridge.obj
 0001:0001b830       ?GetHeight@font_t@xlslib_core@@QEBAGXZ 000000018001c830 f   font.obj
 0001:0001b830       xlsFontGetHeight           000000018001c830 f   cbridge.obj
 0001:0001b840       ?SetBoldStyle@font_t@xlslib_core@@QEAAXW4boldness_option_t@2@@Z 000000018001c840 f   font.obj
 0001:0001b840       xlsFontSetBoldStyle        000000018001c840 f   cbridge.obj
 0001:0001b860       xlsFontGetBoldStyle        000000018001c860 f   cbridge.obj
 0001:0001b860       ?GetBoldStyle@font_t@xlslib_core@@QEBAGXZ 000000018001c860 f   font.obj
 0001:0001b870       xlsFontSetUnderlineStyle   000000018001c870 f   cbridge.obj
 0001:0001b870       ?SetUnderlineStyle@font_t@xlslib_core@@QEAAXW4underline_option_t@2@@Z 000000018001c870 f   font.obj
 0001:0001b890       xlsFontGetUnderlineStyle   000000018001c890 f   cbridge.obj
 0001:0001b890       ?GetUnderlineStyle@font_t@xlslib_core@@QEBAEXZ 000000018001c890 f   font.obj
 0001:0001b8a0       xlsFontSetScriptStyle      000000018001c8a0 f   cbridge.obj
 0001:0001b8a0       ?SetScriptStyle@font_t@xlslib_core@@QEAAXW4script_option_t@2@@Z 000000018001c8a0 f   font.obj
 0001:0001b8c0       xlsFontGetScriptStyle      000000018001c8c0 f   cbridge.obj
 0001:0001b8c0       ?GetScriptStyle@font_t@xlslib_core@@QEBAGXZ 000000018001c8c0 f   font.obj
 0001:0001b8d0       xlsFontSetColor            000000018001c8d0 f   cbridge.obj
 0001:0001b8d0       ?SetColor@font_t@xlslib_core@@QEAAXW4color_name_t@2@@Z 000000018001c8d0 f   font.obj
 0001:0001b8f0       ?GetColorIdx@font_t@xlslib_core@@QEBAGXZ 000000018001c8f0 f   font.obj
 0001:0001b8f0       xlsFontGetColorIdx         000000018001c8f0 f   cbridge.obj
 0001:0001b900       xlsFontSetItalic           000000018001c900 f   cbridge.obj
 0001:0001b900       ?SetItalic@font_t@xlslib_core@@QEAAX_N@Z 000000018001c900 f   font.obj
 0001:0001b920       ?SetStrikeout@font_t@xlslib_core@@QEAAX_N@Z 000000018001c920 f   font.obj
 0001:0001b920       xlsFontSetStrikeout        000000018001c920 f   cbridge.obj
 0001:0001b940       ?SetOutline@font_t@xlslib_core@@QEAAX_N@Z 000000018001c940 f   font.obj
 0001:0001b940       xlsFontSetOutline          000000018001c940 f   cbridge.obj
 0001:0001b960       xlsFontSetShadow           000000018001c960 f   cbridge.obj
 0001:0001b960       ?SetShadow@font_t@xlslib_core@@QEAAX_N@Z 000000018001c960 f   font.obj
 0001:0001b980       xlsFontGetAttributes       000000018001c980 f   cbridge.obj
 0001:0001b980       ?GetAttributes@font_t@xlslib_core@@QEBAGXZ 000000018001c980 f   font.obj
 0001:0001b990       xlsXformatIsCell           000000018001c990 f   cbridge.obj
 0001:0001b990       ?IsCell@xf_t@xlslib_core@@QEBA_NXZ 000000018001c990 f   extformat.obj
 0001:0001b9a0       xlsXformatSetCellMode      000000018001c9a0 f   cbridge.obj
 0001:0001b9a0       ?SetCellMode@xf_t@xlslib_core@@QEAAX_N@Z 000000018001c9a0 f   extformat.obj
 0001:0001b9c0       ?GetFormatIndex@xf_t@xlslib_core@@QEBAGXZ 000000018001c9c0 f   extformat.obj
 0001:0001b9c0       xlsXformatGetFormatIndex   000000018001c9c0 f   cbridge.obj
 0001:0001b9d0       xlsXformatGetFormat        000000018001c9d0 f   cbridge.obj
 0001:0001ba00       xlsCellSetXF               000000018001ca00 f   cbridge.obj
 0001:0001ba00       ?SetXF@cell_t@xlslib_core@@QEAAXPEAVxf_t@2@@Z 000000018001ca00 f   cell.obj
 0001:0001ba60       ?GetXFIndex@cell_t@xlslib_core@@QEBAGXZ 000000018001ca60 f   cell.obj
 0001:0001ba60       xlsCellGetXFIndex          000000018001ca60 f   cbridge.obj
 0001:0001ba70       ?push_back@?$vector@NV?$allocator@N@std@@@std@@QEAAXAEBN@Z 000000018001ca70 f i cbridge.obj
 0001:0001bb00       ??1?$vector@PEBVlabel_t@xlslib_core@@V?$allocator@PEBVlabel_t@xlslib_core@@@std@@@std@@QEAA@XZ 000000018001cb00 f i globalrec.obj
 0001:0001bb00       ?_Tidy@?$vector@PEAVboundsheet_t@xlslib_core@@V?$allocator@PEAVboundsheet_t@xlslib_core@@@std@@@std@@IEAAXXZ 000000018001cb00 f i globalrec.obj
 0001:0001bb00       ?_Tidy@?$vector@PEAVCOleProp@xlslib_core@@V?$allocator@PEAVCOleProp@xlslib_core@@@std@@@std@@IEAAXXZ 000000018001cb00 f i oledoc.obj
 0001:0001bb00       ??1?$vector@_KV?$allocator@_K@std@@@std@@QEAA@XZ 000000018001cb00 f i sheetrec.obj
 0001:0001bb00       ??1?$vector@PEAVCOleProp@xlslib_core@@V?$allocator@PEAVCOleProp@xlslib_core@@@std@@@std@@QEAA@XZ 000000018001cb00 f i oledoc.obj
 0001:0001bb00       ?_Tidy@?$vector@PEAVrange_t@xlslib_core@@V?$allocator@PEAVrange_t@xlslib_core@@@std@@@std@@IEAAXXZ 000000018001cb00 f i sheetrec.obj
 0001:0001bb00       ?_Tidy@?$vector@PEAUstyle_t@xlslib_core@@V?$allocator@PEAUstyle_t@xlslib_core@@@std@@@std@@IEAAXXZ 000000018001cb00 f i globalrec.obj
 0001:0001bb00       ?_Tidy@?$vector@PEAVrange@xlslib_core@@V?$allocator@PEAVrange@xlslib_core@@@std@@@std@@IEAAXXZ 000000018001cb00 f i sheetrec.obj
 0001:0001bb00       ?_Tidy@?$vector@PEAUHyperLink@xlslib_core@@V?$allocator@PEAUHyperLink@xlslib_core@@@std@@@std@@IEAAXXZ 000000018001cb00 f i sheetrec.obj
 0001:0001bb00       ?_Tidy@?$vector@PEAVfont_t@xlslib_core@@V?$allocator@PEAVfont_t@xlslib_core@@@std@@@std@@IEAAXXZ 000000018001cb00 f i globalrec.obj
 0001:0001bb00       ??1?$vector@PEAVxf_t@xlslib_core@@V?$allocator@PEAVxf_t@xlslib_core@@@std@@@std@@QEAA@XZ 000000018001cb00 f i globalrec.obj
 0001:0001bb00       ??1?$vector@PEAVformat_t@xlslib_core@@V?$allocator@PEAVformat_t@xlslib_core@@@std@@@std@@QEAA@XZ 000000018001cb00 f i globalrec.obj
 0001:0001bb00       ?_Tidy@?$vector@NV?$allocator@N@std@@@std@@IEAAXXZ 000000018001cb00 f i cbridge.obj
 0001:0001bb00       ??1?$vector@PEAUDataValidation@xlslib_core@@V?$allocator@PEAUDataValidation@xlslib_core@@@std@@@std@@QEAA@XZ 000000018001cb00 f i sheetrec.obj
 0001:0001bb00       ??1?$vector@PEAVformula_t@xlslib_core@@V?$allocator@PEAVformula_t@xlslib_core@@@std@@@std@@QEAA@XZ 000000018001cb00 f i sheetrec.obj
 0001:0001bb00       ?_Tidy@?$vector@PEBVlabel_t@xlslib_core@@V?$allocator@PEBVlabel_t@xlslib_core@@@std@@@std@@IEAAXXZ 000000018001cb00 f i globalrec.obj
 0001:0001bb00       ?_Tidy@?$vector@PEAUDataValidation@xlslib_core@@V?$allocator@PEAUDataValidation@xlslib_core@@@std@@@std@@IEAAXXZ 000000018001cb00 f i sheetrec.obj
 0001:0001bb00       ??1?$vector@PEAVworksheet@xlslib_core@@V?$allocator@PEAVworksheet@xlslib_core@@@std@@@std@@QEAA@XZ 000000018001cb00 f i workbook.obj
 0001:0001bb00       ?_Tidy@?$vector@PEAVworksheet@xlslib_core@@V?$allocator@PEAVworksheet@xlslib_core@@@std@@@std@@IEAAXXZ 000000018001cb00 f i workbook.obj
 0001:0001bb00       ??1?$vector@NV?$allocator@N@std@@@std@@QEAA@XZ 000000018001cb00 f i cbridge.obj
 0001:0001bb00       ??1?$vector@PEAUstyle_t@xlslib_core@@V?$allocator@PEAUstyle_t@xlslib_core@@@std@@@std@@QEAA@XZ 000000018001cb00 f i globalrec.obj
 0001:0001bb00       ??1?$vector@PEAUHyperLink@xlslib_core@@V?$allocator@PEAUHyperLink@xlslib_core@@@std@@@std@@QEAA@XZ 000000018001cb00 f i sheetrec.obj
 0001:0001bb00       ??1?$vector@PEAVboundsheet_t@xlslib_core@@V?$allocator@PEAVboundsheet_t@xlslib_core@@@std@@@std@@QEAA@XZ 000000018001cb00 f i globalrec.obj
 0001:0001bb00       ??1?$vector@PEAVfont_t@xlslib_core@@V?$allocator@PEAVfont_t@xlslib_core@@@std@@@std@@QEAA@XZ 000000018001cb00 f i globalrec.obj
 0001:0001bb00       ?_Tidy@?$vector@PEAVCUnit@xlslib_core@@V?$allocator@PEAVCUnit@xlslib_core@@@std@@@std@@IEAAXXZ 000000018001cb00 f i datast.obj
 0001:0001bb00       ?_Tidy@?$vector@_KV?$allocator@_K@std@@@std@@IEAAXXZ 000000018001cb00 f i sheetrec.obj
 0001:0001bb00       ??1?$vector@PEAVrange_t@xlslib_core@@V?$allocator@PEAVrange_t@xlslib_core@@@std@@@std@@QEAA@XZ 000000018001cb00 f i sheetrec.obj
 0001:0001bb00       ??1?$vector@PEAVrange@xlslib_core@@V?$allocator@PEAVrange@xlslib_core@@@std@@@std@@QEAA@XZ 000000018001cb00 f i sheetrec.obj
 0001:0001bb00       ?_Tidy@?$vector@PEAVformula_t@xlslib_core@@V?$allocator@PEAVformula_t@xlslib_core@@@std@@@std@@IEAAXXZ 000000018001cb00 f i sheetrec.obj
 0001:0001bb00       ?_Tidy@?$vector@PEAVxf_t@xlslib_core@@V?$allocator@PEAVxf_t@xlslib_core@@@std@@@std@@IEAAXXZ 000000018001cb00 f i globalrec.obj
 0001:0001bb00       ?_Tidy@?$vector@PEAVformat_t@xlslib_core@@V?$allocator@PEAVformat_t@xlslib_core@@@std@@@std@@IEAAXXZ 000000018001cb00 f i globalrec.obj
 0001:0001bb00       ??1?$vector@PEAVCUnit@xlslib_core@@V?$allocator@PEAVCUnit@xlslib_core@@@std@@@std@@QEAA@XZ 000000018001cb00 f i datast.obj
 0001:0001bb40       ??0?$vector@V?$basic_string@_WU?$char_traits@_W@std@@V?$allocator@_W@2@@std@@V?$allocator@V?$basic_string@_WU?$char_traits@_W@std@@V?$allocator@_W@2@@std@@@2@@std@@QEAA@XZ 000000018001cb40 f i cbridge.obj
 0001:0001bb40       ??0?$_Vector_val@U?$_Simple_types@PEAVboundsheet_t@xlslib_core@@@std@@@std@@QEAA@XZ 000000018001cb40 f i globalrec.obj
 0001:0001bb40       ??0?$_Vector_val@U?$_Simple_types@PEAVCUnit@xlslib_core@@@std@@@std@@QEAA@XZ 000000018001cb40 f i datast.obj
 0001:0001bb40       ??0?$vector@PEAUstyle_t@xlslib_core@@V?$allocator@PEAUstyle_t@xlslib_core@@@std@@@std@@QEAA@XZ 000000018001cb40 f i globalrec.obj
 0001:0001bb40       ??$?0$$V@?$_Compressed_pair@U?$_Wrap_alloc@V?$allocator@VCUnitStore@xlslib_core@@@std@@@std@@V?$_Vector_val@U?$_Simple_types@VCUnitStore@xlslib_core@@@std@@@2@$00@std@@QEAA@U_Zero_then_variadic_args_t@1@@Z 000000018001cb40 f i datast.obj
 0001:0001bb40       ??0?$_Vector_val@U?$_Simple_types@Urowblocksize_t@xlslib_core@@@std@@@std@@QEAA@XZ 000000018001cb40 f i sheetrec.obj
 0001:0001bb40       ??0?$_Vector_alloc@U?$_Vec_base_types@V?$basic_string@DU?$char_traits@D@std@@V?$allocator@D@2@@std@@V?$allocator@V?$basic_string@DU?$char_traits@D@std@@V?$allocator@D@2@@std@@@2@@std@@@std@@QEAA@XZ 000000018001cb40 f i cbridge.obj
 0001:0001bb40       ??0?$_Vector_alloc@U?$_Vec_base_types@PEAVCUnit@xlslib_core@@V?$allocator@PEAVCUnit@xlslib_core@@@std@@@std@@@std@@QEAA@XZ 000000018001cb40 f i datast.obj
 0001:0001bb40       ??0?$_Vector_alloc@U?$_Vec_base_types@PEAVworksheet@xlslib_core@@V?$allocator@PEAVworksheet@xlslib_core@@@std@@@std@@@std@@QEAA@XZ 000000018001cb40 f i workbook.obj
 0001:0001bb40       ??0?$vector@PEAVformula_t@xlslib_core@@V?$allocator@PEAVformula_t@xlslib_core@@@std@@@std@@QEAA@XZ 000000018001cb40 f i sheetrec.obj
 0001:0001bb40       ??0?$vector@PEBVlabel_t@xlslib_core@@V?$allocator@PEBVlabel_t@xlslib_core@@@std@@@std@@QEAA@XZ 000000018001cb40 f i globalrec.obj
 0001:0001bb40       ??0?$vector@PEAUDataValidation@xlslib_core@@V?$allocator@PEAUDataValidation@xlslib_core@@@std@@@std@@QEAA@XZ 000000018001cb40 f i sheetrec.obj
 0001:0001bb40       ??$?0$$V@?$_Compressed_pair@U?$_Wrap_alloc@V?$allocator@PEAUstyle_t@xlslib_core@@@std@@@std@@V?$_Vector_val@U?$_Simple_types@PEAUstyle_t@xlslib_core@@@std@@@2@$00@std@@QEAA@U_Zero_then_variadic_args_t@1@@Z 000000018001cb40 f i globalrec.obj
 0001:0001bb40       ??0?$_Vector_val@U?$_Simple_types@PEAVrange_t@xlslib_core@@@std@@@std@@QEAA@XZ 000000018001cb40 f i sheetrec.obj
 0001:0001bb40       ??$?0$$V@?$_Compressed_pair@U?$_Wrap_alloc@V?$allocator@PEBVlabel_t@xlslib_core@@@std@@@std@@V?$_Vector_val@U?$_Simple_types@PEBVlabel_t@xlslib_core@@@std@@@2@$00@std@@QEAA@U_Zero_then_variadic_args_t@1@@Z 000000018001cb40 f i globalrec.obj
 0001:0001bb40       ??0?$_Vector_alloc@U?$_Vec_base_types@PEAVrange_t@xlslib_core@@V?$allocator@PEAVrange_t@xlslib_core@@@std@@@std@@@std@@QEAA@XZ 000000018001cb40 f i sheetrec.obj
 0001:0001bb40       ??$?0$$V@?$_Compressed_pair@U?$_Wrap_alloc@V?$allocator@PEAVCOleProp@xlslib_core@@@std@@@std@@V?$_Vector_val@U?$_Simple_types@PEAVCOleProp@xlslib_core@@@std@@@2@$00@std@@QEAA@U_Zero_then_variadic_args_t@1@@Z 000000018001cb40 f i oledoc.obj
 0001:0001bb40       ??0?$vector@_KV?$allocator@_K@std@@@std@@QEAA@XZ 000000018001cb40 f i sheetrec.obj
 0001:0001bb40       ??0?$_Vector_val@U?$_Simple_types@VCUnitStore@xlslib_core@@@std@@@std@@QEAA@XZ 000000018001cb40 f i datast.obj
 0001:0001bb40       ??$?0$$V@?$_Compressed_pair@U?$_Wrap_alloc@V?$allocator@_K@std@@@std@@V?$_Vector_val@U?$_Simple_types@_K@std@@@2@$00@std@@QEAA@U_Zero_then_variadic_args_t@1@@Z 000000018001cb40 f i sheetrec.obj
 0001:0001bb40       ??0?$vector@NV?$allocator@N@std@@@std@@QEAA@XZ 000000018001cb40 f i cbridge.obj
 0001:0001bb40       ??$?0$$V@?$_Compressed_pair@U?$_Wrap_alloc@V?$allocator@PEAVrange@xlslib_core@@@std@@@std@@V?$_Vector_val@U?$_Simple_types@PEAVrange@xlslib_core@@@std@@@2@$00@std@@QEAA@U_Zero_then_variadic_args_t@1@@Z 000000018001cb40 f i sheetrec.obj
 0001:0001bb40       ??$?0$$V@?$_Compressed_pair@U?$_Wrap_alloc@V?$allocator@Urowblocksize_t@xlslib_core@@@std@@@std@@V?$_Vector_val@U?$_Simple_types@Urowblocksize_t@xlslib_core@@@std@@@2@$00@std@@QEAA@U_Zero_then_variadic_args_t@1@@Z 000000018001cb40 f i sheetrec.obj
 0001:0001bb40       ??0?$_Vector_alloc@U?$_Vec_base_types@PEAVfont_t@xlslib_core@@V?$allocator@PEAVfont_t@xlslib_core@@@std@@@std@@@std@@QEAA@XZ 000000018001cb40 f i globalrec.obj
 0001:0001bb40       ??0?$_Vector_alloc@U?$_Vec_base_types@Urowblocksize_t@xlslib_core@@V?$allocator@Urowblocksize_t@xlslib_core@@@std@@@std@@@std@@QEAA@XZ 000000018001cb40 f i sheetrec.obj
 0001:0001bb40       ??$?0$$V@?$_Compressed_pair@U?$_Wrap_alloc@V?$allocator@PEAVrange_t@xlslib_core@@@std@@@std@@V?$_Vector_val@U?$_Simple_types@PEAVrange_t@xlslib_core@@@std@@@2@$00@std@@QEAA@U_Zero_then_variadic_args_t@1@@Z 000000018001cb40 f i sheetrec.obj
 0001:0001bb40       ??0?$vector@V?$basic_string@DU?$char_traits@D@std@@V?$allocator@D@2@@std@@V?$allocator@V?$basic_string@DU?$char_traits@D@std@@V?$allocator@D@2@@std@@@2@@std@@QEAA@XZ 000000018001cb40 f i cbridge.obj
 0001:0001bb40       ??0?$_Vector_val@U?$_Simple_types@PEAVCOleProp@xlslib_core@@@std@@@std@@QEAA@XZ 000000018001cb40 f i oledoc.obj
 0001:0001bb40       ??0?$_Vector_alloc@U?$_Vec_base_types@PEAVrange@xlslib_core@@V?$allocator@PEAVrange@xlslib_core@@@std@@@std@@@std@@QEAA@XZ 000000018001cb40 f i sheetrec.obj
 0001:0001bb40       ??$?0$$V@?$_Compressed_pair@U?$_Wrap_alloc@V?$allocator@PEAVworksheet@xlslib_core@@@std@@@std@@V?$_Vector_val@U?$_Simple_types@PEAVworksheet@xlslib_core@@@std@@@2@$00@std@@QEAA@U_Zero_then_variadic_args_t@1@@Z 000000018001cb40 f i workbook.obj
 0001:0001bb40       ??$?0$$V@?$_Compressed_pair@U?$_Wrap_alloc@V?$allocator@V?$basic_string@_WU?$char_traits@_W@std@@V?$allocator@_W@2@@std@@@std@@@std@@V?$_Vector_val@U?$_Simple_types@V?$basic_string@_WU?$char_traits@_W@std@@V?$allocator@_W@2@@std@@@std@@@2@$00@std@@QEAA@U_Zero_then_variadic_args_t@1@@Z 000000018001cb40 f i cbridge.obj
 0001:0001bb40       ??0?$vector@PEAVCUnit@xlslib_core@@V?$allocator@PEAVCUnit@xlslib_core@@@std@@@std@@QEAA@XZ 000000018001cb40 f i datast.obj
 0001:0001bb40       ??0?$_Vector_val@U?$_Simple_types@V?$basic_string@_WU?$char_traits@_W@std@@V?$allocator@_W@2@@std@@@std@@@std@@QEAA@XZ 000000018001cb40 f i cbridge.obj
 0001:0001bb40       ??0?$_Vector_val@U?$_Simple_types@N@std@@@std@@QEAA@XZ 000000018001cb40 f i cbridge.obj
 0001:0001bb40       ??0?$_Vector_alloc@U?$_Vec_base_types@PEAUstyle_t@xlslib_core@@V?$allocator@PEAUstyle_t@xlslib_core@@@std@@@std@@@std@@QEAA@XZ 000000018001cb40 f i globalrec.obj
 0001:0001bb40       ??0?$_Vector_val@U?$_Simple_types@PEBVlabel_t@xlslib_core@@@std@@@std@@QEAA@XZ 000000018001cb40 f i globalrec.obj
 0001:0001bb40       ??0?$_Vector_alloc@U?$_Vec_base_types@NV?$allocator@N@std@@@std@@@std@@QEAA@XZ 000000018001cb40 f i cbridge.obj
 0001:0001bb40       ??0?$_Vector_val@U?$_Simple_types@PEAVxf_t@xlslib_core@@@std@@@std@@QEAA@XZ 000000018001cb40 f i globalrec.obj
 0001:0001bb40       ??0?$_Vector_alloc@U?$_Vec_base_types@V?$basic_string@_WU?$char_traits@_W@std@@V?$allocator@_W@2@@std@@V?$allocator@V?$basic_string@_WU?$char_traits@_W@std@@V?$allocator@_W@2@@std@@@2@@std@@@std@@QEAA@XZ 000000018001cb40 f i cbridge.obj
 0001:0001bb40       ??0?$_Vector_alloc@U?$_Vec_base_types@PEAVformula_t@xlslib_core@@V?$allocator@PEAVformula_t@xlslib_core@@@std@@@std@@@std@@QEAA@XZ 000000018001cb40 f i sheetrec.obj
 0001:0001bb40       ??0?$_Vector_val@U?$_Simple_types@PEAVrange@xlslib_core@@@std@@@std@@QEAA@XZ 000000018001cb40 f i sheetrec.obj
 0001:0001bb40       ??0?$vector@PEAVrange_t@xlslib_core@@V?$allocator@PEAVrange_t@xlslib_core@@@std@@@std@@QEAA@XZ 000000018001cb40 f i sheetrec.obj
 0001:0001bb40       ??$?0$$V@?$_Compressed_pair@U?$_Wrap_alloc@V?$allocator@PEAVformula_t@xlslib_core@@@std@@@std@@V?$_Vector_val@U?$_Simple_types@PEAVformula_t@xlslib_core@@@std@@@2@$00@std@@QEAA@U_Zero_then_variadic_args_t@1@@Z 000000018001cb40 f i sheetrec.obj
 0001:0001bb40       ??0?$_Vector_val@U?$_Simple_types@PEAUHyperLink@xlslib_core@@@std@@@std@@QEAA@XZ 000000018001cb40 f i sheetrec.obj
 0001:0001bb40       ??0?$_Vector_alloc@U?$_Vec_base_types@PEBVlabel_t@xlslib_core@@V?$allocator@PEBVlabel_t@xlslib_core@@@std@@@std@@@std@@QEAA@XZ 000000018001cb40 f i globalrec.obj
 0001:0001bb40       ??0?$_Vector_alloc@U?$_Vec_base_types@PEAUDataValidation@xlslib_core@@V?$allocator@PEAUDataValidation@xlslib_core@@@std@@@std@@@std@@QEAA@XZ 000000018001cb40 f i sheetrec.obj
 0001:0001bb40       ??0?$_Vector_alloc@U?$_Vec_base_types@PEAUHyperLink@xlslib_core@@V?$allocator@PEAUHyperLink@xlslib_core@@@std@@@std@@@std@@QEAA@XZ 000000018001cb40 f i sheetrec.obj
 0001:0001bb40       ??0?$_Vector_val@U?$_Simple_types@PEAVworksheet@xlslib_core@@@std@@@std@@QEAA@XZ 000000018001cb40 f i workbook.obj
 0001:0001bb40       ??0?$vector@PEAUHyperLink@xlslib_core@@V?$allocator@PEAUHyperLink@xlslib_core@@@std@@@std@@QEAA@XZ 000000018001cb40 f i sheetrec.obj
 0001:0001bb40       ??0?$vector@PEAVformat_t@xlslib_core@@V?$allocator@PEAVformat_t@xlslib_core@@@std@@@std@@QEAA@XZ 000000018001cb40 f i globalrec.obj
 0001:0001bb40       ??0?$vector@Urowblocksize_t@xlslib_core@@V?$allocator@Urowblocksize_t@xlslib_core@@@std@@@std@@QEAA@XZ 000000018001cb40 f i sheetrec.obj
 0001:0001bb40       ??$?0$$V@?$_Compressed_pair@U?$_Wrap_alloc@V?$allocator@PEAUHyperLink@xlslib_core@@@std@@@std@@V?$_Vector_val@U?$_Simple_types@PEAUHyperLink@xlslib_core@@@std@@@2@$00@std@@QEAA@U_Zero_then_variadic_args_t@1@@Z 000000018001cb40 f i sheetrec.obj
 0001:0001bb40       ??0?$_Vector_alloc@U?$_Vec_base_types@PEAVCOleProp@xlslib_core@@V?$allocator@PEAVCOleProp@xlslib_core@@@std@@@std@@@std@@QEAA@XZ 000000018001cb40 f i oledoc.obj
 0001:0001bb40       ??$?0$$V@?$_Compressed_pair@U?$_Wrap_alloc@V?$allocator@PEAVxf_t@xlslib_core@@@std@@@std@@V?$_Vector_val@U?$_Simple_types@PEAVxf_t@xlslib_core@@@std@@@2@$00@std@@QEAA@U_Zero_then_variadic_args_t@1@@Z 000000018001cb40 f i globalrec.obj
 0001:0001bb40       ??0?$_Vector_alloc@U?$_Vec_base_types@PEAVxf_t@xlslib_core@@V?$allocator@PEAVxf_t@xlslib_core@@@std@@@std@@@std@@QEAA@XZ 000000018001cb40 f i globalrec.obj
 0001:0001bb40       ??0?$_Vector_val@U?$_Simple_types@_K@std@@@std@@QEAA@XZ 000000018001cb40 f i sheetrec.obj
 0001:0001bb40       ??$?0$$V@?$_Compressed_pair@U?$_Wrap_alloc@V?$allocator@PEAUDataValidation@xlslib_core@@@std@@@std@@V?$_Vector_val@U?$_Simple_types@PEAUDataValidation@xlslib_core@@@std@@@2@$00@std@@QEAA@U_Zero_then_variadic_args_t@1@@Z 000000018001cb40 f i sheetrec.obj
 0001:0001bb40       ??0?$_Vector_alloc@U?$_Vec_base_types@VCUnitStore@xlslib_core@@V?$allocator@VCUnitStore@xlslib_core@@@std@@@std@@@std@@QEAA@XZ 000000018001cb40 f i datast.obj
 0001:0001bb40       ??0?$_Vector_val@U?$_Simple_types@V?$basic_string@DU?$char_traits@D@std@@V?$allocator@D@2@@std@@@std@@@std@@QEAA@XZ 000000018001cb40 f i cbridge.obj
 0001:0001bb40       ??0?$vector@PEAVfont_t@xlslib_core@@V?$allocator@PEAVfont_t@xlslib_core@@@std@@@std@@QEAA@XZ 000000018001cb40 f i globalrec.obj
 0001:0001bb40       ??$?0$$V@?$_Compressed_pair@U?$_Wrap_alloc@V?$allocator@PEAVboundsheet_t@xlslib_core@@@std@@@std@@V?$_Vector_val@U?$_Simple_types@PEAVboundsheet_t@xlslib_core@@@std@@@2@$00@std@@QEAA@U_Zero_then_variadic_args_t@1@@Z 000000018001cb40 f i globalrec.obj
 0001:0001bb40       ??$?0$$V@?$_Compressed_pair@U?$_Wrap_alloc@V?$allocator@PEAVfont_t@xlslib_core@@@std@@@std@@V?$_Vector_val@U?$_Simple_types@PEAVfont_t@xlslib_core@@@std@@@2@$00@std@@QEAA@U_Zero_then_variadic_args_t@1@@Z 000000018001cb40 f i globalrec.obj
 0001:0001bb40       ??0?$vector@PEAVrange@xlslib_core@@V?$allocator@PEAVrange@xlslib_core@@@std@@@std@@QEAA@XZ 000000018001cb40 f i sheetrec.obj
 0001:0001bb40       ??0?$vector@VCUnitStore@xlslib_core@@V?$allocator@VCUnitStore@xlslib_core@@@std@@@std@@QEAA@XZ 000000018001cb40 f i datast.obj
 0001:0001bb40       ??$?0$$V@?$_Compressed_pair@U?$_Wrap_alloc@V?$allocator@PEAVCUnit@xlslib_core@@@std@@@std@@V?$_Vector_val@U?$_Simple_types@PEAVCUnit@xlslib_core@@@std@@@2@$00@std@@QEAA@U_Zero_then_variadic_args_t@1@@Z 000000018001cb40 f i datast.obj
 0001:0001bb40       ??0?$vector@PEAVxf_t@xlslib_core@@V?$allocator@PEAVxf_t@xlslib_core@@@std@@@std@@QEAA@XZ 000000018001cb40 f i globalrec.obj
 0001:0001bb40       ??0?$vector@PEAVCOleProp@xlslib_core@@V?$allocator@PEAVCOleProp@xlslib_core@@@std@@@std@@QEAA@XZ 000000018001cb40 f i oledoc.obj
 0001:0001bb40       ??0?$_Vector_val@U?$_Simple_types@PEAVfont_t@xlslib_core@@@std@@@std@@QEAA@XZ 000000018001cb40 f i globalrec.obj
 0001:0001bb40       ??$?0$$V@?$_Compressed_pair@U?$_Wrap_alloc@V?$allocator@V?$basic_string@DU?$char_traits@D@std@@V?$allocator@D@2@@std@@@std@@@std@@V?$_Vector_val@U?$_Simple_types@V?$basic_string@DU?$char_traits@D@std@@V?$allocator@D@2@@std@@@std@@@2@$00@std@@QEAA@U_Zero_then_variadic_args_t@1@@Z 000000018001cb40 f i cbridge.obj
 0001:0001bb40       ??0?$_Vector_alloc@U?$_Vec_base_types@_KV?$allocator@_K@std@@@std@@@std@@QEAA@XZ 000000018001cb40 f i sheetrec.obj
 0001:0001bb40       ??0?$_Vector_val@U?$_Simple_types@PEAUDataValidation@xlslib_core@@@std@@@std@@QEAA@XZ 000000018001cb40 f i sheetrec.obj
 0001:0001bb40       ??0?$_Vector_val@U?$_Simple_types@PEAUstyle_t@xlslib_core@@@std@@@std@@QEAA@XZ 000000018001cb40 f i globalrec.obj
 0001:0001bb40       ??0?$_Vector_val@U?$_Simple_types@PEAVformula_t@xlslib_core@@@std@@@std@@QEAA@XZ 000000018001cb40 f i sheetrec.obj
 0001:0001bb40       ??0?$vector@PEAVworksheet@xlslib_core@@V?$allocator@PEAVworksheet@xlslib_core@@@std@@@std@@QEAA@XZ 000000018001cb40 f i workbook.obj
 0001:0001bb40       ??0?$_Vector_val@U?$_Simple_types@PEAVformat_t@xlslib_core@@@std@@@std@@QEAA@XZ 000000018001cb40 f i globalrec.obj
 0001:0001bb40       ??0?$_Vector_alloc@U?$_Vec_base_types@PEAVformat_t@xlslib_core@@V?$allocator@PEAVformat_t@xlslib_core@@@std@@@std@@@std@@QEAA@XZ 000000018001cb40 f i globalrec.obj
 0001:0001bb40       ??0?$_Vector_alloc@U?$_Vec_base_types@PEAVboundsheet_t@xlslib_core@@V?$allocator@PEAVboundsheet_t@xlslib_core@@@std@@@std@@@std@@QEAA@XZ 000000018001cb40 f i globalrec.obj
 0001:0001bb40       ??$?0$$V@?$_Compressed_pair@U?$_Wrap_alloc@V?$allocator@PEAVformat_t@xlslib_core@@@std@@@std@@V?$_Vector_val@U?$_Simple_types@PEAVformat_t@xlslib_core@@@std@@@2@$00@std@@QEAA@U_Zero_then_variadic_args_t@1@@Z 000000018001cb40 f i globalrec.obj
 0001:0001bb40       ??$?0$$V@?$_Compressed_pair@U?$_Wrap_alloc@V?$allocator@N@std@@@std@@V?$_Vector_val@U?$_Simple_types@N@std@@@2@$00@std@@QEAA@U_Zero_then_variadic_args_t@1@@Z 000000018001cb40 f i cbridge.obj
 0001:0001bb40       ??0?$vector@PEAVboundsheet_t@xlslib_core@@V?$allocator@PEAVboundsheet_t@xlslib_core@@@std@@@std@@QEAA@XZ 000000018001cb40 f i globalrec.obj
 0001:0001bb60       ?push_back@?$vector@V?$basic_string@_WU?$char_traits@_W@std@@V?$allocator@_W@2@@std@@V?$allocator@V?$basic_string@_WU?$char_traits@_W@std@@V?$allocator@_W@2@@std@@@2@@std@@QEAAXAEBV?$basic_string@_WU?$char_traits@_W@std@@V?$allocator@_W@2@@2@@Z 000000018001cb60 f i cbridge.obj
 0001:0001bc50       ??1?$vector@V?$basic_string@_WU?$char_traits@_W@std@@V?$allocator@_W@2@@std@@V?$allocator@V?$basic_string@_WU?$char_traits@_W@std@@V?$allocator@_W@2@@std@@@2@@std@@QEAA@XZ 000000018001cc50 f i cbridge.obj
 0001:0001bc50       ?_Tidy@?$vector@V?$basic_string@_WU?$char_traits@_W@std@@V?$allocator@_W@2@@std@@V?$allocator@V?$basic_string@_WU?$char_traits@_W@std@@V?$allocator@_W@2@@std@@@2@@std@@IEAAXXZ 000000018001cc50 f i cbridge.obj
 0001:0001bc90       ?push_back@?$vector@V?$basic_string@DU?$char_traits@D@std@@V?$allocator@D@2@@std@@V?$allocator@V?$basic_string@DU?$char_traits@D@std@@V?$allocator@D@2@@std@@@2@@std@@QEAAXAEBV?$basic_string@DU?$char_traits@D@std@@V?$allocator@D@2@@2@@Z 000000018001cc90 f i cbridge.obj
 0001:0001bd80       ??1?$vector@V?$basic_string@DU?$char_traits@D@std@@V?$allocator@D@2@@std@@V?$allocator@V?$basic_string@DU?$char_traits@D@std@@V?$allocator@D@2@@std@@@2@@std@@QEAA@XZ 000000018001cd80 f i cbridge.obj
 0001:0001bd80       ?_Tidy@?$vector@V?$basic_string@DU?$char_traits@D@std@@V?$allocator@D@2@@std@@V?$allocator@V?$basic_string@DU?$char_traits@D@std@@V?$allocator@D@2@@std@@@2@@std@@IEAAXXZ 000000018001cd80 f i cbridge.obj
 0001:0001bdc0       ??Y?$basic_string@_WU?$char_traits@_W@std@@V?$allocator@_W@2@@std@@QEAAAEAV01@_W@Z 000000018001cdc0 f i cbridge.obj
 0001:0001bdd0       ??1?$basic_string@_WU?$char_traits@_W@std@@V?$allocator@_W@2@@std@@QEAA@XZ 000000018001cdd0 f i cbridge.obj
 0001:0001bdd0       ??1?$basic_string@_SU?$char_traits@_S@std@@V?$allocator@_S@2@@std@@QEAA@XZ 000000018001cdd0 f i datast.obj
 0001:0001be20       ??0?$basic_string@_WU?$char_traits@_W@std@@V?$allocator@_W@2@@std@@QEAA@PEB_W@Z 000000018001ce20 f i cbridge.obj
 0001:0001be70       ??Y?$basic_string@DU?$char_traits@D@std@@V?$allocator@D@2@@std@@QEAAAEAV01@D@Z 000000018001ce70 f i cbridge.obj
 0001:0001bf50       ??0?$basic_string@DU?$char_traits@D@std@@V?$allocator@D@2@@std@@QEAA@PEBD@Z 000000018001cf50 f i cbridge.obj
 0001:0001bf90       ?_Mysize@?$_Tree_comp_alloc@V?$_Tset_traits@PEAUcolinfo_t@xlslib_core@@Vcolinfosort@2@V?$allocator@PEAUcolinfo_t@xlslib_core@@@std@@$0A@@std@@@std@@QEBAAEB_KXZ 000000018001cf90 f i sheetrec.obj
 0001:0001bf90       ?_Mylast@?$_Vector_alloc@U?$_Vec_base_types@PEAVrange@xlslib_core@@V?$allocator@PEAVrange@xlslib_core@@@std@@@std@@@std@@QEAAAEAPEAPEAVrange@xlslib_core@@XZ 000000018001cf90 f i sheetrec.obj
 0001:0001bf90       ?_Mylast@?$_Vector_alloc@U?$_Vec_base_types@_KV?$allocator@_K@std@@@std@@@std@@QEBAAEBQEA_KXZ 000000018001cf90 f i sheetrec.obj
 0001:0001bf90       ?_Mylast@?$_Vector_alloc@U?$_Vec_base_types@PEAVCUnit@xlslib_core@@V?$allocator@PEAVCUnit@xlslib_core@@@std@@@std@@@std@@QEAAAEAPEAPEAVCUnit@xlslib_core@@XZ 000000018001cf90 f i datast.obj
 0001:0001bf90       ?_Mylast@?$_Vector_alloc@U?$_Vec_base_types@PEAVxf_t@xlslib_core@@V?$allocator@PEAVxf_t@xlslib_core@@@std@@@std@@@std@@QEAAAEAPEAPEAVxf_t@xlslib_core@@XZ 000000018001cf90 f i globalrec.obj
 0001:0001bf90       ?_Mylast@?$_Vector_alloc@U?$_Vec_base_types@PEAVCOleProp@xlslib_core@@V?$allocator@PEAVCOleProp@xlslib_core@@@std@@@std@@@std@@QEBAAEBQEAPEAVCOleProp@xlslib_core@@XZ 000000018001cf90 f i olefs.obj
 0001:0001bf90       ?GetFormatStr@format_t@xlslib_core@@QEBAAEBV?$basic_string@_SU?$char_traits@_S@std@@V?$allocator@_S@2@@std@@XZ 000000018001cf90 f i format.obj
 0001:0001bf90       ?_Mysize@?$_List_alloc@U?$_List_base_types@PEAV?$basic_string@DU?$char_traits@D@std@@V?$allocator@D@2@@std@@V?$allocator@PEAV?$basic_string@DU?$char_traits@D@std@@V?$allocator@D@2@@std@@@2@@std@@@std@@QEBAAEB_KXZ 000000018001cf90 f i olefs.obj
 0001:0001bf90       ?_Parent@?$_Tree_val@U?$_Tree_simple_types@PEAVrowheight_t@xlslib_core@@@std@@@std@@SAAEAPEAU?$_Tree_node@PEAVrowheight_t@xlslib_core@@PEAX@2@PEAU32@@Z 000000018001cf90 f i sheetrec.obj
 0001:0001bf90       ?_Mylast@?$_Vector_alloc@U?$_Vec_base_types@V?$basic_string@DU?$char_traits@D@std@@V?$allocator@D@2@@std@@V?$allocator@V?$basic_string@DU?$char_traits@D@std@@V?$allocator@D@2@@std@@@2@@std@@@std@@QEBAAEBQEAV?$basic_string@DU?$char_traits@D@std@@V?$allocator@D@2@@2@XZ 000000018001cf90 f i cbridge.obj
 0001:0001bf90       ?_Mylast@?$_Vector_alloc@U?$_Vec_base_types@V?$basic_string@_WU?$char_traits@_W@std@@V?$allocator@_W@2@@std@@V?$allocator@V?$basic_string@_WU?$char_traits@_W@std@@V?$allocator@_W@2@@std@@@2@@std@@@std@@QEAAAEAPEAV?$basic_string@_WU?$char_traits@_W@std@@V?$allocator@_W@2@@2@XZ 000000018001cf90 f i cbridge.obj
 0001:0001bf90       ?_Mylast@?$_Vector_alloc@U?$_Vec_base_types@PEAUstyle_t@xlslib_core@@V?$allocator@PEAUstyle_t@xlslib_core@@@std@@@std@@@std@@QEAAAEAPEAPEAUstyle_t@xlslib_core@@XZ 000000018001cf90 f i globalrec.obj
 0001:0001bf90       ?_Mylast@?$_Vector_alloc@U?$_Vec_base_types@PEAVrange_t@xlslib_core@@V?$allocator@PEAVrange_t@xlslib_core@@@std@@@std@@@std@@QEBAAEBQEAPEAVrange_t@xlslib_core@@XZ 000000018001cf90 f i sheetrec.obj
 0001:0001bf90       ?GetRootEntry@COleFileSystem@xlslib_core@@QEAAAEAVCOleProp@2@XZ 000000018001cf90 f i olefs.obj
 0001:0001bf90       ?_Prevnode@?$_List_alloc@U?$_List_base_types@PEAV?$basic_string@DU?$char_traits@D@std@@V?$allocator@D@2@@std@@V?$allocator@PEAV?$basic_string@DU?$char_traits@D@std@@V?$allocator@D@2@@std@@@2@@std@@@std@@SAAEAPEAU?$_List_node@PEAV?$basic_string@DU?$char_traits@D@std@@V?$allocator@D@2@@std@@PEAX@2@PEAU32@@Z 000000018001cf90 f i olefs.obj
 0001:0001bf90       ?_Mylast@?$_Vector_alloc@U?$_Vec_base_types@PEAVCUnit@xlslib_core@@V?$allocator@PEAVCUnit@xlslib_core@@@std@@@std@@@std@@QEBAAEBQEAPEAVCUnit@xlslib_core@@XZ 000000018001cf90 f i datast.obj
 0001:0001bf90       ?_Mylast@?$_Vector_alloc@U?$_Vec_base_types@Urowblocksize_t@xlslib_core@@V?$allocator@Urowblocksize_t@xlslib_core@@@std@@@std@@@std@@QEBAAEBQEAUrowblocksize_t@xlslib_core@@XZ 000000018001cf90 f i sheetrec.obj
 0001:0001bf90       ?_Parent@?$_Tree_comp_alloc@V?$_Tset_traits@PEAVrowheight_t@xlslib_core@@Vrowheightsort@2@V?$allocator@PEAVrowheight_t@xlslib_core@@@std@@$0A@@std@@@std@@SAAEAPEAU?$_Tree_node@PEAVrowheight_t@xlslib_core@@PEAX@2@PEAU32@@Z 000000018001cf90 f i sheetrec.obj
 0001:0001bf90       ?GetSheetName@boundsheet_t@xlslib_core@@QEBAAEBV?$basic_string@_SU?$char_traits@_S@std@@V?$allocator@_S@2@@std@@XZ 000000018001cf90 f i recdef.obj
 0001:0001bf90       ?_Mylast@?$_Vector_alloc@U?$_Vec_base_types@PEAVformula_t@xlslib_core@@V?$allocator@PEAVformula_t@xlslib_core@@@std@@@std@@@std@@QEAAAEAPEAPEAVformula_t@xlslib_core@@XZ 000000018001cf90 f i sheetrec.obj
 0001:0001bf90       ?_Parent@?$_Tree_val@U?$_Tree_simple_types@PEAUcolinfo_t@xlslib_core@@@std@@@std@@SAAEAPEAU?$_Tree_node@PEAUcolinfo_t@xlslib_core@@PEAX@2@PEAU32@@Z 000000018001cf90 f i sheetrec.obj
 0001:0001bf90       ?_Parent@?$_Tree_comp_alloc@V?$_Tset_traits@PEAVHPSFitem@xlslib_core@@Vinsertsort2@2@V?$allocator@PEAVHPSFitem@xlslib_core@@@std@@$0A@@std@@@std@@SAAEAPEAU?$_Tree_node@PEAVHPSFitem@xlslib_core@@PEAX@2@PEAU32@@Z 000000018001cf90 f i HPSF.obj
 0001:0001bf90       ?_Mysize@?$_Tree_comp_alloc@V?$_Tset_traits@PEAVHPSFitem@xlslib_core@@Vinsertsort2@2@V?$allocator@PEAVHPSFitem@xlslib_core@@@std@@$0A@@std@@@std@@QEAAAEA_KXZ 000000018001cf90 f i HPSF.obj
 0001:0001bf90       ?_Mysize@?$_List_alloc@U?$_List_base_types@PEAV?$basic_string@DU?$char_traits@D@std@@V?$allocator@D@2@@std@@V?$allocator@PEAV?$basic_string@DU?$char_traits@D@std@@V?$allocator@D@2@@std@@@2@@std@@@std@@QEAAAEA_KXZ 000000018001cf90 f i olefs.obj
 0001:0001bf90       ?_Mylast@?$_Vector_alloc@U?$_Vec_base_types@PEAVrange_t@xlslib_core@@V?$allocator@PEAVrange_t@xlslib_core@@@std@@@std@@@std@@QEAAAEAPEAPEAVrange_t@xlslib_core@@XZ 000000018001cf90 f i sheetrec.obj
 0001:0001bf90       ?_Mylast@?$_Vector_alloc@U?$_Vec_base_types@PEAVrange@xlslib_core@@V?$allocator@PEAVrange@xlslib_core@@@std@@@std@@@std@@QEBAAEBQEAPEAVrange@xlslib_core@@XZ 000000018001cf90 f i sheetrec.obj
 0001:0001bf90       ?_Mylast@?$_Vector_alloc@U?$_Vec_base_types@PEAUDataValidation@xlslib_core@@V?$allocator@PEAUDataValidation@xlslib_core@@@std@@@std@@@std@@QEBAAEBQEAPEAUDataValidation@xlslib_core@@XZ 000000018001cf90 f i sheetrec.obj
 0001:0001bf90       ?_Mylast@?$_Vector_alloc@U?$_Vec_base_types@PEAVworksheet@xlslib_core@@V?$allocator@PEAVworksheet@xlslib_core@@@std@@@std@@@std@@QEAAAEAPEAPEAVworksheet@xlslib_core@@XZ 000000018001cf90 f i workbook.obj
 0001:0001bf90       ?_Mylast@?$_Vector_alloc@U?$_Vec_base_types@PEAVformat_t@xlslib_core@@V?$allocator@PEAVformat_t@xlslib_core@@@std@@@std@@@std@@QEAAAEAPEAPEAVformat_t@xlslib_core@@XZ 000000018001cf90 f i globalrec.obj
 0001:0001bf90       ?_Mylast@?$_Vector_alloc@U?$_Vec_base_types@PEAVCOleProp@xlslib_core@@V?$allocator@PEAVCOleProp@xlslib_core@@@std@@@std@@@std@@QEAAAEAPEAPEAVCOleProp@xlslib_core@@XZ 000000018001cf90 f i oledoc.obj
 0001:0001bf90       ?_Mysize@?$_Tree_comp_alloc@V?$_Tset_traits@PEAVcell_t@xlslib_core@@Vinsertsort@2@V?$allocator@PEAVcell_t@xlslib_core@@@std@@$0A@@std@@@std@@QEAAAEA_KXZ 000000018001cf90 f i sheetrec.obj
 0001:0001bf90       ?_Mylast@?$_Vector_alloc@U?$_Vec_base_types@PEAVformat_t@xlslib_core@@V?$allocator@PEAVformat_t@xlslib_core@@@std@@@std@@@std@@QEBAAEBQEAPEAVformat_t@xlslib_core@@XZ 000000018001cf90 f i globalrec.obj
 0001:0001bf90       ?_Mylast@?$_Vector_alloc@U?$_Vec_base_types@NV?$allocator@N@std@@@std@@@std@@QEBAAEBQEANXZ 000000018001cf90 f i cbridge.obj
 0001:0001bf90       ?_Mysize@?$_Tree_comp_alloc@V?$_Tset_traits@PEAVHPSFitem@xlslib_core@@Vinsertsort2@2@V?$allocator@PEAVHPSFitem@xlslib_core@@@std@@$0A@@std@@@std@@QEBAAEB_KXZ 000000018001cf90 f i HPSF.obj
 0001:0001bf90       ?_Mylast@?$_Vector_alloc@U?$_Vec_base_types@PEAVboundsheet_t@xlslib_core@@V?$allocator@PEAVboundsheet_t@xlslib_core@@@std@@@std@@@std@@QEAAAEAPEAPEAVboundsheet_t@xlslib_core@@XZ 000000018001cf90 f i globalrec.obj
 0001:0001bf90       ?_Mysize@?$_Tree_comp_alloc@V?$_Tset_traits@PEAVrowheight_t@xlslib_core@@Vrowheightsort@2@V?$allocator@PEAVrowheight_t@xlslib_core@@@std@@$0A@@std@@@std@@QEBAAEB_KXZ 000000018001cf90 f i sheetrec.obj
 0001:0001bf90       ?_Mylast@?$_Vector_alloc@U?$_Vec_base_types@VCUnitStore@xlslib_core@@V?$allocator@VCUnitStore@xlslib_core@@@std@@@std@@@std@@QEAAAEAPEAVCUnitStore@xlslib_core@@XZ 000000018001cf90 f i datast.obj
 0001:0001bf90       ?_Mylast@?$_Vector_alloc@U?$_Vec_base_types@PEAVboundsheet_t@xlslib_core@@V?$allocator@PEAVboundsheet_t@xlslib_core@@@std@@@std@@@std@@QEBAAEBQEAPEAVboundsheet_t@xlslib_core@@XZ 000000018001cf90 f i datast.obj
 0001:0001bf90       ?_Prevnode@?$_List_val@U?$_List_simple_types@PEAV?$basic_string@DU?$char_traits@D@std@@V?$allocator@D@2@@std@@@std@@@std@@SAAEAPEAU?$_List_node@PEAV?$basic_string@DU?$char_traits@D@std@@V?$allocator@D@2@@std@@PEAX@2@PEAU32@@Z 000000018001cf90 f i olefs.obj
 0001:0001bf90       ?_Mylast@?$_Vector_alloc@U?$_Vec_base_types@NV?$allocator@N@std@@@std@@@std@@QEAAAEAPEANXZ 000000018001cf90 f i cbridge.obj
 0001:0001bf90       ?_Mylast@?$_Vector_alloc@U?$_Vec_base_types@V?$basic_string@DU?$char_traits@D@std@@V?$allocator@D@2@@std@@V?$allocator@V?$basic_string@DU?$char_traits@D@std@@V?$allocator@D@2@@std@@@2@@std@@@std@@QEAAAEAPEAV?$basic_string@DU?$char_traits@D@std@@V?$allocator@D@2@@2@XZ 000000018001cf90 f i cbridge.obj
 0001:0001bf90       ?_Mylast@?$_Vector_alloc@U?$_Vec_base_types@PEAUHyperLink@xlslib_core@@V?$allocator@PEAUHyperLink@xlslib_core@@@std@@@std@@@std@@QEAAAEAPEAPEAUHyperLink@xlslib_core@@XZ 000000018001cf90 f i sheetrec.obj
 0001:0001bf90       ?_Mylast@?$_Vector_alloc@U?$_Vec_base_types@PEAVxf_t@xlslib_core@@V?$allocator@PEAVxf_t@xlslib_core@@@std@@@std@@@std@@QEBAAEBQEAPEAVxf_t@xlslib_core@@XZ 000000018001cf90 f i globalrec.obj
 0001:0001bf90       ?_Mylast@?$_Vector_alloc@U?$_Vec_base_types@VCUnitStore@xlslib_core@@V?$allocator@VCUnitStore@xlslib_core@@@std@@@std@@@std@@QEBAAEBQEAVCUnitStore@xlslib_core@@XZ 000000018001cf90 f i datast.obj
 0001:0001bf90       ?_Mylast@?$_Vector_alloc@U?$_Vec_base_types@PEBVlabel_t@xlslib_core@@V?$allocator@PEBVlabel_t@xlslib_core@@@std@@@std@@@std@@QEAAAEAPEAPEBVlabel_t@xlslib_core@@XZ 000000018001cf90 f i globalrec.obj
 0001:0001bf90       ?_Mylast@?$_Vector_alloc@U?$_Vec_base_types@PEAVfont_t@xlslib_core@@V?$allocator@PEAVfont_t@xlslib_core@@@std@@@std@@@std@@QEBAAEBQEAPEAVfont_t@xlslib_core@@XZ 000000018001cf90 f i globalrec.obj
 0001:0001bf90       ?_Parent@?$_Tree_val@U?$_Tree_simple_types@U?$pair@PEAVxf_t@xlslib_core@@UborderedXft@2@@std@@@std@@@std@@SAAEAPEAU?$_Tree_node@U?$pair@PEAVxf_t@xlslib_core@@UborderedXft@2@@std@@PEAX@2@PEAU32@@Z 000000018001cf90 f i range.obj
 0001:0001bf90       ?_Mylast@?$_Vector_alloc@U?$_Vec_base_types@PEBVlabel_t@xlslib_core@@V?$allocator@PEBVlabel_t@xlslib_core@@@std@@@std@@@std@@QEBAAEBQEAPEBVlabel_t@xlslib_core@@XZ 000000018001cf90 f i datast.obj
 0001:0001bf90       ?_Mylast@?$_Vector_alloc@U?$_Vec_base_types@PEAVworksheet@xlslib_core@@V?$allocator@PEAVworksheet@xlslib_core@@@std@@@std@@@std@@QEBAAEBQEAPEAVworksheet@xlslib_core@@XZ 000000018001cf90 f i workbook.obj
 0001:0001bf90       ?_Mylast@?$_Vector_alloc@U?$_Vec_base_types@PEAUstyle_t@xlslib_core@@V?$allocator@PEAUstyle_t@xlslib_core@@@std@@@std@@@std@@QEBAAEBQEAPEAUstyle_t@xlslib_core@@XZ 000000018001cf90 f i globalrec.obj
 0001:0001bf90       ?_Mysize@?$_Tree_comp_alloc@V?$_Tset_traits@PEAVrowheight_t@xlslib_core@@Vrowheightsort@2@V?$allocator@PEAVrowheight_t@xlslib_core@@@std@@$0A@@std@@@std@@QEAAAEA_KXZ 000000018001cf90 f i sheetrec.obj
 0001:0001bf90       ?_Parent@?$_Tree_comp_alloc@V?$_Tset_traits@PEAUcolinfo_t@xlslib_core@@Vcolinfosort@2@V?$allocator@PEAUcolinfo_t@xlslib_core@@@std@@$0A@@std@@@std@@SAAEAPEAU?$_Tree_node@PEAUcolinfo_t@xlslib_core@@PEAX@2@PEAU32@@Z 000000018001cf90 f i sheetrec.obj
 0001:0001bf90       ?_Mylast@?$_Vector_alloc@U?$_Vec_base_types@PEAVformula_t@xlslib_core@@V?$allocator@PEAVformula_t@xlslib_core@@@std@@@std@@@std@@QEBAAEBQEAPEAVformula_t@xlslib_core@@XZ 000000018001cf90 f i sheetrec.obj
 0001:0001bf90       ?_Mylast@?$_Vector_alloc@U?$_Vec_base_types@PEAUHyperLink@xlslib_core@@V?$allocator@PEAUHyperLink@xlslib_core@@@std@@@std@@@std@@QEBAAEBQEAPEAUHyperLink@xlslib_core@@XZ 000000018001cf90 f i sheetrec.obj
 0001:0001bf90       ?_Parent@?$_Tree_comp_alloc@V?$_Tset_traits@U?$pair@PEAVxf_t@xlslib_core@@UborderedXft@2@@std@@VxfSorter@xlslib_core@@V?$allocator@U?$pair@PEAVxf_t@xlslib_core@@UborderedXft@2@@std@@@2@$0A@@std@@@std@@SAAEAPEAU?$_Tree_node@U?$pair@PEAVxf_t@xlslib_core@@UborderedXft@2@@std@@PEAX@2@PEAU32@@Z 000000018001cf90 f i range.obj
 0001:0001bf90       ?_Mylast@?$_Vector_alloc@U?$_Vec_base_types@PEAVfont_t@xlslib_core@@V?$allocator@PEAVfont_t@xlslib_core@@@std@@@std@@@std@@QEAAAEAPEAPEAVfont_t@xlslib_core@@XZ 000000018001cf90 f i globalrec.obj
 0001:0001bf90       ?_Mylast@?$_Vector_alloc@U?$_Vec_base_types@Urowblocksize_t@xlslib_core@@V?$allocator@Urowblocksize_t@xlslib_core@@@std@@@std@@@std@@QEAAAEAPEAUrowblocksize_t@xlslib_core@@XZ 000000018001cf90 f i sheetrec.obj
 0001:0001bf90       ?_Parent@?$_Tree_val@U?$_Tree_simple_types@PEAVcell_t@xlslib_core@@@std@@@std@@SAAEAPEAU?$_Tree_node@PEAVcell_t@xlslib_core@@PEAX@2@PEAU32@@Z 000000018001cf90 f i sheetrec.obj
 0001:0001bf90       ?_Parent@?$_Tree_val@U?$_Tree_simple_types@PEAVHPSFitem@xlslib_core@@@std@@@std@@SAAEAPEAU?$_Tree_node@PEAVHPSFitem@xlslib_core@@PEAX@2@PEAU32@@Z 000000018001cf90 f i HPSF.obj
 0001:0001bf90       ?_Mysize@?$_Tree_comp_alloc@V?$_Tset_traits@U?$pair@PEAVxf_t@xlslib_core@@UborderedXft@2@@std@@VxfSorter@xlslib_core@@V?$allocator@U?$pair@PEAVxf_t@xlslib_core@@UborderedXft@2@@std@@@2@$0A@@std@@@std@@QEAAAEA_KXZ 000000018001cf90 f i range.obj
 0001:0001bf90       ?_Mylast@?$_Vector_alloc@U?$_Vec_base_types@PEAUDataValidation@xlslib_core@@V?$allocator@PEAUDataValidation@xlslib_core@@@std@@@std@@@std@@QEAAAEAPEAPEAUDataValidation@xlslib_core@@XZ 000000018001cf90 f i sheetrec.obj
 0001:0001bf90       ?_Mysize@?$_Tree_comp_alloc@V?$_Tset_traits@PEAVcell_t@xlslib_core@@Vinsertsort@2@V?$allocator@PEAVcell_t@xlslib_core@@@std@@$0A@@std@@@std@@QEBAAEB_KXZ 000000018001cf90 f i sheetrec.obj
 0001:0001bf90       ?_Mylast@?$_Vector_alloc@U?$_Vec_base_types@_KV?$allocator@_K@std@@@std@@@std@@QEAAAEAPEA_KXZ 000000018001cf90 f i sheetrec.obj
 0001:0001bf90       ?_Parent@?$_Tree_comp_alloc@V?$_Tset_traits@PEAVcell_t@xlslib_core@@Vinsertsort@2@V?$allocator@PEAVcell_t@xlslib_core@@@std@@$0A@@std@@@std@@SAAEAPEAU?$_Tree_node@PEAVcell_t@xlslib_core@@PEAX@2@PEAU32@@Z 000000018001cf90 f i sheetrec.obj
 0001:0001bf90       ?_Mylast@?$_Vector_alloc@U?$_Vec_base_types@V?$basic_string@_WU?$char_traits@_W@std@@V?$allocator@_W@2@@std@@V?$allocator@V?$basic_string@_WU?$char_traits@_W@std@@V?$allocator@_W@2@@std@@@2@@std@@@std@@QEBAAEBQEAV?$basic_string@_WU?$char_traits@_W@std@@V?$allocator@_W@2@@2@XZ 000000018001cf90 f i cbridge.obj
 0001:0001bf90       ?_Mysize@?$_Tree_comp_alloc@V?$_Tset_traits@PEAUcolinfo_t@xlslib_core@@Vcolinfosort@2@V?$allocator@PEAUcolinfo_t@xlslib_core@@@std@@$0A@@std@@@std@@QEAAAEA_KXZ 000000018001cf90 f i sheetrec.obj
 0001:0001bfa0       ?_Reserve@?$vector@PEAUHyperLink@xlslib_core@@V?$allocator@PEAUHyperLink@xlslib_core@@@std@@@std@@IEAAX_K@Z 000000018001cfa0 f i sheetrec.obj
 0001:0001bfa0       ?_Reserve@?$vector@PEAVxf_t@xlslib_core@@V?$allocator@PEAVxf_t@xlslib_core@@@std@@@std@@IEAAX_K@Z 000000018001cfa0 f i globalrec.obj
 0001:0001bfa0       ?_Reserve@?$vector@PEAUDataValidation@xlslib_core@@V?$allocator@PEAUDataValidation@xlslib_core@@@std@@@std@@IEAAX_K@Z 000000018001cfa0 f i sheetrec.obj
 0001:0001bfa0       ?_Reserve@?$vector@PEAVrange_t@xlslib_core@@V?$allocator@PEAVrange_t@xlslib_core@@@std@@@std@@IEAAX_K@Z 000000018001cfa0 f i sheetrec.obj
 0001:0001bfa0       ?_Reserve@?$vector@_KV?$allocator@_K@std@@@std@@IEAAX_K@Z 000000018001cfa0 f i sheetrec.obj
 0001:0001bfa0       ?_Reserve@?$vector@PEBVlabel_t@xlslib_core@@V?$allocator@PEBVlabel_t@xlslib_core@@@std@@@std@@IEAAX_K@Z 000000018001cfa0 f i globalrec.obj
 0001:0001bfa0       ?_Reserve@?$vector@PEAVboundsheet_t@xlslib_core@@V?$allocator@PEAVboundsheet_t@xlslib_core@@@std@@@std@@IEAAX_K@Z 000000018001cfa0 f i globalrec.obj
 0001:0001bfa0       ?_Reserve@?$vector@PEAVCOleProp@xlslib_core@@V?$allocator@PEAVCOleProp@xlslib_core@@@std@@@std@@IEAAX_K@Z 000000018001cfa0 f i olefs.obj
 0001:0001bfa0       ?_Reserve@?$vector@PEAVformula_t@xlslib_core@@V?$allocator@PEAVformula_t@xlslib_core@@@std@@@std@@IEAAX_K@Z 000000018001cfa0 f i sheetrec.obj
 0001:0001bfa0       ?_Reserve@?$vector@PEAUstyle_t@xlslib_core@@V?$allocator@PEAUstyle_t@xlslib_core@@@std@@@std@@IEAAX_K@Z 000000018001cfa0 f i globalrec.obj
 0001:0001bfa0       ?_Reserve@?$vector@PEAVrange@xlslib_core@@V?$allocator@PEAVrange@xlslib_core@@@std@@@std@@IEAAX_K@Z 000000018001cfa0 f i sheetrec.obj
 0001:0001bfa0       ?_Reserve@?$vector@PEAVformat_t@xlslib_core@@V?$allocator@PEAVformat_t@xlslib_core@@@std@@@std@@IEAAX_K@Z 000000018001cfa0 f i globalrec.obj
 0001:0001bfa0       ?_Reserve@?$vector@PEAVworksheet@xlslib_core@@V?$allocator@PEAVworksheet@xlslib_core@@@std@@@std@@IEAAX_K@Z 000000018001cfa0 f i workbook.obj
 0001:0001bfa0       ?_Reserve@?$vector@NV?$allocator@N@std@@@std@@IEAAX_K@Z 000000018001cfa0 f i cbridge.obj
 0001:0001bfa0       ?_Reserve@?$vector@PEAVfont_t@xlslib_core@@V?$allocator@PEAVfont_t@xlslib_core@@@std@@@std@@IEAAX_K@Z 000000018001cfa0 f i globalrec.obj
 0001:0001c030       ?_Inside@?$vector@PEAVrange_t@xlslib_core@@V?$allocator@PEAVrange_t@xlslib_core@@@std@@@std@@IEBA_NPEBQEAVrange_t@xlslib_core@@@Z 000000018001d030 f i sheetrec.obj
 0001:0001c030       ?_Inside@?$vector@V?$basic_string@_WU?$char_traits@_W@std@@V?$allocator@_W@2@@std@@V?$allocator@V?$basic_string@_WU?$char_traits@_W@std@@V?$allocator@_W@2@@std@@@2@@std@@IEBA_NPEBV?$basic_string@_WU?$char_traits@_W@std@@V?$allocator@_W@2@@2@@Z 000000018001d030 f i cbridge.obj
 0001:0001c030       ?_Inside@?$vector@_KV?$allocator@_K@std@@@std@@IEBA_NPEB_K@Z 000000018001d030 f i sheetrec.obj
 0001:0001c030       ?_Inside@?$vector@PEAVrange@xlslib_core@@V?$allocator@PEAVrange@xlslib_core@@@std@@@std@@IEBA_NPEBQEAVrange@xlslib_core@@@Z 000000018001d030 f i sheetrec.obj
 0001:0001c030       ?_Inside@?$vector@PEAVformula_t@xlslib_core@@V?$allocator@PEAVformula_t@xlslib_core@@@std@@@std@@IEBA_NPEBQEAVformula_t@xlslib_core@@@Z 000000018001d030 f i sheetrec.obj
 0001:0001c030       ?_Inside@?$vector@PEBVlabel_t@xlslib_core@@V?$allocator@PEBVlabel_t@xlslib_core@@@std@@@std@@IEBA_NPEBQEBVlabel_t@xlslib_core@@@Z 000000018001d030 f i globalrec.obj
 0001:0001c030       ?_Inside@?$vector@PEAVworksheet@xlslib_core@@V?$allocator@PEAVworksheet@xlslib_core@@@std@@@std@@IEBA_NPEBQEAVworksheet@xlslib_core@@@Z 000000018001d030 f i workbook.obj
 0001:0001c030       ?_Inside@?$vector@PEAVxf_t@xlslib_core@@V?$allocator@PEAVxf_t@xlslib_core@@@std@@@std@@IEBA_NPEBQEAVxf_t@xlslib_core@@@Z 000000018001d030 f i globalrec.obj
 0001:0001c030       ?_Inside@?$vector@PEAVboundsheet_t@xlslib_core@@V?$allocator@PEAVboundsheet_t@xlslib_core@@@std@@@std@@IEBA_NPEBQEAVboundsheet_t@xlslib_core@@@Z 000000018001d030 f i globalrec.obj
 0001:0001c030       ?_Inside@?$vector@V?$basic_string@DU?$char_traits@D@std@@V?$allocator@D@2@@std@@V?$allocator@V?$basic_string@DU?$char_traits@D@std@@V?$allocator@D@2@@std@@@2@@std@@IEBA_NPEBV?$basic_string@DU?$char_traits@D@std@@V?$allocator@D@2@@2@@Z 000000018001d030 f i cbridge.obj
 0001:0001c030       ?_Inside@?$vector@PEAUstyle_t@xlslib_core@@V?$allocator@PEAUstyle_t@xlslib_core@@@std@@@std@@IEBA_NPEBQEAUstyle_t@xlslib_core@@@Z 000000018001d030 f i globalrec.obj
 0001:0001c030       ?_Inside@?$vector@PEAVfont_t@xlslib_core@@V?$allocator@PEAVfont_t@xlslib_core@@@std@@@std@@IEBA_NPEBQEAVfont_t@xlslib_core@@@Z 000000018001d030 f i globalrec.obj
 0001:0001c030       ?_Inside@?$vector@Urowblocksize_t@xlslib_core@@V?$allocator@Urowblocksize_t@xlslib_core@@@std@@@std@@IEBA_NPEBUrowblocksize_t@xlslib_core@@@Z 000000018001d030 f i sheetrec.obj
 0001:0001c030       ?_Inside@?$vector@PEAUHyperLink@xlslib_core@@V?$allocator@PEAUHyperLink@xlslib_core@@@std@@@std@@IEBA_NPEBQEAUHyperLink@xlslib_core@@@Z 000000018001d030 f i sheetrec.obj
 0001:0001c030       ?_Inside@?$vector@PEAVCOleProp@xlslib_core@@V?$allocator@PEAVCOleProp@xlslib_core@@@std@@@std@@IEBA_NPEBQEAVCOleProp@xlslib_core@@@Z 000000018001d030 f i olefs.obj
 0001:0001c030       ?_Inside@?$vector@PEAVformat_t@xlslib_core@@V?$allocator@PEAVformat_t@xlslib_core@@@std@@@std@@IEBA_NPEBQEAVformat_t@xlslib_core@@@Z 000000018001d030 f i globalrec.obj
 0001:0001c030       ?_Inside@?$vector@PEAVCUnit@xlslib_core@@V?$allocator@PEAVCUnit@xlslib_core@@@std@@@std@@IEBA_NPEBQEAVCUnit@xlslib_core@@@Z 000000018001d030 f i datast.obj
 0001:0001c030       ?_Inside@?$vector@PEAUDataValidation@xlslib_core@@V?$allocator@PEAUDataValidation@xlslib_core@@@std@@@std@@IEBA_NPEBQEAUDataValidation@xlslib_core@@@Z 000000018001d030 f i sheetrec.obj
 0001:0001c030       ?_Inside@?$vector@NV?$allocator@N@std@@@std@@IEBA_NPEBN@Z 000000018001d030 f i cbridge.obj
 0001:0001c050       ?_Reserve@?$vector@V?$basic_string@_WU?$char_traits@_W@std@@V?$allocator@_W@2@@std@@V?$allocator@V?$basic_string@_WU?$char_traits@_W@std@@V?$allocator@_W@2@@std@@@2@@std@@IEAAX_K@Z 000000018001d050 f i cbridge.obj
 0001:0001c0e0       ?_Reserve@?$vector@V?$basic_string@DU?$char_traits@D@std@@V?$allocator@D@2@@std@@V?$allocator@V?$basic_string@DU?$char_traits@D@std@@V?$allocator@D@2@@std@@@2@@std@@IEAAX_K@Z 000000018001d0e0 f i cbridge.obj
 0001:0001c170       ?data@?$basic_string@_WU?$char_traits@_W@std@@V?$allocator@_W@2@@std@@QEBAPEB_WXZ 000000018001d170 f i globalrec.obj
 0001:0001c170       ?_Myptr@?$_String_alloc@U?$_String_base_types@_SV?$allocator@_S@std@@@std@@@std@@QEAAPEA_SXZ 000000018001d170 f i datast.obj
 0001:0001c170       ?c_str@?$basic_string@_WU?$char_traits@_W@std@@V?$allocator@_W@2@@std@@QEBAPEB_WXZ 000000018001d170 f i binfile.obj
 0001:0001c170       ?_Myptr@?$_String_val@U?$_Simple_types@_S@std@@@std@@QEBAPEB_SXZ 000000018001d170 f i datast.obj
 0001:0001c170       ?_Myptr@?$_String_val@U?$_Simple_types@_W@std@@@std@@QEAAPEA_WXZ 000000018001d170 f i cbridge.obj
 0001:0001c170       ?_Myptr@?$_String_alloc@U?$_String_base_types@_WV?$allocator@_W@std@@@std@@@std@@QEAAPEA_WXZ 000000018001d170 f i cbridge.obj
 0001:0001c170       ?_Myptr@?$_String_val@U?$_Simple_types@_S@std@@@std@@QEAAPEA_SXZ 000000018001d170 f i datast.obj
 0001:0001c170       ?_Myptr@?$_String_alloc@U?$_String_base_types@_WV?$allocator@_W@std@@@std@@@std@@QEBAPEB_WXZ 000000018001d170 f i cbridge.obj
 0001:0001c170       ?_Myptr@?$_String_alloc@U?$_String_base_types@_SV?$allocator@_S@std@@@std@@@std@@QEBAPEB_SXZ 000000018001d170 f i datast.obj
 0001:0001c170       ?_Myptr@?$_String_val@U?$_Simple_types@_W@std@@@std@@QEBAPEB_WXZ 000000018001d170 f i cbridge.obj
 0001:0001c180       ?_Tidy@?$basic_string@_WU?$char_traits@_W@std@@V?$allocator@_W@2@@std@@QEAAX_N_K@Z 000000018001d180 f i cbridge.obj
 0001:0001c200       ?assign@?$basic_string@_WU?$char_traits@_W@std@@V?$allocator@_W@2@@std@@QEAAAEAV12@PEB_W@Z 000000018001d200 f i cbridge.obj
 0001:0001c230       ?assign@?$basic_string@_WU?$char_traits@_W@std@@V?$allocator@_W@2@@std@@QEAAAEAV12@PEB_W_K@Z 000000018001d230 f i cbridge.obj
 0001:0001c380       ?append@?$basic_string@_WU?$char_traits@_W@std@@V?$allocator@_W@2@@std@@QEAAAEAV12@_K_W@Z 000000018001d380 f i cbridge.obj
 0001:0001c460       ?assign@?$basic_string@DU?$char_traits@D@std@@V?$allocator@D@2@@std@@QEAAAEAV12@PEBD@Z 000000018001d460 f i cbridge.obj
 0001:0001c480       ?append@?$basic_string@DU?$char_traits@D@std@@V?$allocator@D@2@@std@@QEAAAEAV12@_KD@Z 000000018001d480 f i cbridge.obj
 0001:0001c580       ?deallocate@?$_Wrap_alloc@V?$allocator@VCUnitStore@xlslib_core@@@std@@@std@@QEAAXPEAVCUnitStore@xlslib_core@@_K@Z 000000018001d580 f i datast.obj
 0001:0001c580       ?deallocate@?$_Wrap_alloc@V?$allocator@V?$basic_string@_WU?$char_traits@_W@std@@V?$allocator@_W@2@@std@@@std@@@std@@QEAAXPEAV?$basic_string@_WU?$char_traits@_W@std@@V?$allocator@_W@2@@2@_K@Z 000000018001d580 f i cbridge.obj
 0001:0001c580       ?deallocate@?$allocator@VCUnitStore@xlslib_core@@@std@@QEAAXPEAVCUnitStore@xlslib_core@@_K@Z 000000018001d580 f i datast.obj
 0001:0001c580       ?deallocate@?$allocator@V?$basic_string@_WU?$char_traits@_W@std@@V?$allocator@_W@2@@std@@@std@@QEAAXPEAV?$basic_string@_WU?$char_traits@_W@std@@V?$allocator@_W@2@@2@_K@Z 000000018001d580 f i cbridge.obj
 0001:0001c580       ?deallocate@?$allocator@V?$basic_string@DU?$char_traits@D@std@@V?$allocator@D@2@@std@@@std@@QEAAXPEAV?$basic_string@DU?$char_traits@D@std@@V?$allocator@D@2@@2@_K@Z 000000018001d580 f i cbridge.obj
 0001:0001c580       ?deallocate@?$_Wrap_alloc@V?$allocator@V?$basic_string@DU?$char_traits@D@std@@V?$allocator@D@2@@std@@@std@@@std@@QEAAXPEAV?$basic_string@DU?$char_traits@D@std@@V?$allocator@D@2@@2@_K@Z 000000018001d580 f i cbridge.obj
 0001:0001c5f0       ?deallocate@?$_Wrap_alloc@V?$allocator@PEAVrange@xlslib_core@@@std@@@std@@QEAAXPEAPEAVrange@xlslib_core@@_K@Z 000000018001d5f0 f i sheetrec.obj
 0001:0001c5f0       ?deallocate@?$_Wrap_alloc@V?$allocator@PEAVfont_t@xlslib_core@@@std@@@std@@QEAAXPEAPEAVfont_t@xlslib_core@@_K@Z 000000018001d5f0 f i globalrec.obj
 0001:0001c5f0       ?deallocate@?$_Wrap_alloc@V?$allocator@PEAUHyperLink@xlslib_core@@@std@@@std@@QEAAXPEAPEAUHyperLink@xlslib_core@@_K@Z 000000018001d5f0 f i sheetrec.obj
 0001:0001c5f0       ?deallocate@?$_Wrap_alloc@V?$allocator@PEBVlabel_t@xlslib_core@@@std@@@std@@QEAAXPEAPEBVlabel_t@xlslib_core@@_K@Z 000000018001d5f0 f i globalrec.obj
 0001:0001c5f0       ?deallocate@?$_Wrap_alloc@V?$allocator@PEAVrange_t@xlslib_core@@@std@@@std@@QEAAXPEAPEAVrange_t@xlslib_core@@_K@Z 000000018001d5f0 f i sheetrec.obj
 0001:0001c5f0       ?deallocate@?$_Wrap_alloc@V?$allocator@N@std@@@std@@QEAAXPEAN_K@Z 000000018001d5f0 f i cbridge.obj
 0001:0001c5f0       ?deallocate@?$_Wrap_alloc@V?$allocator@PEAVxf_t@xlslib_core@@@std@@@std@@QEAAXPEAPEAVxf_t@xlslib_core@@_K@Z 000000018001d5f0 f i globalrec.obj
 0001:0001c5f0       ?deallocate@?$_Wrap_alloc@V?$allocator@PEAVboundsheet_t@xlslib_core@@@std@@@std@@QEAAXPEAPEAVboundsheet_t@xlslib_core@@_K@Z 000000018001d5f0 f i globalrec.obj
 0001:0001c5f0       ?deallocate@?$_Wrap_alloc@V?$allocator@PEAUstyle_t@xlslib_core@@@std@@@std@@QEAAXPEAPEAUstyle_t@xlslib_core@@_K@Z 000000018001d5f0 f i globalrec.obj
 0001:0001c5f0       ?deallocate@?$_Wrap_alloc@V?$allocator@PEAVformula_t@xlslib_core@@@std@@@std@@QEAAXPEAPEAVformula_t@xlslib_core@@_K@Z 000000018001d5f0 f i sheetrec.obj
 0001:0001c5f0       ?deallocate@?$_Wrap_alloc@V?$allocator@_K@std@@@std@@QEAAXPEA_K_K@Z 000000018001d5f0 f i sheetrec.obj
 0001:0001c5f0       ?deallocate@?$_Wrap_alloc@V?$allocator@PEAVCUnit@xlslib_core@@@std@@@std@@QEAAXPEAPEAVCUnit@xlslib_core@@_K@Z 000000018001d5f0 f i datast.obj
 0001:0001c5f0       ?deallocate@?$_Wrap_alloc@V?$allocator@PEAVCOleProp@xlslib_core@@@std@@@std@@QEAAXPEAPEAVCOleProp@xlslib_core@@_K@Z 000000018001d5f0 f i oledoc.obj
 0001:0001c5f0       ?deallocate@?$_Wrap_alloc@V?$allocator@PEAVworksheet@xlslib_core@@@std@@@std@@QEAAXPEAPEAVworksheet@xlslib_core@@_K@Z 000000018001d5f0 f i workbook.obj
 0001:0001c5f0       ?deallocate@?$_Wrap_alloc@V?$allocator@PEAUDataValidation@xlslib_core@@@std@@@std@@QEAAXPEAPEAUDataValidation@xlslib_core@@_K@Z 000000018001d5f0 f i sheetrec.obj
 0001:0001c5f0       ?deallocate@?$_Wrap_alloc@V?$allocator@PEAVformat_t@xlslib_core@@@std@@@std@@QEAAXPEAPEAVformat_t@xlslib_core@@_K@Z 000000018001d5f0 f i globalrec.obj
 0001:0001c600       ?_Xlen@?$vector@NV?$allocator@N@std@@@std@@IEBAXXZ 000000018001d600 f i cbridge.obj
 0001:0001c600       ?_Xlen@?$vector@PEAUstyle_t@xlslib_core@@V?$allocator@PEAUstyle_t@xlslib_core@@@std@@@std@@IEBAXXZ 000000018001d600 f i globalrec.obj
 0001:0001c600       ?_Xlen@?$vector@PEAUDataValidation@xlslib_core@@V?$allocator@PEAUDataValidation@xlslib_core@@@std@@@std@@IEBAXXZ 000000018001d600 f i sheetrec.obj
 0001:0001c600       ?_Xlen@?$vector@PEAVboundsheet_t@xlslib_core@@V?$allocator@PEAVboundsheet_t@xlslib_core@@@std@@@std@@IEBAXXZ 000000018001d600 f i globalrec.obj
 0001:0001c600       ?_Xlen@?$vector@PEAVrange@xlslib_core@@V?$allocator@PEAVrange@xlslib_core@@@std@@@std@@IEBAXXZ 000000018001d600 f i sheetrec.obj
 0001:0001c600       ?_Xlen@?$vector@V?$basic_string@_WU?$char_traits@_W@std@@V?$allocator@_W@2@@std@@V?$allocator@V?$basic_string@_WU?$char_traits@_W@std@@V?$allocator@_W@2@@std@@@2@@std@@IEBAXXZ 000000018001d600 f i cbridge.obj
 0001:0001c600       ?_Xlen@?$vector@PEAVCUnit@xlslib_core@@V?$allocator@PEAVCUnit@xlslib_core@@@std@@@std@@IEBAXXZ 000000018001d600 f i datast.obj
 0001:0001c600       ?_Xlen@?$vector@PEAVformula_t@xlslib_core@@V?$allocator@PEAVformula_t@xlslib_core@@@std@@@std@@IEBAXXZ 000000018001d600 f i sheetrec.obj
 0001:0001c600       ?_Xlen@?$vector@PEAVrange_t@xlslib_core@@V?$allocator@PEAVrange_t@xlslib_core@@@std@@@std@@IEBAXXZ 000000018001d600 f i sheetrec.obj
 0001:0001c600       ?_Xlen@?$vector@PEAUHyperLink@xlslib_core@@V?$allocator@PEAUHyperLink@xlslib_core@@@std@@@std@@IEBAXXZ 000000018001d600 f i sheetrec.obj
 0001:0001c600       ?_Xlen@?$vector@PEAVCOleProp@xlslib_core@@V?$allocator@PEAVCOleProp@xlslib_core@@@std@@@std@@IEBAXXZ 000000018001d600 f i olefs.obj
 0001:0001c600       ?_Xlen@?$vector@VCUnitStore@xlslib_core@@V?$allocator@VCUnitStore@xlslib_core@@@std@@@std@@IEBAXXZ 000000018001d600 f i datast.obj
 0001:0001c600       ?_Xlen@?$vector@PEAVfont_t@xlslib_core@@V?$allocator@PEAVfont_t@xlslib_core@@@std@@@std@@IEBAXXZ 000000018001d600 f i globalrec.obj
 0001:0001c600       ?_Xlen@?$vector@_KV?$allocator@_K@std@@@std@@IEBAXXZ 000000018001d600 f i sheetrec.obj
 0001:0001c600       ?_Xlen@?$vector@PEBVlabel_t@xlslib_core@@V?$allocator@PEBVlabel_t@xlslib_core@@@std@@@std@@IEBAXXZ 000000018001d600 f i globalrec.obj
 0001:0001c600       ?_Xlen@?$vector@PEAVformat_t@xlslib_core@@V?$allocator@PEAVformat_t@xlslib_core@@@std@@@std@@IEBAXXZ 000000018001d600 f i globalrec.obj
 0001:0001c600       ?_Xlen@?$vector@PEAVxf_t@xlslib_core@@V?$allocator@PEAVxf_t@xlslib_core@@@std@@@std@@IEBAXXZ 000000018001d600 f i globalrec.obj
 0001:0001c600       ?_Xlen@?$vector@PEAVworksheet@xlslib_core@@V?$allocator@PEAVworksheet@xlslib_core@@@std@@@std@@IEBAXXZ 000000018001d600 f i workbook.obj
 0001:0001c600       ?_Xlen@?$vector@Urowblocksize_t@xlslib_core@@V?$allocator@Urowblocksize_t@xlslib_core@@@std@@@std@@IEBAXXZ 000000018001d600 f i sheetrec.obj
 0001:0001c600       ?_Xlen@?$vector@V?$basic_string@DU?$char_traits@D@std@@V?$allocator@D@2@@std@@V?$allocator@V?$basic_string@DU?$char_traits@D@std@@V?$allocator@D@2@@std@@@2@@std@@IEBAXXZ 000000018001d600 f i cbridge.obj
 0001:0001c620       ?_Reallocate@?$vector@NV?$allocator@N@std@@@std@@IEAAX_K@Z 000000018001d620 f i cbridge.obj
 0001:0001c620       ?_Reallocate@?$vector@PEAUHyperLink@xlslib_core@@V?$allocator@PEAUHyperLink@xlslib_core@@@std@@@std@@IEAAX_K@Z 000000018001d620 f i sheetrec.obj
 0001:0001c620       ?_Reallocate@?$vector@PEAVrange@xlslib_core@@V?$allocator@PEAVrange@xlslib_core@@@std@@@std@@IEAAX_K@Z 000000018001d620 f i sheetrec.obj
 0001:0001c620       ?_Reallocate@?$vector@PEAUstyle_t@xlslib_core@@V?$allocator@PEAUstyle_t@xlslib_core@@@std@@@std@@IEAAX_K@Z 000000018001d620 f i globalrec.obj
 0001:0001c620       ?_Reallocate@?$vector@PEAVformat_t@xlslib_core@@V?$allocator@PEAVformat_t@xlslib_core@@@std@@@std@@IEAAX_K@Z 000000018001d620 f i globalrec.obj
 0001:0001c620       ?_Reallocate@?$vector@PEAVCUnit@xlslib_core@@V?$allocator@PEAVCUnit@xlslib_core@@@std@@@std@@IEAAX_K@Z 000000018001d620 f i datast.obj
 0001:0001c620       ?_Reallocate@?$vector@PEBVlabel_t@xlslib_core@@V?$allocator@PEBVlabel_t@xlslib_core@@@std@@@std@@IEAAX_K@Z 000000018001d620 f i globalrec.obj
 0001:0001c620       ?_Reallocate@?$vector@_KV?$allocator@_K@std@@@std@@IEAAX_K@Z 000000018001d620 f i sheetrec.obj
 0001:0001c620       ?_Reallocate@?$vector@PEAVxf_t@xlslib_core@@V?$allocator@PEAVxf_t@xlslib_core@@@std@@@std@@IEAAX_K@Z 000000018001d620 f i globalrec.obj
 0001:0001c620       ?_Reallocate@?$vector@PEAVfont_t@xlslib_core@@V?$allocator@PEAVfont_t@xlslib_core@@@std@@@std@@IEAAX_K@Z 000000018001d620 f i globalrec.obj
 0001:0001c620       ?_Reallocate@?$vector@PEAVCOleProp@xlslib_core@@V?$allocator@PEAVCOleProp@xlslib_core@@@std@@@std@@IEAAX_K@Z 000000018001d620 f i olefs.obj
 0001:0001c620       ?_Reallocate@?$vector@PEAUDataValidation@xlslib_core@@V?$allocator@PEAUDataValidation@xlslib_core@@@std@@@std@@IEAAX_K@Z 000000018001d620 f i sheetrec.obj
 0001:0001c620       ?_Reallocate@?$vector@PEAVworksheet@xlslib_core@@V?$allocator@PEAVworksheet@xlslib_core@@@std@@@std@@IEAAX_K@Z 000000018001d620 f i workbook.obj
 0001:0001c620       ?_Reallocate@?$vector@PEAVrange_t@xlslib_core@@V?$allocator@PEAVrange_t@xlslib_core@@@std@@@std@@IEAAX_K@Z 000000018001d620 f i sheetrec.obj
 0001:0001c620       ?_Reallocate@?$vector@PEAVformula_t@xlslib_core@@V?$allocator@PEAVformula_t@xlslib_core@@@std@@@std@@IEAAX_K@Z 000000018001d620 f i sheetrec.obj
 0001:0001c620       ?_Reallocate@?$vector@PEAVboundsheet_t@xlslib_core@@V?$allocator@PEAVboundsheet_t@xlslib_core@@@std@@@std@@IEAAX_K@Z 000000018001d620 f i globalrec.obj
 0001:0001c6a0       ?_Grow_to@?$vector@PEAUDataValidation@xlslib_core@@V?$allocator@PEAUDataValidation@xlslib_core@@@std@@@std@@IEBA_K_K@Z 000000018001d6a0 f i sheetrec.obj
 0001:0001c6a0       ?_Grow_to@?$vector@PEAVxf_t@xlslib_core@@V?$allocator@PEAVxf_t@xlslib_core@@@std@@@std@@IEBA_K_K@Z 000000018001d6a0 f i globalrec.obj
 0001:0001c6a0       ?_Grow_to@?$vector@NV?$allocator@N@std@@@std@@IEBA_K_K@Z 000000018001d6a0 f i cbridge.obj
 0001:0001c6a0       ?_Grow_to@?$vector@PEAVCOleProp@xlslib_core@@V?$allocator@PEAVCOleProp@xlslib_core@@@std@@@std@@IEBA_K_K@Z 000000018001d6a0 f i olefs.obj
 0001:0001c6a0       ?_Grow_to@?$vector@PEAUHyperLink@xlslib_core@@V?$allocator@PEAUHyperLink@xlslib_core@@@std@@@std@@IEBA_K_K@Z 000000018001d6a0 f i sheetrec.obj
 0001:0001c6a0       ?_Grow_to@?$vector@_KV?$allocator@_K@std@@@std@@IEBA_K_K@Z 000000018001d6a0 f i sheetrec.obj
 0001:0001c6a0       ?_Grow_to@?$vector@PEAVfont_t@xlslib_core@@V?$allocator@PEAVfont_t@xlslib_core@@@std@@@std@@IEBA_K_K@Z 000000018001d6a0 f i globalrec.obj
 0001:0001c6a0       ?_Grow_to@?$vector@PEAVformula_t@xlslib_core@@V?$allocator@PEAVformula_t@xlslib_core@@@std@@@std@@IEBA_K_K@Z 000000018001d6a0 f i sheetrec.obj
 0001:0001c6a0       ?_Grow_to@?$vector@PEAVworksheet@xlslib_core@@V?$allocator@PEAVworksheet@xlslib_core@@@std@@@std@@IEBA_K_K@Z 000000018001d6a0 f i workbook.obj
 0001:0001c6a0       ?_Grow_to@?$vector@PEAVrange_t@xlslib_core@@V?$allocator@PEAVrange_t@xlslib_core@@@std@@@std@@IEBA_K_K@Z 000000018001d6a0 f i sheetrec.obj
 0001:0001c6a0       ?_Grow_to@?$vector@PEAVformat_t@xlslib_core@@V?$allocator@PEAVformat_t@xlslib_core@@@std@@@std@@IEBA_K_K@Z 000000018001d6a0 f i globalrec.obj
 0001:0001c6a0       ?_Grow_to@?$vector@PEAVboundsheet_t@xlslib_core@@V?$allocator@PEAVboundsheet_t@xlslib_core@@@std@@@std@@IEBA_K_K@Z 000000018001d6a0 f i globalrec.obj
 0001:0001c6a0       ?_Grow_to@?$vector@PEBVlabel_t@xlslib_core@@V?$allocator@PEBVlabel_t@xlslib_core@@@std@@@std@@IEBA_K_K@Z 000000018001d6a0 f i globalrec.obj
 0001:0001c6a0       ?_Grow_to@?$vector@PEAVCUnit@xlslib_core@@V?$allocator@PEAVCUnit@xlslib_core@@@std@@@std@@IEBA_K_K@Z 000000018001d6a0 f i datast.obj
 0001:0001c6a0       ?_Grow_to@?$vector@PEAVrange@xlslib_core@@V?$allocator@PEAVrange@xlslib_core@@@std@@@std@@IEBA_K_K@Z 000000018001d6a0 f i sheetrec.obj
 0001:0001c6a0       ?_Grow_to@?$vector@PEAUstyle_t@xlslib_core@@V?$allocator@PEAUstyle_t@xlslib_core@@@std@@@std@@IEBA_K_K@Z 000000018001d6a0 f i globalrec.obj
 0001:0001c6e0       ?max_size@?$vector@PEBVlabel_t@xlslib_core@@V?$allocator@PEBVlabel_t@xlslib_core@@@std@@@std@@QEBA_KXZ 000000018001d6e0 f i globalrec.obj
 0001:0001c6e0       ?max_size@?$_Wrap_alloc@V?$allocator@PEAVCUnit@xlslib_core@@@std@@@std@@QEBA_KU_Nil@2@@Z 000000018001d6e0 f i datast.obj
 0001:0001c6e0       ?max_size@?$allocator@PEAVboundsheet_t@xlslib_core@@@std@@QEBA_KXZ 000000018001d6e0 f i globalrec.obj
 0001:0001c6e0       ?max_size@?$allocator_traits@V?$allocator@PEAVrange@xlslib_core@@@std@@@std@@SA_KAEBV?$allocator@PEAVrange@xlslib_core@@@2@@Z 000000018001d6e0 f i sheetrec.obj
 0001:0001c6e0       ?max_size@?$_Wrap_alloc@V?$allocator@PEAVfont_t@xlslib_core@@@std@@@std@@QEBA_KU_Nil@2@@Z 000000018001d6e0 f i globalrec.obj
 0001:0001c6e0       ?max_size@?$allocator_traits@V?$allocator@N@std@@@std@@SA_KAEBV?$allocator@N@2@@Z 000000018001d6e0 f i cbridge.obj
 0001:0001c6e0       ?max_size@?$vector@PEAUstyle_t@xlslib_core@@V?$allocator@PEAUstyle_t@xlslib_core@@@std@@@std@@QEBA_KXZ 000000018001d6e0 f i globalrec.obj
 0001:0001c6e0       ?max_size@?$allocator@PEAVfont_t@xlslib_core@@@std@@QEBA_KXZ 000000018001d6e0 f i globalrec.obj
 0001:0001c6e0       ?max_size@?$allocator@PEAVformat_t@xlslib_core@@@std@@QEBA_KXZ 000000018001d6e0 f i globalrec.obj
 0001:0001c6e0       ?max_size@?$vector@PEAVrange@xlslib_core@@V?$allocator@PEAVrange@xlslib_core@@@std@@@std@@QEBA_KXZ 000000018001d6e0 f i sheetrec.obj
 0001:0001c6e0       ?max_size@?$allocator_traits@V?$allocator@PEAVCUnit@xlslib_core@@@std@@@std@@SA_KAEBV?$allocator@PEAVCUnit@xlslib_core@@@2@@Z 000000018001d6e0 f i datast.obj
 0001:0001c6e0       ?max_size@?$_Wrap_alloc@V?$allocator@PEAVformat_t@xlslib_core@@@std@@@std@@QEBA_KU_Nil@2@@Z 000000018001d6e0 f i globalrec.obj
 0001:0001c6e0       ?max_size@?$vector@PEAVworksheet@xlslib_core@@V?$allocator@PEAVworksheet@xlslib_core@@@std@@@std@@QEBA_KXZ 000000018001d6e0 f i workbook.obj
 0001:0001c6e0       ?max_size@?$allocator@PEAUHyperLink@xlslib_core@@@std@@QEBA_KXZ 000000018001d6e0 f i sheetrec.obj
 0001:0001c6e0       ?max_size@?$allocator_traits@V?$allocator@PEBVlabel_t@xlslib_core@@@std@@@std@@SA_KAEBV?$allocator@PEBVlabel_t@xlslib_core@@@2@@Z 000000018001d6e0 f i globalrec.obj
 0001:0001c6e0       ?max_size@?$allocator@PEAVxf_t@xlslib_core@@@std@@QEBA_KXZ 000000018001d6e0 f i globalrec.obj
 0001:0001c6e0       ?max_size@?$vector@PEAVformula_t@xlslib_core@@V?$allocator@PEAVformula_t@xlslib_core@@@std@@@std@@QEBA_KXZ 000000018001d6e0 f i sheetrec.obj
 0001:0001c6e0       ?max_size@?$allocator_traits@V?$allocator@PEAUDataValidation@xlslib_core@@@std@@@std@@SA_KAEBV?$allocator@PEAUDataValidation@xlslib_core@@@2@@Z 000000018001d6e0 f i sheetrec.obj
 0001:0001c6e0       ?max_size@?$_Wrap_alloc@V?$allocator@N@std@@@std@@QEBA_KU_Nil@2@@Z 000000018001d6e0 f i cbridge.obj
 0001:0001c6e0       ?max_size@?$allocator_traits@V?$allocator@PEAVxf_t@xlslib_core@@@std@@@std@@SA_KAEBV?$allocator@PEAVxf_t@xlslib_core@@@2@@Z 000000018001d6e0 f i globalrec.obj
 0001:0001c6e0       ?max_size@?$vector@PEAVCUnit@xlslib_core@@V?$allocator@PEAVCUnit@xlslib_core@@@std@@@std@@QEBA_KXZ 000000018001d6e0 f i datast.obj
 0001:0001c6e0       ?max_size@?$_Wrap_alloc@V?$allocator@PEAVrange_t@xlslib_core@@@std@@@std@@QEBA_KU_Nil@2@@Z 000000018001d6e0 f i sheetrec.obj
 0001:0001c6e0       ?max_size@?$_Wrap_alloc@V?$allocator@PEAVboundsheet_t@xlslib_core@@@std@@@std@@QEBA_KU_Nil@2@@Z 000000018001d6e0 f i globalrec.obj
 0001:0001c6e0       ?max_size@?$vector@PEAUHyperLink@xlslib_core@@V?$allocator@PEAUHyperLink@xlslib_core@@@std@@@std@@QEBA_KXZ 000000018001d6e0 f i sheetrec.obj
 0001:0001c6e0       ?max_size@?$_Wrap_alloc@V?$allocator@PEAVformula_t@xlslib_core@@@std@@@std@@QEBA_KU_Nil@2@@Z 000000018001d6e0 f i sheetrec.obj
 0001:0001c6e0       ?max_size@?$vector@_KV?$allocator@_K@std@@@std@@QEBA_KXZ 000000018001d6e0 f i sheetrec.obj
 0001:0001c6e0       ?max_size@?$allocator@PEAVrange_t@xlslib_core@@@std@@QEBA_KXZ 000000018001d6e0 f i sheetrec.obj
 0001:0001c6e0       ?max_size@?$_Wrap_alloc@V?$allocator@PEAUHyperLink@xlslib_core@@@std@@@std@@QEBA_KU_Nil@2@@Z 000000018001d6e0 f i sheetrec.obj
 0001:0001c6e0       ?max_size@?$allocator_traits@V?$allocator@PEAVformat_t@xlslib_core@@@std@@@std@@SA_KAEBV?$allocator@PEAVformat_t@xlslib_core@@@2@@Z 000000018001d6e0 f i globalrec.obj
 0001:0001c6e0       ?max_size@?$allocator@N@std@@QEBA_KXZ 000000018001d6e0 f i cbridge.obj
 0001:0001c6e0       ?max_size@?$allocator_traits@V?$allocator@PEAVCOleProp@xlslib_core@@@std@@@std@@SA_KAEBV?$allocator@PEAVCOleProp@xlslib_core@@@2@@Z 000000018001d6e0 f i olefs.obj
 0001:0001c6e0       ?max_size@?$allocator@PEAVCUnit@xlslib_core@@@std@@QEBA_KXZ 000000018001d6e0 f i datast.obj
 0001:0001c6e0       ?max_size@?$allocator@PEAUDataValidation@xlslib_core@@@std@@QEBA_KXZ 000000018001d6e0 f i sheetrec.obj
 0001:0001c6e0       ?max_size@?$vector@PEAVrange_t@xlslib_core@@V?$allocator@PEAVrange_t@xlslib_core@@@std@@@std@@QEBA_KXZ 000000018001d6e0 f i sheetrec.obj
 0001:0001c6e0       ?max_size@?$allocator_traits@V?$allocator@PEAVfont_t@xlslib_core@@@std@@@std@@SA_KAEBV?$allocator@PEAVfont_t@xlslib_core@@@2@@Z 000000018001d6e0 f i globalrec.obj
 0001:0001c6e0       ?max_size@?$allocator@PEBVlabel_t@xlslib_core@@@std@@QEBA_KXZ 000000018001d6e0 f i globalrec.obj
 0001:0001c6e0       ?max_size@?$allocator@PEAVCOleProp@xlslib_core@@@std@@QEBA_KXZ 000000018001d6e0 f i olefs.obj
 0001:0001c6e0       ?max_size@?$allocator_traits@V?$allocator@PEAVworksheet@xlslib_core@@@std@@@std@@SA_KAEBV?$allocator@PEAVworksheet@xlslib_core@@@2@@Z 000000018001d6e0 f i workbook.obj
 0001:0001c6e0       ?max_size@?$allocator@PEAVrange@xlslib_core@@@std@@QEBA_KXZ 000000018001d6e0 f i sheetrec.obj
 0001:0001c6e0       ?max_size@?$_Wrap_alloc@V?$allocator@PEAVworksheet@xlslib_core@@@std@@@std@@QEBA_KU_Nil@2@@Z 000000018001d6e0 f i workbook.obj
 0001:0001c6e0       ?max_size@?$vector@PEAVCOleProp@xlslib_core@@V?$allocator@PEAVCOleProp@xlslib_core@@@std@@@std@@QEBA_KXZ 000000018001d6e0 f i olefs.obj
 0001:0001c6e0       ?max_size@?$vector@PEAVxf_t@xlslib_core@@V?$allocator@PEAVxf_t@xlslib_core@@@std@@@std@@QEBA_KXZ 000000018001d6e0 f i globalrec.obj
 0001:0001c6e0       ?max_size@?$_Wrap_alloc@V?$allocator@_K@std@@@std@@QEBA_KU_Nil@2@@Z 000000018001d6e0 f i sheetrec.obj
 0001:0001c6e0       ?max_size@?$allocator@_K@std@@QEBA_KXZ 000000018001d6e0 f i sheetrec.obj
 0001:0001c6e0       ?max_size@?$vector@NV?$allocator@N@std@@@std@@QEBA_KXZ 000000018001d6e0 f i cbridge.obj
 0001:0001c6e0       ?max_size@?$allocator_traits@V?$allocator@PEAVformula_t@xlslib_core@@@std@@@std@@SA_KAEBV?$allocator@PEAVformula_t@xlslib_core@@@2@@Z 000000018001d6e0 f i sheetrec.obj
 0001:0001c6e0       ?max_size@?$vector@PEAVformat_t@xlslib_core@@V?$allocator@PEAVformat_t@xlslib_core@@@std@@@std@@QEBA_KXZ 000000018001d6e0 f i globalrec.obj
 0001:0001c6e0       ?max_size@?$allocator@PEAVworksheet@xlslib_core@@@std@@QEBA_KXZ 000000018001d6e0 f i workbook.obj
 0001:0001c6e0       ?max_size@?$vector@PEAVfont_t@xlslib_core@@V?$allocator@PEAVfont_t@xlslib_core@@@std@@@std@@QEBA_KXZ 000000018001d6e0 f i globalrec.obj
 0001:0001c6e0       ?max_size@?$_Wrap_alloc@V?$allocator@PEAVxf_t@xlslib_core@@@std@@@std@@QEBA_KU_Nil@2@@Z 000000018001d6e0 f i globalrec.obj
 0001:0001c6e0       ?max_size@?$_Wrap_alloc@V?$allocator@PEAVrange@xlslib_core@@@std@@@std@@QEBA_KU_Nil@2@@Z 000000018001d6e0 f i sheetrec.obj
 0001:0001c6e0       ?max_size@?$allocator_traits@V?$allocator@_K@std@@@std@@SA_KAEBV?$allocator@_K@2@@Z 000000018001d6e0 f i sheetrec.obj
 0001:0001c6e0       ?max_size@?$allocator_traits@V?$allocator@PEAUstyle_t@xlslib_core@@@std@@@std@@SA_KAEBV?$allocator@PEAUstyle_t@xlslib_core@@@2@@Z 000000018001d6e0 f i globalrec.obj
 0001:0001c6e0       ?max_size@?$allocator@PEAUstyle_t@xlslib_core@@@std@@QEBA_KXZ 000000018001d6e0 f i globalrec.obj
 0001:0001c6e0       ?max_size@?$_Wrap_alloc@V?$allocator@PEAVCOleProp@xlslib_core@@@std@@@std@@QEBA_KU_Nil@2@@Z 000000018001d6e0 f i olefs.obj
 0001:0001c6e0       ?max_size@?$_Wrap_alloc@V?$allocator@PEAUstyle_t@xlslib_core@@@std@@@std@@QEBA_KU_Nil@2@@Z 000000018001d6e0 f i globalrec.obj
 0001:0001c6e0       ?max_size@?$allocator_traits@V?$allocator@PEAVboundsheet_t@xlslib_core@@@std@@@std@@SA_KAEBV?$allocator@PEAVboundsheet_t@xlslib_core@@@2@@Z 000000018001d6e0 f i globalrec.obj
 0001:0001c6e0       ?max_size@?$allocator@PEAVformula_t@xlslib_core@@@std@@QEBA_KXZ 000000018001d6e0 f i sheetrec.obj
 0001:0001c6e0       ?max_size@?$vector@PEAVboundsheet_t@xlslib_core@@V?$allocator@PEAVboundsheet_t@xlslib_core@@@std@@@std@@QEBA_KXZ 000000018001d6e0 f i globalrec.obj
 0001:0001c6e0       ?max_size@?$_Wrap_alloc@V?$allocator@PEAUDataValidation@xlslib_core@@@std@@@std@@QEBA_KU_Nil@2@@Z 000000018001d6e0 f i sheetrec.obj
 0001:0001c6e0       ?max_size@?$allocator_traits@V?$allocator@PEAVrange_t@xlslib_core@@@std@@@std@@SA_KAEBV?$allocator@PEAVrange_t@xlslib_core@@@2@@Z 000000018001d6e0 f i sheetrec.obj
 0001:0001c6e0       ?max_size@?$vector@PEAUDataValidation@xlslib_core@@V?$allocator@PEAUDataValidation@xlslib_core@@@std@@@std@@QEBA_KXZ 000000018001d6e0 f i sheetrec.obj
 0001:0001c6e0       ?max_size@?$allocator_traits@V?$allocator@PEAUHyperLink@xlslib_core@@@std@@@std@@SA_KAEBV?$allocator@PEAUHyperLink@xlslib_core@@@2@@Z 000000018001d6e0 f i sheetrec.obj
 0001:0001c6e0       ?max_size@?$_Wrap_alloc@V?$allocator@PEBVlabel_t@xlslib_core@@@std@@@std@@QEBA_KU_Nil@2@@Z 000000018001d6e0 f i globalrec.obj
 0001:0001c6f0       ?size@?$vector@PEAVxf_t@xlslib_core@@V?$allocator@PEAVxf_t@xlslib_core@@@std@@@std@@QEBA_KXZ 000000018001d6f0 f i globalrec.obj
 0001:0001c6f0       ?size@?$vector@PEAUHyperLink@xlslib_core@@V?$allocator@PEAUHyperLink@xlslib_core@@@std@@@std@@QEBA_KXZ 000000018001d6f0 f i sheetrec.obj
 0001:0001c6f0       ?size@?$vector@PEAVformula_t@xlslib_core@@V?$allocator@PEAVformula_t@xlslib_core@@@std@@@std@@QEBA_KXZ 000000018001d6f0 f i sheetrec.obj
 0001:0001c6f0       ?size@?$vector@PEAVCOleProp@xlslib_core@@V?$allocator@PEAVCOleProp@xlslib_core@@@std@@@std@@QEBA_KXZ 000000018001d6f0 f i olefs.obj
 0001:0001c6f0       ?size@?$vector@PEAUDataValidation@xlslib_core@@V?$allocator@PEAUDataValidation@xlslib_core@@@std@@@std@@QEBA_KXZ 000000018001d6f0 f i sheetrec.obj
 0001:0001c6f0       ?size@?$vector@PEAVrange@xlslib_core@@V?$allocator@PEAVrange@xlslib_core@@@std@@@std@@QEBA_KXZ 000000018001d6f0 f i sheetrec.obj
 0001:0001c6f0       ?size@?$vector@PEAVboundsheet_t@xlslib_core@@V?$allocator@PEAVboundsheet_t@xlslib_core@@@std@@@std@@QEBA_KXZ 000000018001d6f0 f i datast.obj
 0001:0001c6f0       ?size@?$vector@PEAVrange_t@xlslib_core@@V?$allocator@PEAVrange_t@xlslib_core@@@std@@@std@@QEBA_KXZ 000000018001d6f0 f i sheetrec.obj
 0001:0001c6f0       ?size@?$vector@PEAVfont_t@xlslib_core@@V?$allocator@PEAVfont_t@xlslib_core@@@std@@@std@@QEBA_KXZ 000000018001d6f0 f i globalrec.obj
 0001:0001c6f0       ?size@?$vector@PEAVworksheet@xlslib_core@@V?$allocator@PEAVworksheet@xlslib_core@@@std@@@std@@QEBA_KXZ 000000018001d6f0 f i workbook.obj
 0001:0001c6f0       ?size@?$vector@NV?$allocator@N@std@@@std@@QEBA_KXZ 000000018001d6f0 f i cbridge.obj
 0001:0001c6f0       ?size@?$vector@PEAVformat_t@xlslib_core@@V?$allocator@PEAVformat_t@xlslib_core@@@std@@@std@@QEBA_KXZ 000000018001d6f0 f i globalrec.obj
 0001:0001c6f0       ?size@?$vector@PEAUstyle_t@xlslib_core@@V?$allocator@PEAUstyle_t@xlslib_core@@@std@@@std@@QEBA_KXZ 000000018001d6f0 f i globalrec.obj
 0001:0001c6f0       ?size@?$vector@PEBVlabel_t@xlslib_core@@V?$allocator@PEBVlabel_t@xlslib_core@@@std@@@std@@QEBA_KXZ 000000018001d6f0 f i datast.obj
 0001:0001c6f0       ?size@?$vector@_KV?$allocator@_K@std@@@std@@QEBA_KXZ 000000018001d6f0 f i sheetrec.obj
 0001:0001c6f0       ?size@?$vector@PEAVCUnit@xlslib_core@@V?$allocator@PEAVCUnit@xlslib_core@@@std@@@std@@QEBA_KXZ 000000018001d6f0 f i datast.obj
 0001:0001c700       ?_Unused_capacity@?$vector@NV?$allocator@N@std@@@std@@QEBA_KXZ 000000018001d700 f i cbridge.obj
 0001:0001c700       ?_Unused_capacity@?$vector@PEAVfont_t@xlslib_core@@V?$allocator@PEAVfont_t@xlslib_core@@@std@@@std@@QEBA_KXZ 000000018001d700 f i globalrec.obj
 0001:0001c700       ?_Unused_capacity@?$vector@PEBVlabel_t@xlslib_core@@V?$allocator@PEBVlabel_t@xlslib_core@@@std@@@std@@QEBA_KXZ 000000018001d700 f i globalrec.obj
 0001:0001c700       ?_Unused_capacity@?$vector@PEAUDataValidation@xlslib_core@@V?$allocator@PEAUDataValidation@xlslib_core@@@std@@@std@@QEBA_KXZ 000000018001d700 f i sheetrec.obj
 0001:0001c700       ?_Unused_capacity@?$vector@PEAVCUnit@xlslib_core@@V?$allocator@PEAVCUnit@xlslib_core@@@std@@@std@@QEBA_KXZ 000000018001d700 f i datast.obj
 0001:0001c700       ?_Unused_capacity@?$vector@PEAUstyle_t@xlslib_core@@V?$allocator@PEAUstyle_t@xlslib_core@@@std@@@std@@QEBA_KXZ 000000018001d700 f i globalrec.obj
 0001:0001c700       ?_Unused_capacity@?$vector@PEAVrange_t@xlslib_core@@V?$allocator@PEAVrange_t@xlslib_core@@@std@@@std@@QEBA_KXZ 000000018001d700 f i sheetrec.obj
 0001:0001c700       ?_Unused_capacity@?$vector@PEAVformula_t@xlslib_core@@V?$allocator@PEAVformula_t@xlslib_core@@@std@@@std@@QEBA_KXZ 000000018001d700 f i sheetrec.obj
 0001:0001c700       ?_Unused_capacity@?$vector@PEAVboundsheet_t@xlslib_core@@V?$allocator@PEAVboundsheet_t@xlslib_core@@@std@@@std@@QEBA_KXZ 000000018001d700 f i globalrec.obj
 0001:0001c700       ?_Unused_capacity@?$vector@PEAVrange@xlslib_core@@V?$allocator@PEAVrange@xlslib_core@@@std@@@std@@QEBA_KXZ 000000018001d700 f i sheetrec.obj
 0001:0001c700       ?_Unused_capacity@?$vector@PEAVCOleProp@xlslib_core@@V?$allocator@PEAVCOleProp@xlslib_core@@@std@@@std@@QEBA_KXZ 000000018001d700 f i olefs.obj
 0001:0001c700       ?_Unused_capacity@?$vector@PEAUHyperLink@xlslib_core@@V?$allocator@PEAUHyperLink@xlslib_core@@@std@@@std@@QEBA_KXZ 000000018001d700 f i sheetrec.obj
 0001:0001c700       ?_Unused_capacity@?$vector@PEAVxf_t@xlslib_core@@V?$allocator@PEAVxf_t@xlslib_core@@@std@@@std@@QEBA_KXZ 000000018001d700 f i globalrec.obj
 0001:0001c700       ?_Unused_capacity@?$vector@PEAVformat_t@xlslib_core@@V?$allocator@PEAVformat_t@xlslib_core@@@std@@@std@@QEBA_KXZ 000000018001d700 f i globalrec.obj
 0001:0001c700       ?_Unused_capacity@?$vector@_KV?$allocator@_K@std@@@std@@QEBA_KXZ 000000018001d700 f i sheetrec.obj
 0001:0001c700       ?_Unused_capacity@?$vector@PEAVworksheet@xlslib_core@@V?$allocator@PEAVworksheet@xlslib_core@@@std@@@std@@QEBA_KXZ 000000018001d700 f i workbook.obj
 0001:0001c710       ?_Reallocate@?$vector@V?$basic_string@_WU?$char_traits@_W@std@@V?$allocator@_W@2@@std@@V?$allocator@V?$basic_string@_WU?$char_traits@_W@std@@V?$allocator@_W@2@@std@@@2@@std@@IEAAX_K@Z 000000018001d710 f i cbridge.obj
 0001:0001c7f0       ?_Grow_to@?$vector@V?$basic_string@_WU?$char_traits@_W@std@@V?$allocator@_W@2@@std@@V?$allocator@V?$basic_string@_WU?$char_traits@_W@std@@V?$allocator@_W@2@@std@@@2@@std@@IEBA_K_K@Z 000000018001d7f0 f i cbridge.obj
 0001:0001c7f0       ?_Grow_to@?$vector@VCUnitStore@xlslib_core@@V?$allocator@VCUnitStore@xlslib_core@@@std@@@std@@IEBA_K_K@Z 000000018001d7f0 f i datast.obj
 0001:0001c7f0       ?_Grow_to@?$vector@V?$basic_string@DU?$char_traits@D@std@@V?$allocator@D@2@@std@@V?$allocator@V?$basic_string@DU?$char_traits@D@std@@V?$allocator@D@2@@std@@@2@@std@@IEBA_K_K@Z 000000018001d7f0 f i cbridge.obj
 0001:0001c830       ?_Destroy@?$vector@V?$basic_string@_WU?$char_traits@_W@std@@V?$allocator@_W@2@@std@@V?$allocator@V?$basic_string@_WU?$char_traits@_W@std@@V?$allocator@_W@2@@std@@@2@@std@@IEAAXPEAV?$basic_string@_WU?$char_traits@_W@std@@V?$allocator@_W@2@@2@0@Z 000000018001d830 f i cbridge.obj
 0001:0001c840       ?max_size@?$_Wrap_alloc@V?$allocator@VCUnitStore@xlslib_core@@@std@@@std@@QEBA_KU_Nil@2@@Z 000000018001d840 f i datast.obj
 0001:0001c840       ?max_size@?$allocator_traits@V?$allocator@V?$basic_string@_WU?$char_traits@_W@std@@V?$allocator@_W@2@@std@@@std@@@std@@SA_KAEBV?$allocator@V?$basic_string@_WU?$char_traits@_W@std@@V?$allocator@_W@2@@std@@@2@@Z 000000018001d840 f i cbridge.obj
 0001:0001c840       ?max_size@?$allocator_traits@V?$allocator@VCUnitStore@xlslib_core@@@std@@@std@@SA_KAEBV?$allocator@VCUnitStore@xlslib_core@@@2@@Z 000000018001d840 f i datast.obj
 0001:0001c840       ?max_size@?$_Wrap_alloc@V?$allocator@V?$basic_string@DU?$char_traits@D@std@@V?$allocator@D@2@@std@@@std@@@std@@QEBA_KU_Nil@2@@Z 000000018001d840 f i cbridge.obj
 0001:0001c840       ?max_size@?$vector@V?$basic_string@_WU?$char_traits@_W@std@@V?$allocator@_W@2@@std@@V?$allocator@V?$basic_string@_WU?$char_traits@_W@std@@V?$allocator@_W@2@@std@@@2@@std@@QEBA_KXZ 000000018001d840 f i cbridge.obj
 0001:0001c840       ?max_size@?$allocator@V?$basic_string@_WU?$char_traits@_W@std@@V?$allocator@_W@2@@std@@@std@@QEBA_KXZ 000000018001d840 f i cbridge.obj
 0001:0001c840       ?max_size@?$allocator@V?$basic_string@DU?$char_traits@D@std@@V?$allocator@D@2@@std@@@std@@QEBA_KXZ 000000018001d840 f i cbridge.obj
 0001:0001c840       ?max_size@?$vector@VCUnitStore@xlslib_core@@V?$allocator@VCUnitStore@xlslib_core@@@std@@@std@@QEBA_KXZ 000000018001d840 f i datast.obj
 0001:0001c840       ?max_size@?$allocator_traits@V?$allocator@V?$basic_string@DU?$char_traits@D@std@@V?$allocator@D@2@@std@@@std@@@std@@SA_KAEBV?$allocator@V?$basic_string@DU?$char_traits@D@std@@V?$allocator@D@2@@std@@@2@@Z 000000018001d840 f i cbridge.obj
 0001:0001c840       ?max_size@?$allocator@VCUnitStore@xlslib_core@@@std@@QEBA_KXZ 000000018001d840 f i datast.obj
 0001:0001c840       ?max_size@?$_Wrap_alloc@V?$allocator@V?$basic_string@_WU?$char_traits@_W@std@@V?$allocator@_W@2@@std@@@std@@@std@@QEBA_KU_Nil@2@@Z 000000018001d840 f i cbridge.obj
 0001:0001c840       ?max_size@?$vector@V?$basic_string@DU?$char_traits@D@std@@V?$allocator@D@2@@std@@V?$allocator@V?$basic_string@DU?$char_traits@D@std@@V?$allocator@D@2@@std@@@2@@std@@QEBA_KXZ 000000018001d840 f i cbridge.obj
 0001:0001c850       ?size@?$vector@V?$basic_string@DU?$char_traits@D@std@@V?$allocator@D@2@@std@@V?$allocator@V?$basic_string@DU?$char_traits@D@std@@V?$allocator@D@2@@std@@@2@@std@@QEBA_KXZ 000000018001d850 f i cbridge.obj
 0001:0001c850       ?size@?$vector@VCUnitStore@xlslib_core@@V?$allocator@VCUnitStore@xlslib_core@@@std@@@std@@QEBA_KXZ 000000018001d850 f i datast.obj
 0001:0001c850       ?size@?$vector@V?$basic_string@_WU?$char_traits@_W@std@@V?$allocator@_W@2@@std@@V?$allocator@V?$basic_string@_WU?$char_traits@_W@std@@V?$allocator@_W@2@@std@@@2@@std@@QEBA_KXZ 000000018001d850 f i cbridge.obj
 0001:0001c860       ?_Unused_capacity@?$vector@V?$basic_string@_WU?$char_traits@_W@std@@V?$allocator@_W@2@@std@@V?$allocator@V?$basic_string@_WU?$char_traits@_W@std@@V?$allocator@_W@2@@std@@@2@@std@@QEBA_KXZ 000000018001d860 f i cbridge.obj
 0001:0001c860       ?_Unused_capacity@?$vector@V?$basic_string@DU?$char_traits@D@std@@V?$allocator@D@2@@std@@V?$allocator@V?$basic_string@DU?$char_traits@D@std@@V?$allocator@D@2@@std@@@2@@std@@QEBA_KXZ 000000018001d860 f i cbridge.obj
 0001:0001c860       ?_Unused_capacity@?$vector@VCUnitStore@xlslib_core@@V?$allocator@VCUnitStore@xlslib_core@@@std@@@std@@QEBA_KXZ 000000018001d860 f i datast.obj
 0001:0001c870       ?_Reallocate@?$vector@V?$basic_string@DU?$char_traits@D@std@@V?$allocator@D@2@@std@@V?$allocator@V?$basic_string@DU?$char_traits@D@std@@V?$allocator@D@2@@std@@@2@@std@@IEAAX_K@Z 000000018001d870 f i cbridge.obj
 0001:0001c950       ?_Destroy@?$vector@V?$basic_string@DU?$char_traits@D@std@@V?$allocator@D@2@@std@@V?$allocator@V?$basic_string@DU?$char_traits@D@std@@V?$allocator@D@2@@std@@@2@@std@@IEAAXPEAV?$basic_string@DU?$char_traits@D@std@@V?$allocator@D@2@@2@0@Z 000000018001d950 f i cbridge.obj
 0001:0001c960       ?deallocate@?$allocator@_S@std@@QEAAXPEA_S_K@Z 000000018001d960 f i datast.obj
 0001:0001c960       ?deallocate@?$_Wrap_alloc@V?$allocator@_W@std@@@std@@QEAAXPEA_W_K@Z 000000018001d960 f i cbridge.obj
 0001:0001c960       ?deallocate@?$_Wrap_alloc@V?$allocator@_S@std@@@std@@QEAAXPEA_S_K@Z 000000018001d960 f i datast.obj
 0001:0001c960       ?deallocate@?$allocator@_W@std@@QEAAXPEA_W_K@Z 000000018001d960 f i cbridge.obj
 0001:0001c9d0       ?_Inside@?$basic_string@_WU?$char_traits@_W@std@@V?$allocator@_W@2@@std@@QEAA_NPEB_W@Z 000000018001d9d0 f i cbridge.obj
 0001:0001c9d0       ?_Inside@?$basic_string@_SU?$char_traits@_S@std@@V?$allocator@_S@2@@std@@QEAA_NPEB_S@Z 000000018001d9d0 f i datast.obj
 0001:0001ca10       ?_Grow@?$basic_string@_WU?$char_traits@_W@std@@V?$allocator@_W@2@@std@@QEAA_N_K_N@Z 000000018001da10 f i cbridge.obj
 0001:0001ca80       ?_Eos@?$basic_string@_SU?$char_traits@_S@std@@V?$allocator@_S@2@@std@@QEAAX_K@Z 000000018001da80 f i datast.obj
 0001:0001ca80       ?_Eos@?$basic_string@_WU?$char_traits@_W@std@@V?$allocator@_W@2@@std@@QEAAX_K@Z 000000018001da80 f i cbridge.obj
 0001:0001caa0       ?_Chassign@?$basic_string@_WU?$char_traits@_W@std@@V?$allocator@_W@2@@std@@QEAAX_K0_W@Z 000000018001daa0 f i cbridge.obj
 0001:0001caa0       ?_Chassign@?$basic_string@_SU?$char_traits@_S@std@@V?$allocator@_S@2@@std@@QEAAX_K0_S@Z 000000018001daa0 f i note.obj
 0001:0001cac0       ?assign@?$basic_string@_WU?$char_traits@_W@std@@V?$allocator@_W@2@@std@@QEAAAEAV12@AEBV12@_K1@Z 000000018001dac0 f i cbridge.obj
 0001:0001cc10       ?_Assign_rv@?$basic_string@_WU?$char_traits@_W@std@@V?$allocator@_W@2@@std@@QEAAX$$QEAV12@@Z 000000018001dc10 f i cbridge.obj
 0001:0001cca0       ?_Chassign@?$basic_string@DU?$char_traits@D@std@@V?$allocator@D@2@@std@@QEAAX_K0D@Z 000000018001dca0 f i cbridge.obj
 0001:0001ccd0       ?allocate@?$_Wrap_alloc@V?$allocator@VCUnitStore@xlslib_core@@@std@@@std@@QEAAPEAVCUnitStore@xlslib_core@@_K@Z 000000018001dcd0 f i datast.obj
 0001:0001ccd0       ?allocate@?$_Wrap_alloc@V?$allocator@V?$basic_string@_WU?$char_traits@_W@std@@V?$allocator@_W@2@@std@@@std@@@std@@QEAAPEAV?$basic_string@_WU?$char_traits@_W@std@@V?$allocator@_W@2@@2@_K@Z 000000018001dcd0 f i cbridge.obj
 0001:0001ccd0       ?allocate@?$_Wrap_alloc@V?$allocator@V?$basic_string@DU?$char_traits@D@std@@V?$allocator@D@2@@std@@@std@@@std@@QEAAPEAV?$basic_string@DU?$char_traits@D@std@@V?$allocator@D@2@@2@_K@Z 000000018001dcd0 f i cbridge.obj
 0001:0001ccd0       ?allocate@?$allocator@V?$basic_string@DU?$char_traits@D@std@@V?$allocator@D@2@@std@@@std@@QEAAPEAV?$basic_string@DU?$char_traits@D@std@@V?$allocator@D@2@@2@_K@Z 000000018001dcd0 f i cbridge.obj
 0001:0001ccd0       ?allocate@?$allocator@V?$basic_string@_WU?$char_traits@_W@std@@V?$allocator@_W@2@@std@@@std@@QEAAPEAV?$basic_string@_WU?$char_traits@_W@std@@V?$allocator@_W@2@@2@_K@Z 000000018001dcd0 f i cbridge.obj
 0001:0001ccd0       ?allocate@?$allocator@VCUnitStore@xlslib_core@@@std@@QEAAPEAVCUnitStore@xlslib_core@@_K@Z 000000018001dcd0 f i datast.obj
 0001:0001cd40       ?allocate@?$_Wrap_alloc@V?$allocator@PEAVrange_t@xlslib_core@@@std@@@std@@QEAAPEAPEAVrange_t@xlslib_core@@_K@Z 000000018001dd40 f i sheetrec.obj
 0001:0001cd40       ?allocate@?$_Wrap_alloc@V?$allocator@_K@std@@@std@@QEAAPEA_K_K@Z 000000018001dd40 f i sheetrec.obj
 0001:0001cd40       ?allocate@?$_Wrap_alloc@V?$allocator@PEAVxf_t@xlslib_core@@@std@@@std@@QEAAPEAPEAVxf_t@xlslib_core@@_K@Z 000000018001dd40 f i globalrec.obj
 0001:0001cd40       ?allocate@?$_Wrap_alloc@V?$allocator@PEAVformula_t@xlslib_core@@@std@@@std@@QEAAPEAPEAVformula_t@xlslib_core@@_K@Z 000000018001dd40 f i sheetrec.obj
 0001:0001cd40       ?allocate@?$_Wrap_alloc@V?$allocator@PEBVlabel_t@xlslib_core@@@std@@@std@@QEAAPEAPEBVlabel_t@xlslib_core@@_K@Z 000000018001dd40 f i globalrec.obj
 0001:0001cd40       ?allocate@?$_Wrap_alloc@V?$allocator@PEAVformat_t@xlslib_core@@@std@@@std@@QEAAPEAPEAVformat_t@xlslib_core@@_K@Z 000000018001dd40 f i globalrec.obj
 0001:0001cd40       ?allocate@?$_Wrap_alloc@V?$allocator@PEAVboundsheet_t@xlslib_core@@@std@@@std@@QEAAPEAPEAVboundsheet_t@xlslib_core@@_K@Z 000000018001dd40 f i globalrec.obj
 0001:0001cd40       ?allocate@?$_Wrap_alloc@V?$allocator@PEAVCUnit@xlslib_core@@@std@@@std@@QEAAPEAPEAVCUnit@xlslib_core@@_K@Z 000000018001dd40 f i datast.obj
 0001:0001cd40       ?allocate@?$_Wrap_alloc@V?$allocator@PEAUDataValidation@xlslib_core@@@std@@@std@@QEAAPEAPEAUDataValidation@xlslib_core@@_K@Z 000000018001dd40 f i sheetrec.obj
 0001:0001cd40       ?allocate@?$_Wrap_alloc@V?$allocator@PEAUHyperLink@xlslib_core@@@std@@@std@@QEAAPEAPEAUHyperLink@xlslib_core@@_K@Z 000000018001dd40 f i sheetrec.obj
 0001:0001cd40       ?allocate@?$_Wrap_alloc@V?$allocator@PEAVworksheet@xlslib_core@@@std@@@std@@QEAAPEAPEAVworksheet@xlslib_core@@_K@Z 000000018001dd40 f i workbook.obj
 0001:0001cd40       ?allocate@?$_Wrap_alloc@V?$allocator@N@std@@@std@@QEAAPEAN_K@Z 000000018001dd40 f i cbridge.obj
 0001:0001cd40       ?allocate@?$_Wrap_alloc@V?$allocator@PEAVrange@xlslib_core@@@std@@@std@@QEAAPEAPEAVrange@xlslib_core@@_K@Z 000000018001dd40 f i sheetrec.obj
 0001:0001cd40       ?allocate@?$_Wrap_alloc@V?$allocator@PEAVfont_t@xlslib_core@@@std@@@std@@QEAAPEAPEAVfont_t@xlslib_core@@_K@Z 000000018001dd40 f i globalrec.obj
 0001:0001cd40       ?allocate@?$_Wrap_alloc@V?$allocator@PEAVCOleProp@xlslib_core@@@std@@@std@@QEAAPEAPEAVCOleProp@xlslib_core@@_K@Z 000000018001dd40 f i olefs.obj
 0001:0001cd40       ?allocate@?$_Wrap_alloc@V?$allocator@PEAUstyle_t@xlslib_core@@@std@@@std@@QEAAPEAPEAUstyle_t@xlslib_core@@_K@Z 000000018001dd40 f i globalrec.obj
 0001:0001cd50       ?capacity@?$vector@PEAVCOleProp@xlslib_core@@V?$allocator@PEAVCOleProp@xlslib_core@@@std@@@std@@QEBA_KXZ 000000018001dd50 f i olefs.obj
 0001:0001cd50       ?capacity@?$vector@PEAVformula_t@xlslib_core@@V?$allocator@PEAVformula_t@xlslib_core@@@std@@@std@@QEBA_KXZ 000000018001dd50 f i sheetrec.obj
 0001:0001cd50       ?capacity@?$vector@PEAUHyperLink@xlslib_core@@V?$allocator@PEAUHyperLink@xlslib_core@@@std@@@std@@QEBA_KXZ 000000018001dd50 f i sheetrec.obj
 0001:0001cd50       ?capacity@?$vector@PEBVlabel_t@xlslib_core@@V?$allocator@PEBVlabel_t@xlslib_core@@@std@@@std@@QEBA_KXZ 000000018001dd50 f i globalrec.obj
 0001:0001cd50       ?capacity@?$vector@PEAVCUnit@xlslib_core@@V?$allocator@PEAVCUnit@xlslib_core@@@std@@@std@@QEBA_KXZ 000000018001dd50 f i datast.obj
 0001:0001cd50       ?capacity@?$vector@PEAUDataValidation@xlslib_core@@V?$allocator@PEAUDataValidation@xlslib_core@@@std@@@std@@QEBA_KXZ 000000018001dd50 f i sheetrec.obj
 0001:0001cd50       ?capacity@?$vector@PEAVrange_t@xlslib_core@@V?$allocator@PEAVrange_t@xlslib_core@@@std@@@std@@QEBA_KXZ 000000018001dd50 f i sheetrec.obj
 0001:0001cd50       ?capacity@?$vector@PEAVfont_t@xlslib_core@@V?$allocator@PEAVfont_t@xlslib_core@@@std@@@std@@QEBA_KXZ 000000018001dd50 f i globalrec.obj
 0001:0001cd50       ?capacity@?$vector@PEAVboundsheet_t@xlslib_core@@V?$allocator@PEAVboundsheet_t@xlslib_core@@@std@@@std@@QEBA_KXZ 000000018001dd50 f i globalrec.obj
 0001:0001cd50       ?capacity@?$vector@_KV?$allocator@_K@std@@@std@@QEBA_KXZ 000000018001dd50 f i sheetrec.obj
 0001:0001cd50       ?capacity@?$vector@NV?$allocator@N@std@@@std@@QEBA_KXZ 000000018001dd50 f i cbridge.obj
 0001:0001cd50       ?capacity@?$vector@PEAUstyle_t@xlslib_core@@V?$allocator@PEAUstyle_t@xlslib_core@@@std@@@std@@QEBA_KXZ 000000018001dd50 f i globalrec.obj
 0001:0001cd50       ?capacity@?$vector@PEAVformat_t@xlslib_core@@V?$allocator@PEAVformat_t@xlslib_core@@@std@@@std@@QEBA_KXZ 000000018001dd50 f i globalrec.obj
 0001:0001cd50       ?capacity@?$vector@PEAVworksheet@xlslib_core@@V?$allocator@PEAVworksheet@xlslib_core@@@std@@@std@@QEBA_KXZ 000000018001dd50 f i workbook.obj
 0001:0001cd50       ?capacity@?$vector@PEAVxf_t@xlslib_core@@V?$allocator@PEAVxf_t@xlslib_core@@@std@@@std@@QEBA_KXZ 000000018001dd50 f i globalrec.obj
 0001:0001cd50       ?capacity@?$vector@PEAVrange@xlslib_core@@V?$allocator@PEAVrange@xlslib_core@@@std@@@std@@QEBA_KXZ 000000018001dd50 f i sheetrec.obj
 0001:0001cd60       ?deallocate@?$allocator@PEAVboundsheet_t@xlslib_core@@@std@@QEAAXPEAPEAVboundsheet_t@xlslib_core@@_K@Z 000000018001dd60 f i globalrec.obj
 0001:0001cd60       ?deallocate@?$allocator@PEBVlabel_t@xlslib_core@@@std@@QEAAXPEAPEBVlabel_t@xlslib_core@@_K@Z 000000018001dd60 f i globalrec.obj
 0001:0001cd60       ?deallocate@?$allocator@PEAUHyperLink@xlslib_core@@@std@@QEAAXPEAPEAUHyperLink@xlslib_core@@_K@Z 000000018001dd60 f i sheetrec.obj
 0001:0001cd60       ?deallocate@?$allocator@PEAVfont_t@xlslib_core@@@std@@QEAAXPEAPEAVfont_t@xlslib_core@@_K@Z 000000018001dd60 f i globalrec.obj
 0001:0001cd60       ?deallocate@?$allocator@PEAUDataValidation@xlslib_core@@@std@@QEAAXPEAPEAUDataValidation@xlslib_core@@_K@Z 000000018001dd60 f i sheetrec.obj
 0001:0001cd60       ?deallocate@?$allocator@PEAVxf_t@xlslib_core@@@std@@QEAAXPEAPEAVxf_t@xlslib_core@@_K@Z 000000018001dd60 f i globalrec.obj
 0001:0001cd60       ?deallocate@?$allocator@N@std@@QEAAXPEAN_K@Z 000000018001dd60 f i cbridge.obj
 0001:0001cd60       ?deallocate@?$allocator@PEAVrange_t@xlslib_core@@@std@@QEAAXPEAPEAVrange_t@xlslib_core@@_K@Z 000000018001dd60 f i sheetrec.obj
 0001:0001cd60       ?deallocate@?$allocator@PEAUstyle_t@xlslib_core@@@std@@QEAAXPEAPEAUstyle_t@xlslib_core@@_K@Z 000000018001dd60 f i globalrec.obj
 0001:0001cd60       ?deallocate@?$allocator@PEAVCUnit@xlslib_core@@@std@@QEAAXPEAPEAVCUnit@xlslib_core@@_K@Z 000000018001dd60 f i datast.obj
 0001:0001cd60       ?deallocate@?$allocator@PEAVformula_t@xlslib_core@@@std@@QEAAXPEAPEAVformula_t@xlslib_core@@_K@Z 000000018001dd60 f i sheetrec.obj
 0001:0001cd60       ?deallocate@?$allocator@PEAVformat_t@xlslib_core@@@std@@QEAAXPEAPEAVformat_t@xlslib_core@@_K@Z 000000018001dd60 f i globalrec.obj
 0001:0001cd60       ?deallocate@?$allocator@_K@std@@QEAAXPEA_K_K@Z 000000018001dd60 f i sheetrec.obj
 0001:0001cd60       ?deallocate@?$allocator@PEAVworksheet@xlslib_core@@@std@@QEAAXPEAPEAVworksheet@xlslib_core@@_K@Z 000000018001dd60 f i workbook.obj
 0001:0001cd60       ?deallocate@?$allocator@PEAVCOleProp@xlslib_core@@@std@@QEAAXPEAPEAVCOleProp@xlslib_core@@_K@Z 000000018001dd60 f i oledoc.obj
 0001:0001cd60       ?deallocate@?$allocator@PEAVrange@xlslib_core@@@std@@QEAAXPEAPEAVrange@xlslib_core@@_K@Z 000000018001dd60 f i sheetrec.obj
 0001:0001cde0       ?capacity@?$vector@V?$basic_string@DU?$char_traits@D@std@@V?$allocator@D@2@@std@@V?$allocator@V?$basic_string@DU?$char_traits@D@std@@V?$allocator@D@2@@std@@@2@@std@@QEBA_KXZ 000000018001dde0 f i cbridge.obj
 0001:0001cde0       ?capacity@?$vector@VCUnitStore@xlslib_core@@V?$allocator@VCUnitStore@xlslib_core@@@std@@@std@@QEBA_KXZ 000000018001dde0 f i datast.obj
 0001:0001cde0       ?capacity@?$vector@V?$basic_string@_WU?$char_traits@_W@std@@V?$allocator@_W@2@@std@@V?$allocator@V?$basic_string@_WU?$char_traits@_W@std@@V?$allocator@_W@2@@std@@@2@@std@@QEBA_KXZ 000000018001dde0 f i cbridge.obj
 0001:0001cdf0       ?_Copy@?$basic_string@_WU?$char_traits@_W@std@@V?$allocator@_W@2@@std@@QEAAX_K0@Z 000000018001ddf0 f i cbridge.obj
 0001:0001cf60       ?max_size@?$basic_string@_WU?$char_traits@_W@std@@V?$allocator@_W@2@@std@@QEBA_KXZ 000000018001df60 f i cbridge.obj
 0001:0001cf60       ?max_size@?$basic_string@_SU?$char_traits@_S@std@@V?$allocator@_S@2@@std@@QEBA_KXZ 000000018001df60 f i datast.obj
 0001:0001cf70       ?erase@?$basic_string@_WU?$char_traits@_W@std@@V?$allocator@_W@2@@std@@QEAAAEAV12@_K0@Z 000000018001df70 f i cbridge.obj
 0001:0001d000       ?erase@?$basic_string@_SU?$char_traits@_S@std@@V?$allocator@_S@2@@std@@QEAAAEAV12@_K@Z 000000018001e000 f i datast.obj
 0001:0001d000       ?erase@?$basic_string@_WU?$char_traits@_W@std@@V?$allocator@_W@2@@std@@QEAAAEAV12@_K@Z 000000018001e000 f i cbridge.obj
 0001:0001d050       ?allocate@?$allocator@PEAUstyle_t@xlslib_core@@@std@@QEAAPEAPEAUstyle_t@xlslib_core@@_K@Z 000000018001e050 f i globalrec.obj
 0001:0001d050       ?allocate@?$allocator@PEAUHyperLink@xlslib_core@@@std@@QEAAPEAPEAUHyperLink@xlslib_core@@_K@Z 000000018001e050 f i sheetrec.obj
 0001:0001d050       ?allocate@?$allocator@N@std@@QEAAPEAN_K@Z 000000018001e050 f i cbridge.obj
 0001:0001d050       ?allocate@?$allocator@PEAVboundsheet_t@xlslib_core@@@std@@QEAAPEAPEAVboundsheet_t@xlslib_core@@_K@Z 000000018001e050 f i globalrec.obj
 0001:0001d050       ?allocate@?$allocator@PEAVCOleProp@xlslib_core@@@std@@QEAAPEAPEAVCOleProp@xlslib_core@@_K@Z 000000018001e050 f i olefs.obj
 0001:0001d050       ?allocate@?$allocator@PEAVformat_t@xlslib_core@@@std@@QEAAPEAPEAVformat_t@xlslib_core@@_K@Z 000000018001e050 f i globalrec.obj
 0001:0001d050       ?allocate@?$allocator@PEAVworksheet@xlslib_core@@@std@@QEAAPEAPEAVworksheet@xlslib_core@@_K@Z 000000018001e050 f i workbook.obj
 0001:0001d050       ?allocate@?$allocator@PEAVCUnit@xlslib_core@@@std@@QEAAPEAPEAVCUnit@xlslib_core@@_K@Z 000000018001e050 f i datast.obj
 0001:0001d050       ?allocate@?$allocator@_K@std@@QEAAPEA_K_K@Z 000000018001e050 f i sheetrec.obj
 0001:0001d050       ?allocate@?$allocator@PEAVrange_t@xlslib_core@@@std@@QEAAPEAPEAVrange_t@xlslib_core@@_K@Z 000000018001e050 f i sheetrec.obj
 0001:0001d050       ?allocate@?$allocator@PEAUDataValidation@xlslib_core@@@std@@QEAAPEAPEAUDataValidation@xlslib_core@@_K@Z 000000018001e050 f i sheetrec.obj
 0001:0001d050       ?allocate@?$allocator@PEAVxf_t@xlslib_core@@@std@@QEAAPEAPEAVxf_t@xlslib_core@@_K@Z 000000018001e050 f i globalrec.obj
 0001:0001d050       ?allocate@?$allocator@PEAVrange@xlslib_core@@@std@@QEAAPEAPEAVrange@xlslib_core@@_K@Z 000000018001e050 f i sheetrec.obj
 0001:0001d050       ?allocate@?$allocator@PEBVlabel_t@xlslib_core@@@std@@QEAAPEAPEBVlabel_t@xlslib_core@@_K@Z 000000018001e050 f i globalrec.obj
 0001:0001d050       ?allocate@?$allocator@PEAVfont_t@xlslib_core@@@std@@QEAAPEAPEAVfont_t@xlslib_core@@_K@Z 000000018001e050 f i globalrec.obj
 0001:0001d050       ?allocate@?$allocator@PEAVformula_t@xlslib_core@@@std@@QEAAPEAPEAVformula_t@xlslib_core@@_K@Z 000000018001e050 f i sheetrec.obj
 0001:0001d0d0       ?max_size@?$allocator_traits@V?$allocator@_W@std@@@std@@SA_KAEBV?$allocator@_W@2@@Z 000000018001e0d0 f i cbridge.obj
 0001:0001d0d0       ?max_size@?$_Wrap_alloc@V?$allocator@_S@std@@@std@@QEBA_KU_Nil@2@@Z 000000018001e0d0 f i datast.obj
 0001:0001d0d0       ?max_size@?$allocator@_W@std@@QEBA_KXZ 000000018001e0d0 f i cbridge.obj
 0001:0001d0d0       ?max_size@?$allocator@_S@std@@QEBA_KXZ 000000018001e0d0 f i datast.obj
 0001:0001d0d0       ?max_size@?$allocator_traits@V?$allocator@_S@std@@@std@@SA_KAEBV?$allocator@_S@2@@Z 000000018001e0d0 f i datast.obj
 0001:0001d0d0       ?max_size@?$_Wrap_alloc@V?$allocator@_W@std@@@std@@QEBA_KU_Nil@2@@Z 000000018001e0d0 f i cbridge.obj
 0001:0001d0e0       ?allocate@?$_Wrap_alloc@V?$allocator@_W@std@@@std@@QEAAPEA_W_K@Z 000000018001e0e0 f i cbridge.obj
 0001:0001d0e0       ?allocate@?$allocator@_S@std@@QEAAPEA_S_K@Z 000000018001e0e0 f i datast.obj
 0001:0001d0e0       ?allocate@?$_Wrap_alloc@V?$allocator@_S@std@@@std@@QEAAPEA_S_K@Z 000000018001e0e0 f i datast.obj
 0001:0001d0e0       ?allocate@?$allocator@_W@std@@QEAAPEA_W_K@Z 000000018001e0e0 f i cbridge.obj
 0001:0001d150       ??$construct@V?$basic_string@_WU?$char_traits@_W@std@@V?$allocator@_W@2@@std@@AEAV12@@?$_Wrap_alloc@V?$allocator@V?$basic_string@_WU?$char_traits@_W@std@@V?$allocator@_W@2@@std@@@std@@@std@@QEAAXPEAV?$basic_string@_WU?$char_traits@_W@std@@V?$allocator@_W@2@@1@AEAV21@@Z 000000018001e150 f i cbridge.obj
 0001:0001d150       ??$construct@V?$basic_string@_WU?$char_traits@_W@std@@V?$allocator@_W@2@@std@@AEBV12@@?$allocator@V?$basic_string@_WU?$char_traits@_W@std@@V?$allocator@_W@2@@std@@@std@@QEAAXPEAV?$basic_string@_WU?$char_traits@_W@std@@V?$allocator@_W@2@@1@AEBV21@@Z 000000018001e150 f i cbridge.obj
 0001:0001d150       ??$construct@V?$basic_string@_WU?$char_traits@_W@std@@V?$allocator@_W@2@@std@@AEAV12@@?$allocator_traits@V?$allocator@V?$basic_string@_WU?$char_traits@_W@std@@V?$allocator@_W@2@@std@@@std@@@std@@SAXAEAV?$allocator@V?$basic_string@_WU?$char_traits@_W@std@@V?$allocator@_W@2@@std@@@1@PEAV?$basic_string@_WU?$char_traits@_W@std@@V?$allocator@_W@2@@1@AEAV31@@Z 000000018001e150 f i cbridge.obj
 0001:0001d150       ??$construct@V?$basic_string@_WU?$char_traits@_W@std@@V?$allocator@_W@2@@std@@AEBV12@@?$_Wrap_alloc@V?$allocator@V?$basic_string@_WU?$char_traits@_W@std@@V?$allocator@_W@2@@std@@@std@@@std@@QEAAXPEAV?$basic_string@_WU?$char_traits@_W@std@@V?$allocator@_W@2@@1@AEBV21@@Z 000000018001e150 f i cbridge.obj
 0001:0001d150       ??$construct@V?$basic_string@_WU?$char_traits@_W@std@@V?$allocator@_W@2@@std@@AEBV12@@?$allocator_traits@V?$allocator@V?$basic_string@_WU?$char_traits@_W@std@@V?$allocator@_W@2@@std@@@std@@@std@@SAXAEAV?$allocator@V?$basic_string@_WU?$char_traits@_W@std@@V?$allocator@_W@2@@std@@@1@PEAV?$basic_string@_WU?$char_traits@_W@std@@V?$allocator@_W@2@@1@AEBV31@@Z 000000018001e150 f i cbridge.obj
 0001:0001d150       ??$construct@V?$basic_string@_WU?$char_traits@_W@std@@V?$allocator@_W@2@@std@@AEAV12@@?$allocator@V?$basic_string@_WU?$char_traits@_W@std@@V?$allocator@_W@2@@std@@@std@@QEAAXPEAV?$basic_string@_WU?$char_traits@_W@std@@V?$allocator@_W@2@@1@AEAV21@@Z 000000018001e150 f i cbridge.obj
 0001:0001d1b0       ??$construct@V?$basic_string@DU?$char_traits@D@std@@V?$allocator@D@2@@std@@AEBV12@@?$allocator@V?$basic_string@DU?$char_traits@D@std@@V?$allocator@D@2@@std@@@std@@QEAAXPEAV?$basic_string@DU?$char_traits@D@std@@V?$allocator@D@2@@1@AEBV21@@Z 000000018001e1b0 f i cbridge.obj
 0001:0001d1b0       ??$construct@V?$basic_string@DU?$char_traits@D@std@@V?$allocator@D@2@@std@@AEBV12@@?$allocator_traits@V?$allocator@V?$basic_string@DU?$char_traits@D@std@@V?$allocator@D@2@@std@@@std@@@std@@SAXAEAV?$allocator@V?$basic_string@DU?$char_traits@D@std@@V?$allocator@D@2@@std@@@1@PEAV?$basic_string@DU?$char_traits@D@std@@V?$allocator@D@2@@1@AEBV31@@Z 000000018001e1b0 f i cbridge.obj
 0001:0001d1b0       ??$construct@V?$basic_string@DU?$char_traits@D@std@@V?$allocator@D@2@@std@@AEAV12@@?$allocator_traits@V?$allocator@V?$basic_string@DU?$char_traits@D@std@@V?$allocator@D@2@@std@@@std@@@std@@SAXAEAV?$allocator@V?$basic_string@DU?$char_traits@D@std@@V?$allocator@D@2@@std@@@1@PEAV?$basic_string@DU?$char_traits@D@std@@V?$allocator@D@2@@1@AEAV31@@Z 000000018001e1b0 f i cbridge.obj
 0001:0001d1b0       ??$construct@V?$basic_string@DU?$char_traits@D@std@@V?$allocator@D@2@@std@@AEAV12@@?$allocator@V?$basic_string@DU?$char_traits@D@std@@V?$allocator@D@2@@std@@@std@@QEAAXPEAV?$basic_string@DU?$char_traits@D@std@@V?$allocator@D@2@@1@AEAV21@@Z 000000018001e1b0 f i cbridge.obj
 0001:0001d1b0       ??$construct@V?$basic_string@DU?$char_traits@D@std@@V?$allocator@D@2@@std@@AEAV12@@?$_Wrap_alloc@V?$allocator@V?$basic_string@DU?$char_traits@D@std@@V?$allocator@D@2@@std@@@std@@@std@@QEAAXPEAV?$basic_string@DU?$char_traits@D@std@@V?$allocator@D@2@@1@AEAV21@@Z 000000018001e1b0 f i cbridge.obj
 0001:0001d1b0       ??$construct@V?$basic_string@DU?$char_traits@D@std@@V?$allocator@D@2@@std@@AEBV12@@?$_Wrap_alloc@V?$allocator@V?$basic_string@DU?$char_traits@D@std@@V?$allocator@D@2@@std@@@std@@@std@@QEAAXPEAV?$basic_string@DU?$char_traits@D@std@@V?$allocator@D@2@@1@AEBV21@@Z 000000018001e1b0 f i cbridge.obj
 0001:0001d210       ??$_Umove@PEAPEAVboundsheet_t@xlslib_core@@@?$vector@PEAVboundsheet_t@xlslib_core@@V?$allocator@PEAVboundsheet_t@xlslib_core@@@std@@@std@@IEAAPEAPEAVboundsheet_t@xlslib_core@@PEAPEAV23@00@Z 000000018001e210 f i globalrec.obj
 0001:0001d210       ??$_Umove@PEAPEAVfont_t@xlslib_core@@@?$vector@PEAVfont_t@xlslib_core@@V?$allocator@PEAVfont_t@xlslib_core@@@std@@@std@@IEAAPEAPEAVfont_t@xlslib_core@@PEAPEAV23@00@Z 000000018001e210 f i globalrec.obj
 0001:0001d210       ??$_Umove@PEAPEAVCUnit@xlslib_core@@@?$vector@PEAVCUnit@xlslib_core@@V?$allocator@PEAVCUnit@xlslib_core@@@std@@@std@@IEAAPEAPEAVCUnit@xlslib_core@@PEAPEAV23@00@Z 000000018001e210 f i datast.obj
 0001:0001d210       ??$_Umove@PEAPEAVrange@xlslib_core@@@?$vector@PEAVrange@xlslib_core@@V?$allocator@PEAVrange@xlslib_core@@@std@@@std@@IEAAPEAPEAVrange@xlslib_core@@PEAPEAV23@00@Z 000000018001e210 f i sheetrec.obj
 0001:0001d210       ??$_Umove@PEAPEAVxf_t@xlslib_core@@@?$vector@PEAVxf_t@xlslib_core@@V?$allocator@PEAVxf_t@xlslib_core@@@std@@@std@@IEAAPEAPEAVxf_t@xlslib_core@@PEAPEAV23@00@Z 000000018001e210 f i globalrec.obj
 0001:0001d210       ??$_Umove@PEAPEAUDataValidation@xlslib_core@@@?$vector@PEAUDataValidation@xlslib_core@@V?$allocator@PEAUDataValidation@xlslib_core@@@std@@@std@@IEAAPEAPEAUDataValidation@xlslib_core@@PEAPEAU23@00@Z 000000018001e210 f i sheetrec.obj
 0001:0001d210       ??$_Umove@PEAPEAUHyperLink@xlslib_core@@@?$vector@PEAUHyperLink@xlslib_core@@V?$allocator@PEAUHyperLink@xlslib_core@@@std@@@std@@IEAAPEAPEAUHyperLink@xlslib_core@@PEAPEAU23@00@Z 000000018001e210 f i sheetrec.obj
 0001:0001d210       ??$_Umove@PEAPEAVformat_t@xlslib_core@@@?$vector@PEAVformat_t@xlslib_core@@V?$allocator@PEAVformat_t@xlslib_core@@@std@@@std@@IEAAPEAPEAVformat_t@xlslib_core@@PEAPEAV23@00@Z 000000018001e210 f i globalrec.obj
 0001:0001d210       ??$_Umove@PEA_K@?$vector@_KV?$allocator@_K@std@@@std@@IEAAPEA_KPEA_K00@Z 000000018001e210 f i sheetrec.obj
 0001:0001d210       ??$_Umove@PEAPEAVformula_t@xlslib_core@@@?$vector@PEAVformula_t@xlslib_core@@V?$allocator@PEAVformula_t@xlslib_core@@@std@@@std@@IEAAPEAPEAVformula_t@xlslib_core@@PEAPEAV23@00@Z 000000018001e210 f i sheetrec.obj
 0001:0001d210       ??$_Umove@PEAPEAVCOleProp@xlslib_core@@@?$vector@PEAVCOleProp@xlslib_core@@V?$allocator@PEAVCOleProp@xlslib_core@@@std@@@std@@IEAAPEAPEAVCOleProp@xlslib_core@@PEAPEAV23@00@Z 000000018001e210 f i olefs.obj
 0001:0001d210       ??$_Umove@PEAPEBVlabel_t@xlslib_core@@@?$vector@PEBVlabel_t@xlslib_core@@V?$allocator@PEBVlabel_t@xlslib_core@@@std@@@std@@IEAAPEAPEBVlabel_t@xlslib_core@@PEAPEBV23@00@Z 000000018001e210 f i globalrec.obj
 0001:0001d210       ??$_Umove@PEAPEAVworksheet@xlslib_core@@@?$vector@PEAVworksheet@xlslib_core@@V?$allocator@PEAVworksheet@xlslib_core@@@std@@@std@@IEAAPEAPEAVworksheet@xlslib_core@@PEAPEAV23@00@Z 000000018001e210 f i workbook.obj
 0001:0001d210       ??$_Umove@PEAPEAUstyle_t@xlslib_core@@@?$vector@PEAUstyle_t@xlslib_core@@V?$allocator@PEAUstyle_t@xlslib_core@@@std@@@std@@IEAAPEAPEAUstyle_t@xlslib_core@@PEAPEAU23@00@Z 000000018001e210 f i globalrec.obj
 0001:0001d210       ??$_Umove@PEAPEAVrange_t@xlslib_core@@@?$vector@PEAVrange_t@xlslib_core@@V?$allocator@PEAVrange_t@xlslib_core@@@std@@@std@@IEAAPEAPEAVrange_t@xlslib_core@@PEAPEAV23@00@Z 000000018001e210 f i sheetrec.obj
 0001:0001d210       ??$_Umove@PEAN@?$vector@NV?$allocator@N@std@@@std@@IEAAPEANPEAN00@Z 000000018001e210 f i cbridge.obj
 0001:0001d240       ??$_Umove@PEAV?$basic_string@_WU?$char_traits@_W@std@@V?$allocator@_W@2@@std@@@?$vector@V?$basic_string@_WU?$char_traits@_W@std@@V?$allocator@_W@2@@std@@V?$allocator@V?$basic_string@_WU?$char_traits@_W@std@@V?$allocator@_W@2@@std@@@2@@std@@IEAAPEAV?$basic_string@_WU?$char_traits@_W@std@@V?$allocator@_W@2@@1@PEAV21@00@Z 000000018001e240 f i cbridge.obj
 0001:0001d260       ??$_Destroy_range@V?$allocator@V?$basic_string@_WU?$char_traits@_W@std@@V?$allocator@_W@2@@std@@@std@@PEAV?$basic_string@_WU?$char_traits@_W@std@@V?$allocator@_W@2@@2@@std@@YAXPEAV?$basic_string@_WU?$char_traits@_W@std@@V?$allocator@_W@2@@0@0AEAU?$_Wrap_alloc@V?$allocator@V?$basic_string@_WU?$char_traits@_W@std@@V?$allocator@_W@2@@std@@@std@@@0@@Z 000000018001e260 f i cbridge.obj
 0001:0001d270       ??$_Umove@PEAV?$basic_string@DU?$char_traits@D@std@@V?$allocator@D@2@@std@@@?$vector@V?$basic_string@DU?$char_traits@D@std@@V?$allocator@D@2@@std@@V?$allocator@V?$basic_string@DU?$char_traits@D@std@@V?$allocator@D@2@@std@@@2@@std@@IEAAPEAV?$basic_string@DU?$char_traits@D@std@@V?$allocator@D@2@@1@PEAV21@00@Z 000000018001e270 f i cbridge.obj
 0001:0001d290       ??$_Destroy_range@V?$allocator@V?$basic_string@DU?$char_traits@D@std@@V?$allocator@D@2@@std@@@std@@PEAV?$basic_string@DU?$char_traits@D@std@@V?$allocator@D@2@@2@@std@@YAXPEAV?$basic_string@DU?$char_traits@D@std@@V?$allocator@D@2@@0@0AEAU?$_Wrap_alloc@V?$allocator@V?$basic_string@DU?$char_traits@D@std@@V?$allocator@D@2@@std@@@std@@@0@@Z 000000018001e290 f i cbridge.obj
 0001:0001d2a0       ??0?$basic_string@_WU?$char_traits@_W@std@@V?$allocator@_W@2@@std@@QEAA@$$QEAV01@@Z 000000018001e2a0 f i cbridge.obj
 0001:0001d2d0       ??$_Uninitialized_move_al_unchecked1@PEAVworksheet@xlslib_core@@PEAV12@V?$allocator@PEAVworksheet@xlslib_core@@@std@@@std@@YAPEAPEAVworksheet@xlslib_core@@PEAPEAV12@00AEAU?$_Wrap_alloc@V?$allocator@PEAVworksheet@xlslib_core@@@std@@@0@U_Really_trivial_ptr_iterator_tag@0@U?$integral_constant@_N$00@0@@Z 000000018001e2d0 f i workbook.obj
 0001:0001d2d0       ??$_Copy_memmove@PEAPEAVformat_t@xlslib_core@@PEAPEAV12@@std@@YAPEAPEAVformat_t@xlslib_core@@PEAPEAV12@00@Z 000000018001e2d0 f i globalrec.obj
 0001:0001d2d0       ??$_Uninitialized_move@PEAPEAVboundsheet_t@xlslib_core@@PEAPEAV12@V?$allocator@PEAVboundsheet_t@xlslib_core@@@std@@@std@@YAPEAPEAVboundsheet_t@xlslib_core@@PEAPEAV12@00AEAU?$_Wrap_alloc@V?$allocator@PEAVboundsheet_t@xlslib_core@@@std@@@0@@Z 000000018001e2d0 f i globalrec.obj
 0001:0001d2d0       ??$_Uninitialized_move_al_unchecked1@PEAUDataValidation@xlslib_core@@PEAU12@V?$allocator@PEAUDataValidation@xlslib_core@@@std@@@std@@YAPEAPEAUDataValidation@xlslib_core@@PEAPEAU12@00AEAU?$_Wrap_alloc@V?$allocator@PEAUDataValidation@xlslib_core@@@std@@@0@U_Really_trivial_ptr_iterator_tag@0@U?$integral_constant@_N$00@0@@Z 000000018001e2d0 f i sheetrec.obj
 0001:0001d2d0       ??$_Uninitialized_move_al_unchecked@PEAPEAVboundsheet_t@xlslib_core@@PEAPEAV12@V?$allocator@PEAVboundsheet_t@xlslib_core@@@std@@@std@@YAPEAPEAVboundsheet_t@xlslib_core@@PEAPEAV12@00AEAU?$_Wrap_alloc@V?$allocator@PEAVboundsheet_t@xlslib_core@@@std@@@0@@Z 000000018001e2d0 f i globalrec.obj
 0001:0001d2d0       ??$_Uninitialized_move_al_unchecked1@PEAVxf_t@xlslib_core@@PEAV12@V?$allocator@PEAVxf_t@xlslib_core@@@std@@@std@@YAPEAPEAVxf_t@xlslib_core@@PEAPEAV12@00AEAU?$_Wrap_alloc@V?$allocator@PEAVxf_t@xlslib_core@@@std@@@0@U_Really_trivial_ptr_iterator_tag@0@U?$integral_constant@_N$00@0@@Z 000000018001e2d0 f i globalrec.obj
 0001:0001d2d0       ??$_Copy_memmove@PEAPEAVboundsheet_t@xlslib_core@@PEAPEAV12@@std@@YAPEAPEAVboundsheet_t@xlslib_core@@PEAPEAV12@00@Z 000000018001e2d0 f i globalrec.obj
 0001:0001d2d0       ??$_Uninitialized_move_al_unchecked@PEAPEAVCOleProp@xlslib_core@@PEAPEAV12@V?$allocator@PEAVCOleProp@xlslib_core@@@std@@@std@@YAPEAPEAVCOleProp@xlslib_core@@PEAPEAV12@00AEAU?$_Wrap_alloc@V?$allocator@PEAVCOleProp@xlslib_core@@@std@@@0@@Z 000000018001e2d0 f i olefs.obj
 0001:0001d2d0       ??$_Uninitialized_move_al_unchecked@PEAPEAVworksheet@xlslib_core@@PEAPEAV12@V?$allocator@PEAVworksheet@xlslib_core@@@std@@@std@@YAPEAPEAVworksheet@xlslib_core@@PEAPEAV12@00AEAU?$_Wrap_alloc@V?$allocator@PEAVworksheet@xlslib_core@@@std@@@0@@Z 000000018001e2d0 f i workbook.obj
 0001:0001d2d0       ??$_Uninitialized_move@PEAPEAUDataValidation@xlslib_core@@PEAPEAU12@V?$allocator@PEAUDataValidation@xlslib_core@@@std@@@std@@YAPEAPEAUDataValidation@xlslib_core@@PEAPEAU12@00AEAU?$_Wrap_alloc@V?$allocator@PEAUDataValidation@xlslib_core@@@std@@@0@@Z 000000018001e2d0 f i sheetrec.obj
 0001:0001d2d0       ??$_Uninitialized_move_al_unchecked1@PEAVfont_t@xlslib_core@@PEAV12@V?$allocator@PEAVfont_t@xlslib_core@@@std@@@std@@YAPEAPEAVfont_t@xlslib_core@@PEAPEAV12@00AEAU?$_Wrap_alloc@V?$allocator@PEAVfont_t@xlslib_core@@@std@@@0@U_Really_trivial_ptr_iterator_tag@0@U?$integral_constant@_N$00@0@@Z 000000018001e2d0 f i globalrec.obj
 0001:0001d2d0       ??$_Uninitialized_move_al_unchecked1@PEAUHyperLink@xlslib_core@@PEAU12@V?$allocator@PEAUHyperLink@xlslib_core@@@std@@@std@@YAPEAPEAUHyperLink@xlslib_core@@PEAPEAU12@00AEAU?$_Wrap_alloc@V?$allocator@PEAUHyperLink@xlslib_core@@@std@@@0@U_Really_trivial_ptr_iterator_tag@0@U?$integral_constant@_N$00@0@@Z 000000018001e2d0 f i sheetrec.obj
 0001:0001d2d0       ??$_Uninitialized_move_al_unchecked@PEAPEAVformat_t@xlslib_core@@PEAPEAV12@V?$allocator@PEAVformat_t@xlslib_core@@@std@@@std@@YAPEAPEAVformat_t@xlslib_core@@PEAPEAV12@00AEAU?$_Wrap_alloc@V?$allocator@PEAVformat_t@xlslib_core@@@std@@@0@@Z 000000018001e2d0 f i globalrec.obj
 0001:0001d2d0       ??$_Uninitialized_move@PEAPEBVlabel_t@xlslib_core@@PEAPEBV12@V?$allocator@PEBVlabel_t@xlslib_core@@@std@@@std@@YAPEAPEBVlabel_t@xlslib_core@@PEAPEBV12@00AEAU?$_Wrap_alloc@V?$allocator@PEBVlabel_t@xlslib_core@@@std@@@0@@Z 000000018001e2d0 f i globalrec.obj
 0001:0001d2d0       ??$_Copy_memmove@PEAPEAVxf_t@xlslib_core@@PEAPEAV12@@std@@YAPEAPEAVxf_t@xlslib_core@@PEAPEAV12@00@Z 000000018001e2d0 f i globalrec.obj
 0001:0001d2d0       ??$_Uninitialized_move_al_unchecked@PEAPEAUHyperLink@xlslib_core@@PEAPEAU12@V?$allocator@PEAUHyperLink@xlslib_core@@@std@@@std@@YAPEAPEAUHyperLink@xlslib_core@@PEAPEAU12@00AEAU?$_Wrap_alloc@V?$allocator@PEAUHyperLink@xlslib_core@@@std@@@0@@Z 000000018001e2d0 f i sheetrec.obj
 0001:0001d2d0       ??$_Uninitialized_move@PEA_KPEA_KV?$allocator@_K@std@@@std@@YAPEA_KPEA_K00AEAU?$_Wrap_alloc@V?$allocator@_K@std@@@0@@Z 000000018001e2d0 f i sheetrec.obj
 0001:0001d2d0       ??$_Uninitialized_move@PEAPEAVrange@xlslib_core@@PEAPEAV12@V?$allocator@PEAVrange@xlslib_core@@@std@@@std@@YAPEAPEAVrange@xlslib_core@@PEAPEAV12@00AEAU?$_Wrap_alloc@V?$allocator@PEAVrange@xlslib_core@@@std@@@0@@Z 000000018001e2d0 f i sheetrec.obj
 0001:0001d2d0       ??$_Uninitialized_move_al_unchecked1@_K_KV?$allocator@_K@std@@@std@@YAPEA_KPEA_K00AEAU?$_Wrap_alloc@V?$allocator@_K@std@@@0@U_Really_trivial_ptr_iterator_tag@0@U?$integral_constant@_N$00@0@@Z 000000018001e2d0 f i sheetrec.obj
 0001:0001d2d0       ??$_Uninitialized_move_al_unchecked1@PEAVCUnit@xlslib_core@@PEAV12@V?$allocator@PEAVCUnit@xlslib_core@@@std@@@std@@YAPEAPEAVCUnit@xlslib_core@@PEAPEAV12@00AEAU?$_Wrap_alloc@V?$allocator@PEAVCUnit@xlslib_core@@@std@@@0@U_Really_trivial_ptr_iterator_tag@0@U?$integral_constant@_N$00@0@@Z 000000018001e2d0 f i datast.obj
 0001:0001d2d0       ??$_Copy_memmove@PEANPEAN@std@@YAPEANPEAN00@Z 000000018001e2d0 f i cbridge.obj
 0001:0001d2d0       ??$_Move_unchecked@PEAPEBVlabel_t@xlslib_core@@PEAPEBV12@@std@@YAPEAPEBVlabel_t@xlslib_core@@PEAPEBV12@00@Z 000000018001e2d0 f i globalrec.obj
 0001:0001d2d0       ??$_Uninitialized_move_al_unchecked@PEAPEAUstyle_t@xlslib_core@@PEAPEAU12@V?$allocator@PEAUstyle_t@xlslib_core@@@std@@@std@@YAPEAPEAUstyle_t@xlslib_core@@PEAPEAU12@00AEAU?$_Wrap_alloc@V?$allocator@PEAUstyle_t@xlslib_core@@@std@@@0@@Z 000000018001e2d0 f i globalrec.obj
 0001:0001d2d0       ??$_Uninitialized_move_al_unchecked@PEAPEAUDataValidation@xlslib_core@@PEAPEAU12@V?$allocator@PEAUDataValidation@xlslib_core@@@std@@@std@@YAPEAPEAUDataValidation@xlslib_core@@PEAPEAU12@00AEAU?$_Wrap_alloc@V?$allocator@PEAUDataValidation@xlslib_core@@@std@@@0@@Z 000000018001e2d0 f i sheetrec.obj
 0001:0001d2d0       ??$_Copy_memmove@PEAPEAVCOleProp@xlslib_core@@PEAPEAV12@@std@@YAPEAPEAVCOleProp@xlslib_core@@PEAPEAV12@00@Z 000000018001e2d0 f i olefs.obj
 0001:0001d2d0       ??$_Uninitialized_move_al_unchecked@PEAPEAVCUnit@xlslib_core@@PEAPEAV12@V?$allocator@PEAVCUnit@xlslib_core@@@std@@@std@@YAPEAPEAVCUnit@xlslib_core@@PEAPEAV12@00AEAU?$_Wrap_alloc@V?$allocator@PEAVCUnit@xlslib_core@@@std@@@0@@Z 000000018001e2d0 f i datast.obj
 0001:0001d2d0       ??$_Copy_memmove@PEAPEAUHyperLink@xlslib_core@@PEAPEAU12@@std@@YAPEAPEAUHyperLink@xlslib_core@@PEAPEAU12@00@Z 000000018001e2d0 f i sheetrec.obj
 0001:0001d2d0       ??$_Copy_memmove@PEAPEAVfont_t@xlslib_core@@PEAPEAV12@@std@@YAPEAPEAVfont_t@xlslib_core@@PEAPEAV12@00@Z 000000018001e2d0 f i globalrec.obj
 0001:0001d2d0       ??$_Copy_memmove@PEAPEAVformula_t@xlslib_core@@PEAPEAV12@@std@@YAPEAPEAVformula_t@xlslib_core@@PEAPEAV12@00@Z 000000018001e2d0 f i sheetrec.obj
 0001:0001d2d0       ??$_Copy_memmove@PEAPEAVCUnit@xlslib_core@@PEAPEAV12@@std@@YAPEAPEAVCUnit@xlslib_core@@PEAPEAV12@00@Z 000000018001e2d0 f i datast.obj
 0001:0001d2d0       ??$_Uninitialized_move@PEAPEAVworksheet@xlslib_core@@PEAPEAV12@V?$allocator@PEAVworksheet@xlslib_core@@@std@@@std@@YAPEAPEAVworksheet@xlslib_core@@PEAPEAV12@00AEAU?$_Wrap_alloc@V?$allocator@PEAVworksheet@xlslib_core@@@std@@@0@@Z 000000018001e2d0 f i workbook.obj
 0001:0001d2d0       ??$_Uninitialized_move@PEANPEANV?$allocator@N@std@@@std@@YAPEANPEAN00AEAU?$_Wrap_alloc@V?$allocator@N@std@@@0@@Z 000000018001e2d0 f i cbridge.obj
 0001:0001d2d0       ??$_Copy_memmove@PEA_KPEA_K@std@@YAPEA_KPEA_K00@Z 000000018001e2d0 f i sheetrec.obj
 0001:0001d2d0       ??$_Uninitialized_move_al_unchecked1@PEAVboundsheet_t@xlslib_core@@PEAV12@V?$allocator@PEAVboundsheet_t@xlslib_core@@@std@@@std@@YAPEAPEAVboundsheet_t@xlslib_core@@PEAPEAV12@00AEAU?$_Wrap_alloc@V?$allocator@PEAVboundsheet_t@xlslib_core@@@std@@@0@U_Really_trivial_ptr_iterator_tag@0@U?$integral_constant@_N$00@0@@Z 000000018001e2d0 f i globalrec.obj
 0001:0001d2d0       ??$_Uninitialized_move_al_unchecked1@NNV?$allocator@N@std@@@std@@YAPEANPEAN00AEAU?$_Wrap_alloc@V?$allocator@N@std@@@0@U_Really_trivial_ptr_iterator_tag@0@U?$integral_constant@_N$00@0@@Z 000000018001e2d0 f i cbridge.obj
 0001:0001d2d0       ??$_Copy_memmove@PEAPEAVrange_t@xlslib_core@@PEAPEAV12@@std@@YAPEAPEAVrange_t@xlslib_core@@PEAPEAV12@00@Z 000000018001e2d0 f i sheetrec.obj
 0001:0001d2d0       ??$_Copy_memmove@PEAPEAUstyle_t@xlslib_core@@PEAPEAU12@@std@@YAPEAPEAUstyle_t@xlslib_core@@PEAPEAU12@00@Z 000000018001e2d0 f i globalrec.obj
 0001:0001d2d0       ??$_Copy_memmove@PEAPEAUDataValidation@xlslib_core@@PEAPEAU12@@std@@YAPEAPEAUDataValidation@xlslib_core@@PEAPEAU12@00@Z 000000018001e2d0 f i sheetrec.obj
 0001:0001d2d0       ??$_Uninitialized_move_al_unchecked1@PEAVrange@xlslib_core@@PEAV12@V?$allocator@PEAVrange@xlslib_core@@@std@@@std@@YAPEAPEAVrange@xlslib_core@@PEAPEAV12@00AEAU?$_Wrap_alloc@V?$allocator@PEAVrange@xlslib_core@@@std@@@0@U_Really_trivial_ptr_iterator_tag@0@U?$integral_constant@_N$00@0@@Z 000000018001e2d0 f i sheetrec.obj
 0001:0001d2d0       ??$_Uninitialized_move_al_unchecked@PEA_KPEA_KV?$allocator@_K@std@@@std@@YAPEA_KPEA_K00AEAU?$_Wrap_alloc@V?$allocator@_K@std@@@0@@Z 000000018001e2d0 f i sheetrec.obj
 0001:0001d2d0       ??$_Copy_memmove@PEAPEAVworksheet@xlslib_core@@PEAPEAV12@@std@@YAPEAPEAVworksheet@xlslib_core@@PEAPEAV12@00@Z 000000018001e2d0 f i workbook.obj
 0001:0001d2d0       ??$_Uninitialized_move@PEAPEAVformula_t@xlslib_core@@PEAPEAV12@V?$allocator@PEAVformula_t@xlslib_core@@@std@@@std@@YAPEAPEAVformula_t@xlslib_core@@PEAPEAV12@00AEAU?$_Wrap_alloc@V?$allocator@PEAVformula_t@xlslib_core@@@std@@@0@@Z 000000018001e2d0 f i sheetrec.obj
 0001:0001d2d0       ??$_Uninitialized_move@PEAPEAVfont_t@xlslib_core@@PEAPEAV12@V?$allocator@PEAVfont_t@xlslib_core@@@std@@@std@@YAPEAPEAVfont_t@xlslib_core@@PEAPEAV12@00AEAU?$_Wrap_alloc@V?$allocator@PEAVfont_t@xlslib_core@@@std@@@0@@Z 000000018001e2d0 f i globalrec.obj
 0001:0001d2d0       ??$_Uninitialized_move_al_unchecked@PEAPEAVrange@xlslib_core@@PEAPEAV12@V?$allocator@PEAVrange@xlslib_core@@@std@@@std@@YAPEAPEAVrange@xlslib_core@@PEAPEAV12@00AEAU?$_Wrap_alloc@V?$allocator@PEAVrange@xlslib_core@@@std@@@0@@Z 000000018001e2d0 f i sheetrec.obj
 0001:0001d2d0       ??$_Uninitialized_move@PEAPEAVCUnit@xlslib_core@@PEAPEAV12@V?$allocator@PEAVCUnit@xlslib_core@@@std@@@std@@YAPEAPEAVCUnit@xlslib_core@@PEAPEAV12@00AEAU?$_Wrap_alloc@V?$allocator@PEAVCUnit@xlslib_core@@@std@@@0@@Z 000000018001e2d0 f i datast.obj
 0001:0001d2d0       ??$_Copy_memmove@PEAPEBVlabel_t@xlslib_core@@PEAPEBV12@@std@@YAPEAPEBVlabel_t@xlslib_core@@PEAPEBV12@00@Z 000000018001e2d0 f i globalrec.obj
 0001:0001d2d0       ??$_Uninitialized_move@PEAPEAVCOleProp@xlslib_core@@PEAPEAV12@V?$allocator@PEAVCOleProp@xlslib_core@@@std@@@std@@YAPEAPEAVCOleProp@xlslib_core@@PEAPEAV12@00AEAU?$_Wrap_alloc@V?$allocator@PEAVCOleProp@xlslib_core@@@std@@@0@@Z 000000018001e2d0 f i olefs.obj
 0001:0001d2d0       ??$_Uninitialized_move_al_unchecked@PEAPEAVrange_t@xlslib_core@@PEAPEAV12@V?$allocator@PEAVrange_t@xlslib_core@@@std@@@std@@YAPEAPEAVrange_t@xlslib_core@@PEAPEAV12@00AEAU?$_Wrap_alloc@V?$allocator@PEAVrange_t@xlslib_core@@@std@@@0@@Z 000000018001e2d0 f i sheetrec.obj
 0001:0001d2d0       ??$_Uninitialized_move_al_unchecked1@PEAVformat_t@xlslib_core@@PEAV12@V?$allocator@PEAVformat_t@xlslib_core@@@std@@@std@@YAPEAPEAVformat_t@xlslib_core@@PEAPEAV12@00AEAU?$_Wrap_alloc@V?$allocator@PEAVformat_t@xlslib_core@@@std@@@0@U_Really_trivial_ptr_iterator_tag@0@U?$integral_constant@_N$00@0@@Z 000000018001e2d0 f i globalrec.obj
 0001:0001d2d0       ??$_Uninitialized_move_al_unchecked@PEAPEAVxf_t@xlslib_core@@PEAPEAV12@V?$allocator@PEAVxf_t@xlslib_core@@@std@@@std@@YAPEAPEAVxf_t@xlslib_core@@PEAPEAV12@00AEAU?$_Wrap_alloc@V?$allocator@PEAVxf_t@xlslib_core@@@std@@@0@@Z 000000018001e2d0 f i globalrec.obj
 0001:0001d2d0       ??$_Uninitialized_move_al_unchecked@PEAPEAVfont_t@xlslib_core@@PEAPEAV12@V?$allocator@PEAVfont_t@xlslib_core@@@std@@@std@@YAPEAPEAVfont_t@xlslib_core@@PEAPEAV12@00AEAU?$_Wrap_alloc@V?$allocator@PEAVfont_t@xlslib_core@@@std@@@0@@Z 000000018001e2d0 f i globalrec.obj
 0001:0001d2d0       ??$_Uninitialized_move_al_unchecked1@PEAVCOleProp@xlslib_core@@PEAV12@V?$allocator@PEAVCOleProp@xlslib_core@@@std@@@std@@YAPEAPEAVCOleProp@xlslib_core@@PEAPEAV12@00AEAU?$_Wrap_alloc@V?$allocator@PEAVCOleProp@xlslib_core@@@std@@@0@U_Really_trivial_ptr_iterator_tag@0@U?$integral_constant@_N$00@0@@Z 000000018001e2d0 f i olefs.obj
 0001:0001d2d0       ??$_Uninitialized_move_al_unchecked1@PEBVlabel_t@xlslib_core@@PEBV12@V?$allocator@PEBVlabel_t@xlslib_core@@@std@@@std@@YAPEAPEBVlabel_t@xlslib_core@@PEAPEBV12@00AEAU?$_Wrap_alloc@V?$allocator@PEBVlabel_t@xlslib_core@@@std@@@0@U_Really_trivial_ptr_iterator_tag@0@U?$integral_constant@_N$00@0@@Z 000000018001e2d0 f i globalrec.obj
 0001:0001d2d0       ??$_Uninitialized_move_al_unchecked1@PEAUstyle_t@xlslib_core@@PEAU12@V?$allocator@PEAUstyle_t@xlslib_core@@@std@@@std@@YAPEAPEAUstyle_t@xlslib_core@@PEAPEAU12@00AEAU?$_Wrap_alloc@V?$allocator@PEAUstyle_t@xlslib_core@@@std@@@0@U_Really_trivial_ptr_iterator_tag@0@U?$integral_constant@_N$00@0@@Z 000000018001e2d0 f i globalrec.obj
 0001:0001d2d0       ??$_Uninitialized_move@PEAPEAUstyle_t@xlslib_core@@PEAPEAU12@V?$allocator@PEAUstyle_t@xlslib_core@@@std@@@std@@YAPEAPEAUstyle_t@xlslib_core@@PEAPEAU12@00AEAU?$_Wrap_alloc@V?$allocator@PEAUstyle_t@xlslib_core@@@std@@@0@@Z 000000018001e2d0 f i globalrec.obj
 0001:0001d2d0       ??$_Uninitialized_move_al_unchecked1@PEAVformula_t@xlslib_core@@PEAV12@V?$allocator@PEAVformula_t@xlslib_core@@@std@@@std@@YAPEAPEAVformula_t@xlslib_core@@PEAPEAV12@00AEAU?$_Wrap_alloc@V?$allocator@PEAVformula_t@xlslib_core@@@std@@@0@U_Really_trivial_ptr_iterator_tag@0@U?$integral_constant@_N$00@0@@Z 000000018001e2d0 f i sheetrec.obj
 0001:0001d2d0       ??$_Uninitialized_move@PEAPEAVformat_t@xlslib_core@@PEAPEAV12@V?$allocator@PEAVformat_t@xlslib_core@@@std@@@std@@YAPEAPEAVformat_t@xlslib_core@@PEAPEAV12@00AEAU?$_Wrap_alloc@V?$allocator@PEAVformat_t@xlslib_core@@@std@@@0@@Z 000000018001e2d0 f i globalrec.obj
 0001:0001d2d0       ??$_Uninitialized_move@PEAPEAVrange_t@xlslib_core@@PEAPEAV12@V?$allocator@PEAVrange_t@xlslib_core@@@std@@@std@@YAPEAPEAVrange_t@xlslib_core@@PEAPEAV12@00AEAU?$_Wrap_alloc@V?$allocator@PEAVrange_t@xlslib_core@@@std@@@0@@Z 000000018001e2d0 f i sheetrec.obj
 0001:0001d2d0       ??$_Uninitialized_move_al_unchecked1@PEAVrange_t@xlslib_core@@PEAV12@V?$allocator@PEAVrange_t@xlslib_core@@@std@@@std@@YAPEAPEAVrange_t@xlslib_core@@PEAPEAV12@00AEAU?$_Wrap_alloc@V?$allocator@PEAVrange_t@xlslib_core@@@std@@@0@U_Really_trivial_ptr_iterator_tag@0@U?$integral_constant@_N$00@0@@Z 000000018001e2d0 f i sheetrec.obj
 0001:0001d2d0       ??$_Uninitialized_move_al_unchecked@PEAPEAVformula_t@xlslib_core@@PEAPEAV12@V?$allocator@PEAVformula_t@xlslib_core@@@std@@@std@@YAPEAPEAVformula_t@xlslib_core@@PEAPEAV12@00AEAU?$_Wrap_alloc@V?$allocator@PEAVformula_t@xlslib_core@@@std@@@0@@Z 000000018001e2d0 f i sheetrec.obj
 0001:0001d2d0       ??$_Copy_memmove@PEAPEAVrange@xlslib_core@@PEAPEAV12@@std@@YAPEAPEAVrange@xlslib_core@@PEAPEAV12@00@Z 000000018001e2d0 f i sheetrec.obj
 0001:0001d2d0       ??$_Uninitialized_move_al_unchecked@PEAPEBVlabel_t@xlslib_core@@PEAPEBV12@V?$allocator@PEBVlabel_t@xlslib_core@@@std@@@std@@YAPEAPEBVlabel_t@xlslib_core@@PEAPEBV12@00AEAU?$_Wrap_alloc@V?$allocator@PEBVlabel_t@xlslib_core@@@std@@@0@@Z 000000018001e2d0 f i globalrec.obj
 0001:0001d2d0       ??$_Move_unchecked1@PEAPEBVlabel_t@xlslib_core@@PEAPEBV12@@std@@YAPEAPEBVlabel_t@xlslib_core@@PEAPEBV12@00U_Trivially_copyable_ptr_iterator_tag@0@@Z 000000018001e2d0 f i globalrec.obj
 0001:0001d2d0       ??$_Uninitialized_move@PEAPEAUHyperLink@xlslib_core@@PEAPEAU12@V?$allocator@PEAUHyperLink@xlslib_core@@@std@@@std@@YAPEAPEAUHyperLink@xlslib_core@@PEAPEAU12@00AEAU?$_Wrap_alloc@V?$allocator@PEAUHyperLink@xlslib_core@@@std@@@0@@Z 000000018001e2d0 f i sheetrec.obj
 0001:0001d2d0       ??$_Uninitialized_move_al_unchecked@PEANPEANV?$allocator@N@std@@@std@@YAPEANPEAN00AEAU?$_Wrap_alloc@V?$allocator@N@std@@@0@@Z 000000018001e2d0 f i cbridge.obj
 0001:0001d2d0       ??$_Uninitialized_move@PEAPEAVxf_t@xlslib_core@@PEAPEAV12@V?$allocator@PEAVxf_t@xlslib_core@@@std@@@std@@YAPEAPEAVxf_t@xlslib_core@@PEAPEAV12@00AEAU?$_Wrap_alloc@V?$allocator@PEAVxf_t@xlslib_core@@@std@@@0@@Z 000000018001e2d0 f i globalrec.obj
 0001:0001d310       ??$_Uninitialized_move_al_unchecked@PEAV?$basic_string@_WU?$char_traits@_W@std@@V?$allocator@_W@2@@std@@PEAV12@V?$allocator@V?$basic_string@_WU?$char_traits@_W@std@@V?$allocator@_W@2@@std@@@2@@std@@YAPEAV?$basic_string@_WU?$char_traits@_W@std@@V?$allocator@_W@2@@0@PEAV10@00AEAU?$_Wrap_alloc@V?$allocator@V?$basic_string@_WU?$char_traits@_W@std@@V?$allocator@_W@2@@std@@@std@@@0@@Z 000000018001e310 f i cbridge.obj
 0001:0001d310       ??$_Uninitialized_move@PEAV?$basic_string@_WU?$char_traits@_W@std@@V?$allocator@_W@2@@std@@PEAV12@V?$allocator@V?$basic_string@_WU?$char_traits@_W@std@@V?$allocator@_W@2@@std@@@2@@std@@YAPEAV?$basic_string@_WU?$char_traits@_W@std@@V?$allocator@_W@2@@0@PEAV10@00AEAU?$_Wrap_alloc@V?$allocator@V?$basic_string@_WU?$char_traits@_W@std@@V?$allocator@_W@2@@std@@@std@@@0@@Z 000000018001e310 f i cbridge.obj
 0001:0001d320       ??$_Destroy_range1@V?$allocator@V?$basic_string@_WU?$char_traits@_W@std@@V?$allocator@_W@2@@std@@@std@@PEAV?$basic_string@_WU?$char_traits@_W@std@@V?$allocator@_W@2@@2@@std@@YAXPEAV?$basic_string@_WU?$char_traits@_W@std@@V?$allocator@_W@2@@0@0AEAU?$_Wrap_alloc@V?$allocator@V?$basic_string@_WU?$char_traits@_W@std@@V?$allocator@_W@2@@std@@@std@@@0@U?$integral_constant@_N$0A@@0@@Z 000000018001e320 f i cbridge.obj
 0001:0001d400       ??$_Uninitialized_move_al_unchecked@PEAV?$basic_string@DU?$char_traits@D@std@@V?$allocator@D@2@@std@@PEAV12@V?$allocator@V?$basic_string@DU?$char_traits@D@std@@V?$allocator@D@2@@std@@@2@@std@@YAPEAV?$basic_string@DU?$char_traits@D@std@@V?$allocator@D@2@@0@PEAV10@00AEAU?$_Wrap_alloc@V?$allocator@V?$basic_string@DU?$char_traits@D@std@@V?$allocator@D@2@@std@@@std@@@0@@Z 000000018001e400 f i cbridge.obj
 0001:0001d400       ??$_Uninitialized_move@PEAV?$basic_string@DU?$char_traits@D@std@@V?$allocator@D@2@@std@@PEAV12@V?$allocator@V?$basic_string@DU?$char_traits@D@std@@V?$allocator@D@2@@std@@@2@@std@@YAPEAV?$basic_string@DU?$char_traits@D@std@@V?$allocator@D@2@@0@PEAV10@00AEAU?$_Wrap_alloc@V?$allocator@V?$basic_string@DU?$char_traits@D@std@@V?$allocator@D@2@@std@@@std@@@0@@Z 000000018001e400 f i cbridge.obj
 0001:0001d410       ??$_Destroy_range1@V?$allocator@V?$basic_string@DU?$char_traits@D@std@@V?$allocator@D@2@@std@@@std@@PEAV?$basic_string@DU?$char_traits@D@std@@V?$allocator@D@2@@2@@std@@YAXPEAV?$basic_string@DU?$char_traits@D@std@@V?$allocator@D@2@@0@0AEAU?$_Wrap_alloc@V?$allocator@V?$basic_string@DU?$char_traits@D@std@@V?$allocator@D@2@@std@@@std@@@0@U?$integral_constant@_N$0A@@0@@Z 000000018001e410 f i cbridge.obj
 0001:0001d4d0       ??0?$_List_const_iterator@V?$_List_val@U?$_List_simple_types@PEAV?$basic_string@DU?$char_traits@D@std@@V?$allocator@D@2@@std@@@std@@@std@@@std@@QEAA@PEAU?$_List_node@PEAV?$basic_string@DU?$char_traits@D@std@@V?$allocator@D@2@@std@@PEAX@1@PEBV?$_List_val@U?$_List_simple_types@PEAV?$basic_string@DU?$char_traits@D@std@@V?$allocator@D@2@@std@@@std@@@1@@Z 000000018001e4d0 f i olefs.obj
 0001:0001d4d0       ??0?$_Vector_const_iterator@V?$_Vector_val@U?$_Simple_types@PEAVCOleProp@xlslib_core@@@std@@@std@@@std@@QEAA@PEAPEAVCOleProp@xlslib_core@@PEBU_Container_base0@1@@Z 000000018001e4d0 f i oledoc.obj
 0001:0001d4d0       ??0?$_Vector_const_iterator@V?$_Vector_val@U?$_Simple_types@PEAUstyle_t@xlslib_core@@@std@@@std@@@std@@QEAA@PEAPEAUstyle_t@xlslib_core@@PEBU_Container_base0@1@@Z 000000018001e4d0 f i globalrec.obj
 0001:0001d4d0       ??0?$_Vector_iterator@V?$_Vector_val@U?$_Simple_types@PEAVformula_t@xlslib_core@@@std@@@std@@@std@@QEAA@PEAPEAVformula_t@xlslib_core@@PEBU_Container_base0@1@@Z 000000018001e4d0 f i sheetrec.obj
 0001:0001d4d0       ??0?$_String_iterator@V?$_String_val@U?$_Simple_types@_S@std@@@std@@@std@@QEAA@PEA_SPEBU_Container_base0@1@@Z 000000018001e4d0 f i sheetrec.obj
 0001:0001d4d0       ??0?$_Vector_iterator@V?$_Vector_val@U?$_Simple_types@PEAVformat_t@xlslib_core@@@std@@@std@@@std@@QEAA@PEAPEAVformat_t@xlslib_core@@PEBU_Container_base0@1@@Z 000000018001e4d0 f i globalrec.obj
 0001:0001d4d0       ??0?$_Vector_iterator@V?$_Vector_val@U?$_Simple_types@PEAUDataValidation@xlslib_core@@@std@@@std@@@std@@QEAA@PEAPEAUDataValidation@xlslib_core@@PEBU_Container_base0@1@@Z 000000018001e4d0 f i sheetrec.obj
 0001:0001d4d0       ??0?$_Tree_unchecked_const_iterator@V?$_Tree_val@U?$_Tree_simple_types@PEAVcell_t@xlslib_core@@@std@@@std@@U_Iterator_base0@2@@std@@QEAA@PEAU?$_Tree_node@PEAVcell_t@xlslib_core@@PEAX@1@PEBV?$_Tree_val@U?$_Tree_simple_types@PEAVcell_t@xlslib_core@@@std@@@1@@Z 000000018001e4d0 f i sheetrec.obj
 0001:0001d4d0       ??0?$_Tree_unchecked_const_iterator@V?$_Tree_val@U?$_Tree_simple_types@U?$pair@PEAVxf_t@xlslib_core@@UborderedXft@2@@std@@@std@@@std@@U_Iterator_base0@2@@std@@QEAA@PEAU?$_Tree_node@U?$pair@PEAVxf_t@xlslib_core@@UborderedXft@2@@std@@PEAX@1@PEBV?$_Tree_val@U?$_Tree_simple_types@U?$pair@PEAVxf_t@xlslib_core@@UborderedXft@2@@std@@@std@@@1@@Z 000000018001e4d0 f i range.obj
 0001:0001d4d0       ??0?$_Vector_const_iterator@V?$_Vector_val@U?$_Simple_types@PEAVfont_t@xlslib_core@@@std@@@std@@@std@@QEAA@PEAPEAVfont_t@xlslib_core@@PEBU_Container_base0@1@@Z 000000018001e4d0 f i globalrec.obj
 0001:0001d4d0       ??$_Rechecked@PEAPEAUstyle_t@xlslib_core@@PEAPEAU12@@std@@YAAEAPEAPEAUstyle_t@xlslib_core@@AEAPEAPEAU12@PEAPEAU12@@Z 000000018001e4d0 f i globalrec.obj
 0001:0001d4d0       ??$_Rechecked@V?$_Vector_val@U?$_Simple_types@VCUnitStore@xlslib_core@@@std@@@std@@@std@@YAAEAV?$_Vector_iterator@V?$_Vector_val@U?$_Simple_types@VCUnitStore@xlslib_core@@@std@@@std@@@0@AEAV10@PEAVCUnitStore@xlslib_core@@@Z 000000018001e4d0 f i datast.obj
 0001:0001d4d0       ??0?$_Vector_iterator@V?$_Vector_val@U?$_Simple_types@PEBVlabel_t@xlslib_core@@@std@@@std@@@std@@QEAA@PEAPEBVlabel_t@xlslib_core@@PEBU_Container_base0@1@@Z 000000018001e4d0 f i globalrec.obj
 0001:0001d4d0       ??0?$_Vector_iterator@V?$_Vector_val@U?$_Simple_types@PEAVfont_t@xlslib_core@@@std@@@std@@@std@@QEAA@PEAPEAVfont_t@xlslib_core@@PEBU_Container_base0@1@@Z 000000018001e4d0 f i globalrec.obj
 0001:0001d4d0       ??0?$_Tree_unchecked_const_iterator@V?$_Tree_val@U?$_Tree_simple_types@PEAVHPSFitem@xlslib_core@@@std@@@std@@U_Iterator_base0@2@@std@@QEAA@PEAU?$_Tree_node@PEAVHPSFitem@xlslib_core@@PEAX@1@PEBV?$_Tree_val@U?$_Tree_simple_types@PEAVHPSFitem@xlslib_core@@@std@@@1@@Z 000000018001e4d0 f i HPSF.obj
 0001:0001d4d0       ??$_Rechecked@PEAPEAUDataValidation@xlslib_core@@PEAPEAU12@@std@@YAAEAPEAPEAUDataValidation@xlslib_core@@AEAPEAPEAU12@PEAPEAU12@@Z 000000018001e4d0 f i sheetrec.obj
 0001:0001d4d0       ??0?$_List_iterator@V?$_List_val@U?$_List_simple_types@PEAV?$basic_string@DU?$char_traits@D@std@@V?$allocator@D@2@@std@@@std@@@std@@@std@@QEAA@PEAU?$_List_node@PEAV?$basic_string@DU?$char_traits@D@std@@V?$allocator@D@2@@std@@PEAX@1@PEBV?$_List_val@U?$_List_simple_types@PEAV?$basic_string@DU?$char_traits@D@std@@V?$allocator@D@2@@std@@@std@@@1@@Z 000000018001e4d0 f i olefs.obj
 0001:0001d4d0       ??0?$_Vector_const_iterator@V?$_Vector_val@U?$_Simple_types@PEAVboundsheet_t@xlslib_core@@@std@@@std@@@std@@QEAA@PEAPEAVboundsheet_t@xlslib_core@@PEBU_Container_base0@1@@Z 000000018001e4d0 f i datast.obj
 0001:0001d4d0       ??0?$_Vector_const_iterator@V?$_Vector_val@U?$_Simple_types@VCUnitStore@xlslib_core@@@std@@@std@@@std@@QEAA@PEAVCUnitStore@xlslib_core@@PEBU_Container_base0@1@@Z 000000018001e4d0 f i datast.obj
 0001:0001d4d0       ??$_Rechecked@PEAPEAVformat_t@xlslib_core@@PEAPEAV12@@std@@YAAEAPEAPEAVformat_t@xlslib_core@@AEAPEAPEAV12@PEAPEAV12@@Z 000000018001e4d0 f i globalrec.obj
 0001:0001d4d0       ??0?$_Tree_const_iterator@V?$_Tree_val@U?$_Tree_simple_types@U?$pair@PEAVxf_t@xlslib_core@@UborderedXft@2@@std@@@std@@@std@@@std@@QEAA@PEAU?$_Tree_node@U?$pair@PEAVxf_t@xlslib_core@@UborderedXft@2@@std@@PEAX@1@PEBV?$_Tree_val@U?$_Tree_simple_types@U?$pair@PEAVxf_t@xlslib_core@@UborderedXft@2@@std@@@std@@@1@@Z 000000018001e4d0 f i range.obj
 0001:0001d4d0       ??0?$_Vector_iterator@V?$_Vector_val@U?$_Simple_types@_K@std@@@std@@@std@@QEAA@PEA_KPEBU_Container_base0@1@@Z 000000018001e4d0 f i sheetrec.obj
 0001:0001d4d0       ??0?$_Vector_const_iterator@V?$_Vector_val@U?$_Simple_types@PEAUDataValidation@xlslib_core@@@std@@@std@@@std@@QEAA@PEAPEAUDataValidation@xlslib_core@@PEBU_Container_base0@1@@Z 000000018001e4d0 f i sheetrec.obj
 0001:0001d4d0       ??0?$_Tree_unchecked_const_iterator@V?$_Tree_val@U?$_Tree_simple_types@PEAUcolinfo_t@xlslib_core@@@std@@@std@@U_Iterator_base0@2@@std@@QEAA@PEAU?$_Tree_node@PEAUcolinfo_t@xlslib_core@@PEAX@1@PEBV?$_Tree_val@U?$_Tree_simple_types@PEAUcolinfo_t@xlslib_core@@@std@@@1@@Z 000000018001e4d0 f i sheetrec.obj
 0001:0001d4d0       ??0?$_Vector_const_iterator@V?$_Vector_val@U?$_Simple_types@PEAUHyperLink@xlslib_core@@@std@@@std@@@std@@QEAA@PEAPEAUHyperLink@xlslib_core@@PEBU_Container_base0@1@@Z 000000018001e4d0 f i sheetrec.obj
 0001:0001d4d0       ??0?$_Vector_iterator@V?$_Vector_val@U?$_Simple_types@VCUnitStore@xlslib_core@@@std@@@std@@@std@@QEAA@PEAVCUnitStore@xlslib_core@@PEBU_Container_base0@1@@Z 000000018001e4d0 f i datast.obj
 0001:0001d4d0       ??0?$_String_const_iterator@V?$_String_val@U?$_Simple_types@_S@std@@@std@@@std@@QEAA@PEB_SPEBU_Container_base0@1@@Z 000000018001e4d0 f i globalrec.obj
 0001:0001d4d0       ??$_Rechecked@PEAV?$basic_string@DU?$char_traits@D@std@@V?$allocator@D@2@@std@@PEAV12@@std@@YAAEAPEAV?$basic_string@DU?$char_traits@D@std@@V?$allocator@D@2@@0@AEAPEAV10@PEAV10@@Z 000000018001e4d0 f i cbridge.obj
 0001:0001d4d0       ??$_Rechecked@PEAPEAVrange@xlslib_core@@PEAPEAV12@@std@@YAAEAPEAPEAVrange@xlslib_core@@AEAPEAPEAV12@PEAPEAV12@@Z 000000018001e4d0 f i sheetrec.obj
 0001:0001d4d0       ??0?$_Vector_const_iterator@V?$_Vector_val@U?$_Simple_types@PEAVrange@xlslib_core@@@std@@@std@@@std@@QEAA@PEAPEAVrange@xlslib_core@@PEBU_Container_base0@1@@Z 000000018001e4d0 f i sheetrec.obj
 0001:0001d4d0       ??0?$_Vector_const_iterator@V?$_Vector_val@U?$_Simple_types@Urowblocksize_t@xlslib_core@@@std@@@std@@@std@@QEAA@PEAUrowblocksize_t@xlslib_core@@PEBU_Container_base0@1@@Z 000000018001e4d0 f i sheetrec.obj
 0001:0001d4d0       ??$_Rechecked@PEAPEBVlabel_t@xlslib_core@@PEAPEBV12@@std@@YAAEAPEAPEBVlabel_t@xlslib_core@@AEAPEAPEBV12@PEAPEBV12@@Z 000000018001e4d0 f i globalrec.obj
 0001:0001d4d0       ??$_Rechecked@PEAPEAVxf_t@xlslib_core@@PEAPEAV12@@std@@YAAEAPEAPEAVxf_t@xlslib_core@@AEAPEAPEAV12@PEAPEAV12@@Z 000000018001e4d0 f i globalrec.obj
 0001:0001d4d0       ??0?$_Vector_iterator@V?$_Vector_val@U?$_Simple_types@PEAVCOleProp@xlslib_core@@@std@@@std@@@std@@QEAA@PEAPEAVCOleProp@xlslib_core@@PEBU_Container_base0@1@@Z 000000018001e4d0 f i oledoc.obj
 0001:0001d4d0       ??0?$_Vector_iterator@V?$_Vector_val@U?$_Simple_types@PEAVCUnit@xlslib_core@@@std@@@std@@@std@@QEAA@PEAPEAVCUnit@xlslib_core@@PEBU_Container_base0@1@@Z 000000018001e4d0 f i datast.obj
 0001:0001d4d0       ??0?$_Vector_iterator@V?$_Vector_val@U?$_Simple_types@PEAVxf_t@xlslib_core@@@std@@@std@@@std@@QEAA@PEAPEAVxf_t@xlslib_core@@PEBU_Container_base0@1@@Z 000000018001e4d0 f i globalrec.obj
 0001:0001d4d0       ??0?$_List_unchecked_const_iterator@V?$_List_val@U?$_List_simple_types@PEAV?$basic_string@DU?$char_traits@D@std@@V?$allocator@D@2@@std@@@std@@@std@@U_Iterator_base0@2@@std@@QEAA@PEAU?$_List_node@PEAV?$basic_string@DU?$char_traits@D@std@@V?$allocator@D@2@@std@@PEAX@1@PEBV?$_List_val@U?$_List_simple_types@PEAV?$basic_string@DU?$char_traits@D@std@@V?$allocator@D@2@@std@@@std@@@1@@Z 000000018001e4d0 f i olefs.obj
 0001:0001d4d0       ??0?$_Tree_unchecked_const_iterator@V?$_Tree_val@U?$_Tree_simple_types@PEAVrowheight_t@xlslib_core@@@std@@@std@@U_Iterator_base0@2@@std@@QEAA@PEAU?$_Tree_node@PEAVrowheight_t@xlslib_core@@PEAX@1@PEBV?$_Tree_val@U?$_Tree_simple_types@PEAVrowheight_t@xlslib_core@@@std@@@1@@Z 000000018001e4d0 f i sheetrec.obj
 0001:0001d4d0       ?_Rechecked@?$_Vector_iterator@V?$_Vector_val@U?$_Simple_types@VCUnitStore@xlslib_core@@@std@@@std@@@std@@QEAAAEAV12@PEAVCUnitStore@xlslib_core@@@Z 000000018001e4d0 f i datast.obj
 0001:0001d4d0       ??0?$_Tree_const_iterator@V?$_Tree_val@U?$_Tree_simple_types@PEAVrowheight_t@xlslib_core@@@std@@@std@@@std@@QEAA@PEAU?$_Tree_node@PEAVrowheight_t@xlslib_core@@PEAX@1@PEBV?$_Tree_val@U?$_Tree_simple_types@PEAVrowheight_t@xlslib_core@@@std@@@1@@Z 000000018001e4d0 f i sheetrec.obj
 0001:0001d4d0       ??0?$_Vector_iterator@V?$_Vector_val@U?$_Simple_types@PEAUHyperLink@xlslib_core@@@std@@@std@@@std@@QEAA@PEAPEAUHyperLink@xlslib_core@@PEBU_Container_base0@1@@Z 000000018001e4d0 f i sheetrec.obj
 0001:0001d4d0       ??0?$_Vector_const_iterator@V?$_Vector_val@U?$_Simple_types@PEAVworksheet@xlslib_core@@@std@@@std@@@std@@QEAA@PEAPEAVworksheet@xlslib_core@@PEBU_Container_base0@1@@Z 000000018001e4d0 f i workbook.obj
 0001:0001d4d0       ??0?$_Vector_iterator@V?$_Vector_val@U?$_Simple_types@Urowblocksize_t@xlslib_core@@@std@@@std@@@std@@QEAA@PEAUrowblocksize_t@xlslib_core@@PEBU_Container_base0@1@@Z 000000018001e4d0 f i sheetrec.obj
 0001:0001d4d0       ??0?$_Tree_const_iterator@V?$_Tree_val@U?$_Tree_simple_types@PEAUcolinfo_t@xlslib_core@@@std@@@std@@@std@@QEAA@PEAU?$_Tree_node@PEAUcolinfo_t@xlslib_core@@PEAX@1@PEBV?$_Tree_val@U?$_Tree_simple_types@PEAUcolinfo_t@xlslib_core@@@std@@@1@@Z 000000018001e4d0 f i sheetrec.obj
 0001:0001d4d0       ??0?$_String_iterator@V?$_String_val@U?$_Simple_types@D@std@@@std@@@std@@QEAA@PEADPEBU_Container_base0@1@@Z 000000018001e4d0 f i binfile.obj
 0001:0001d4d0       ??$_Rechecked@PEAPEAVformula_t@xlslib_core@@PEAPEAV12@@std@@YAAEAPEAPEAVformula_t@xlslib_core@@AEAPEAPEAV12@PEAPEAV12@@Z 000000018001e4d0 f i sheetrec.obj
 0001:0001d4d0       ??$_Rechecked@PEAUrowblocksize_t@xlslib_core@@PEAU12@@std@@YAAEAPEAUrowblocksize_t@xlslib_core@@AEAPEAU12@PEAU12@@Z 000000018001e4d0 f i sheetrec.obj
 0001:0001d4d0       ??$_Rechecked@PEANPEAN@std@@YAAEAPEANAEAPEANPEAN@Z 000000018001e4d0 f i cbridge.obj
 0001:0001d4d0       ??0?$_Vector_const_iterator@V?$_Vector_val@U?$_Simple_types@PEAVrange_t@xlslib_core@@@std@@@std@@@std@@QEAA@PEAPEAVrange_t@xlslib_core@@PEBU_Container_base0@1@@Z 000000018001e4d0 f i sheetrec.obj
 0001:0001d4d0       ??$_Rechecked@PEAPEAVboundsheet_t@xlslib_core@@PEAPEAV12@@std@@YAAEAPEAPEAVboundsheet_t@xlslib_core@@AEAPEAPEAV12@PEAPEAV12@@Z 000000018001e4d0 f i globalrec.obj
 0001:0001d4d0       ??$_Rechecked@PEAPEAVrange_t@xlslib_core@@PEAPEAV12@@std@@YAAEAPEAPEAVrange_t@xlslib_core@@AEAPEAPEAV12@PEAPEAV12@@Z 000000018001e4d0 f i sheetrec.obj
 0001:0001d4d0       ??$_Rechecked@PEAPEAVfont_t@xlslib_core@@PEAPEAV12@@std@@YAAEAPEAPEAVfont_t@xlslib_core@@AEAPEAPEAV12@PEAPEAV12@@Z 000000018001e4d0 f i globalrec.obj
 0001:0001d4d0       ??$_Rechecked@PEA_KPEA_K@std@@YAAEAPEA_KAEAPEA_KPEA_K@Z 000000018001e4d0 f i sheetrec.obj
 0001:0001d4d0       ??0?$_Vector_const_iterator@V?$_Vector_val@U?$_Simple_types@PEBVlabel_t@xlslib_core@@@std@@@std@@@std@@QEAA@PEAPEBVlabel_t@xlslib_core@@PEBU_Container_base0@1@@Z 000000018001e4d0 f i datast.obj
 0001:0001d4d0       ??0?$_Vector_const_iterator@V?$_Vector_val@U?$_Simple_types@PEAVxf_t@xlslib_core@@@std@@@std@@@std@@QEAA@PEAPEAVxf_t@xlslib_core@@PEBU_Container_base0@1@@Z 000000018001e4d0 f i globalrec.obj
 0001:0001d4d0       ??$_Rechecked@PEAPEAUHyperLink@xlslib_core@@PEAPEAU12@@std@@YAAEAPEAPEAUHyperLink@xlslib_core@@AEAPEAPEAU12@PEAPEAU12@@Z 000000018001e4d0 f i sheetrec.obj
 0001:0001d4d0       ??0?$_List_unchecked_iterator@V?$_List_val@U?$_List_simple_types@PEAV?$basic_string@DU?$char_traits@D@std@@V?$allocator@D@2@@std@@@std@@@std@@@std@@QEAA@PEAU?$_List_node@PEAV?$basic_string@DU?$char_traits@D@std@@V?$allocator@D@2@@std@@PEAX@1@PEBV?$_List_val@U?$_List_simple_types@PEAV?$basic_string@DU?$char_traits@D@std@@V?$allocator@D@2@@std@@@std@@@1@@Z 000000018001e4d0 f i olefs.obj
 0001:0001d4d0       ??$_Rechecked@PEAV?$basic_string@_WU?$char_traits@_W@std@@V?$allocator@_W@2@@std@@PEAV12@@std@@YAAEAPEAV?$basic_string@_WU?$char_traits@_W@std@@V?$allocator@_W@2@@0@AEAPEAV10@PEAV10@@Z 000000018001e4d0 f i cbridge.obj
 0001:0001d4d0       ??0?$_Vector_iterator@V?$_Vector_val@U?$_Simple_types@PEAVboundsheet_t@xlslib_core@@@std@@@std@@@std@@QEAA@PEAPEAVboundsheet_t@xlslib_core@@PEBU_Container_base0@1@@Z 000000018001e4d0 f i globalrec.obj
 0001:0001d4d0       ??0?$_Vector_iterator@V?$_Vector_val@U?$_Simple_types@PEAVrange_t@xlslib_core@@@std@@@std@@@std@@QEAA@PEAPEAVrange_t@xlslib_core@@PEBU_Container_base0@1@@Z 000000018001e4d0 f i sheetrec.obj
 0001:0001d4d0       ??0?$_Vector_iterator@V?$_Vector_val@U?$_Simple_types@PEAVrange@xlslib_core@@@std@@@std@@@std@@QEAA@PEAPEAVrange@xlslib_core@@PEBU_Container_base0@1@@Z 000000018001e4d0 f i sheetrec.obj
 0001:0001d4d0       ??0?$_Vector_const_iterator@V?$_Vector_val@U?$_Simple_types@PEAVformula_t@xlslib_core@@@std@@@std@@@std@@QEAA@PEAPEAVformula_t@xlslib_core@@PEBU_Container_base0@1@@Z 000000018001e4d0 f i sheetrec.obj
 0001:0001d4d0       ??$_Rechecked@PEAPEAVCUnit@xlslib_core@@PEAPEAV12@@std@@YAAEAPEAPEAVCUnit@xlslib_core@@AEAPEAPEAV12@PEAPEAV12@@Z 000000018001e4d0 f i datast.obj
 0001:0001d4d0       ??0?$_Tree_const_iterator@V?$_Tree_val@U?$_Tree_simple_types@PEAVcell_t@xlslib_core@@@std@@@std@@@std@@QEAA@PEAU?$_Tree_node@PEAVcell_t@xlslib_core@@PEAX@1@PEBV?$_Tree_val@U?$_Tree_simple_types@PEAVcell_t@xlslib_core@@@std@@@1@@Z 000000018001e4d0 f i sheetrec.obj
 0001:0001d4d0       ??$_Rechecked@PEAPEAVCOleProp@xlslib_core@@PEAPEAV12@@std@@YAAEAPEAPEAVCOleProp@xlslib_core@@AEAPEAPEAV12@PEAPEAV12@@Z 000000018001e4d0 f i olefs.obj
 0001:0001d4d0       ??0?$_Vector_iterator@V?$_Vector_val@U?$_Simple_types@PEAVworksheet@xlslib_core@@@std@@@std@@@std@@QEAA@PEAPEAVworksheet@xlslib_core@@PEBU_Container_base0@1@@Z 000000018001e4d0 f i workbook.obj
 0001:0001d4d0       ??0?$_Vector_const_iterator@V?$_Vector_val@U?$_Simple_types@PEAVformat_t@xlslib_core@@@std@@@std@@@std@@QEAA@PEAPEAVformat_t@xlslib_core@@PEBU_Container_base0@1@@Z 000000018001e4d0 f i globalrec.obj
 0001:0001d4d0       ??$_Rechecked@PEAPEAVworksheet@xlslib_core@@PEAPEAV12@@std@@YAAEAPEAPEAVworksheet@xlslib_core@@AEAPEAPEAV12@PEAPEAV12@@Z 000000018001e4d0 f i workbook.obj
 0001:0001d4d0       ??0?$_Vector_const_iterator@V?$_Vector_val@U?$_Simple_types@_K@std@@@std@@@std@@QEAA@PEA_KPEBU_Container_base0@1@@Z 000000018001e4d0 f i sheetrec.obj
 0001:0001d4d0       ??0?$_String_const_iterator@V?$_String_val@U?$_Simple_types@D@std@@@std@@@std@@QEAA@PEBDPEBU_Container_base0@1@@Z 000000018001e4d0 f i globalrec.obj
 0001:0001d4d0       ??0?$_Vector_const_iterator@V?$_Vector_val@U?$_Simple_types@PEAVCUnit@xlslib_core@@@std@@@std@@@std@@QEAA@PEAPEAVCUnit@xlslib_core@@PEBU_Container_base0@1@@Z 000000018001e4d0 f i datast.obj
 0001:0001d4d0       ??0?$_Tree_const_iterator@V?$_Tree_val@U?$_Tree_simple_types@PEAVHPSFitem@xlslib_core@@@std@@@std@@@std@@QEAA@PEAU?$_Tree_node@PEAVHPSFitem@xlslib_core@@PEAX@1@PEBV?$_Tree_val@U?$_Tree_simple_types@PEAVHPSFitem@xlslib_core@@@std@@@1@@Z 000000018001e4d0 f i HPSF.obj
 0001:0001d4d0       ??$_Rechecked@PEAVCUnitStore@xlslib_core@@PEAV12@@std@@YAAEAPEAVCUnitStore@xlslib_core@@AEAPEAV12@PEAV12@@Z 000000018001e4d0 f i datast.obj
 0001:0001d4d0       ??0?$_Vector_iterator@V?$_Vector_val@U?$_Simple_types@PEAUstyle_t@xlslib_core@@@std@@@std@@@std@@QEAA@PEAPEAUstyle_t@xlslib_core@@PEBU_Container_base0@1@@Z 000000018001e4d0 f i globalrec.obj
 0001:0001d4e0       ??$destroy@V?$basic_string@_WU?$char_traits@_W@std@@V?$allocator@_W@2@@std@@@?$allocator_traits@V?$allocator@V?$basic_string@_WU?$char_traits@_W@std@@V?$allocator@_W@2@@std@@@std@@@std@@SAXAEAV?$allocator@V?$basic_string@_WU?$char_traits@_W@std@@V?$allocator@_W@2@@std@@@1@PEAV?$basic_string@_WU?$char_traits@_W@std@@V?$allocator@_W@2@@1@@Z 000000018001e4e0 f i cbridge.obj
 0001:0001d4e0       ??$destroy@V?$basic_string@_WU?$char_traits@_W@std@@V?$allocator@_W@2@@std@@@?$_Wrap_alloc@V?$allocator@V?$basic_string@_WU?$char_traits@_W@std@@V?$allocator@_W@2@@std@@@std@@@std@@QEAAXPEAV?$basic_string@_WU?$char_traits@_W@std@@V?$allocator@_W@2@@1@@Z 000000018001e4e0 f i cbridge.obj
 0001:0001d4e0       ??$destroy@V?$basic_string@_WU?$char_traits@_W@std@@V?$allocator@_W@2@@std@@@?$allocator@V?$basic_string@_WU?$char_traits@_W@std@@V?$allocator@_W@2@@std@@@std@@QEAAXPEAV?$basic_string@_WU?$char_traits@_W@std@@V?$allocator@_W@2@@1@@Z 000000018001e4e0 f i cbridge.obj
 0001:0001d530       ??$destroy@V?$basic_string@DU?$char_traits@D@std@@V?$allocator@D@2@@std@@@?$_Wrap_alloc@V?$allocator@V?$basic_string@DU?$char_traits@D@std@@V?$allocator@D@2@@std@@@std@@@std@@QEAAXPEAV?$basic_string@DU?$char_traits@D@std@@V?$allocator@D@2@@1@@Z 000000018001e530 f i cbridge.obj
 0001:0001d530       ??$destroy@V?$basic_string@DU?$char_traits@D@std@@V?$allocator@D@2@@std@@@?$allocator_traits@V?$allocator@V?$basic_string@DU?$char_traits@D@std@@V?$allocator@D@2@@std@@@std@@@std@@SAXAEAV?$allocator@V?$basic_string@DU?$char_traits@D@std@@V?$allocator@D@2@@std@@@1@PEAV?$basic_string@DU?$char_traits@D@std@@V?$allocator@D@2@@1@@Z 000000018001e530 f i cbridge.obj
 0001:0001d530       ??$destroy@V?$basic_string@DU?$char_traits@D@std@@V?$allocator@D@2@@std@@@?$allocator@V?$basic_string@DU?$char_traits@D@std@@V?$allocator@D@2@@std@@@std@@QEAAXPEAV?$basic_string@DU?$char_traits@D@std@@V?$allocator@D@2@@1@@Z 000000018001e530 f i cbridge.obj
 0001:0001d540       ??0?$basic_string@_WU?$char_traits@_W@std@@V?$allocator@_W@2@@std@@QEAA@AEBV01@@Z 000000018001e540 f i cbridge.obj
 0001:0001d570       ?GetParentIndex@xf_t@xlslib_core@@QEBAGXZ 000000018001e570 f i extformat.obj
 0001:0001d570       ?GetNumberOfChilds@expression_node_t@xlslib_core@@UEBAGXZ 000000018001e570 f i formula_expr.obj
 0001:0001d570       _is_c_termination_complete 000000018001e570 f i MSVCRT:ucrt_stubs.obj
 0001:0001d570       __scrt_initialize_winrt    000000018001e570 f i MSVCRT:utility_desktop.obj
 0001:0001d570       ??$_Ptr_move_cat@V?$basic_string@DU?$char_traits@D@std@@V?$allocator@D@2@@std@@V12@@std@@YA?AU_General_ptr_iterator_tag@0@AEBQEAV?$basic_string@DU?$char_traits@D@std@@V?$allocator@D@2@@0@0@Z 000000018001e570 f i cbridge.obj
 0001:0001d570       __scrt_stub_for_is_c_termination_complete 000000018001e570 f i MSVCRT:ucrt_stubs.obj
 0001:0001d570       ??$_Ptr_move_cat@V?$basic_string@_WU?$char_traits@_W@std@@V?$allocator@_W@2@@std@@V12@@std@@YA?AU_General_ptr_iterator_tag@0@AEBQEAV?$basic_string@_WU?$char_traits@_W@std@@V?$allocator@_W@2@@0@0@Z 000000018001e570 f i cbridge.obj
 0001:0001d570       ?GetChild@expression_node_t@xlslib_core@@UEBAPEAV12@G@Z 000000018001e570 f i formula_expr.obj
 0001:0001d570       ?GetParent@xf_t@xlslib_core@@QEBAPEBV12@XZ 000000018001e570 f i extformat.obj
 0001:0001d570       ??$_Ptr_move_cat@VCUnitStore@xlslib_core@@V12@@std@@YA?AU_General_ptr_iterator_tag@0@AEBQEAVCUnitStore@xlslib_core@@0@Z 000000018001e570 f i datast.obj
 0001:0001d580       ??$_Uninitialized_move_al_unchecked1@PEAV?$basic_string@_WU?$char_traits@_W@std@@V?$allocator@_W@2@@std@@PEAV12@V?$allocator@V?$basic_string@_WU?$char_traits@_W@std@@V?$allocator@_W@2@@std@@@2@@std@@YAPEAV?$basic_string@_WU?$char_traits@_W@std@@V?$allocator@_W@2@@0@PEAV10@00AEAU?$_Wrap_alloc@V?$allocator@V?$basic_string@_WU?$char_traits@_W@std@@V?$allocator@_W@2@@std@@@std@@@0@U_General_ptr_iterator_tag@0@U_Any_tag@0@@Z 000000018001e580 f i cbridge.obj
 0001:0001d5f0       ??$_Uninitialized_move_al_unchecked1@PEAV?$basic_string@DU?$char_traits@D@std@@V?$allocator@D@2@@std@@PEAV12@V?$allocator@V?$basic_string@DU?$char_traits@D@std@@V?$allocator@D@2@@std@@@2@@std@@YAPEAV?$basic_string@DU?$char_traits@D@std@@V?$allocator@D@2@@0@PEAV10@00AEAU?$_Wrap_alloc@V?$allocator@V?$basic_string@DU?$char_traits@D@std@@V?$allocator@D@2@@std@@@std@@@0@U_General_ptr_iterator_tag@0@U_Any_tag@0@@Z 000000018001e5f0 f i cbridge.obj
 0001:0001d6c0       ??$construct@V?$basic_string@_WU?$char_traits@_W@std@@V?$allocator@_W@2@@std@@V12@@?$_Wrap_alloc@V?$allocator@V?$basic_string@_WU?$char_traits@_W@std@@V?$allocator@_W@2@@std@@@std@@@std@@QEAAXPEAV?$basic_string@_WU?$char_traits@_W@std@@V?$allocator@_W@2@@1@$$QEAV21@@Z 000000018001e6c0 f i cbridge.obj
 0001:0001d6c0       ??$construct@V?$basic_string@_WU?$char_traits@_W@std@@V?$allocator@_W@2@@std@@V12@@?$allocator_traits@V?$allocator@V?$basic_string@_WU?$char_traits@_W@std@@V?$allocator@_W@2@@std@@@std@@@std@@SAXAEAV?$allocator@V?$basic_string@_WU?$char_traits@_W@std@@V?$allocator@_W@2@@std@@@1@PEAV?$basic_string@_WU?$char_traits@_W@std@@V?$allocator@_W@2@@1@$$QEAV31@@Z 000000018001e6c0 f i cbridge.obj
 0001:0001d6c0       ??$construct@V?$basic_string@_WU?$char_traits@_W@std@@V?$allocator@_W@2@@std@@V12@@?$allocator@V?$basic_string@_WU?$char_traits@_W@std@@V?$allocator@_W@2@@std@@@std@@QEAAXPEAV?$basic_string@_WU?$char_traits@_W@std@@V?$allocator@_W@2@@1@$$QEAV21@@Z 000000018001e6c0 f i cbridge.obj
 0001:0001d6f0       ??$construct@V?$basic_string@DU?$char_traits@D@std@@V?$allocator@D@2@@std@@V12@@?$allocator_traits@V?$allocator@V?$basic_string@DU?$char_traits@D@std@@V?$allocator@D@2@@std@@@std@@@std@@SAXAEAV?$allocator@V?$basic_string@DU?$char_traits@D@std@@V?$allocator@D@2@@std@@@1@PEAV?$basic_string@DU?$char_traits@D@std@@V?$allocator@D@2@@1@$$QEAV31@@Z 000000018001e6f0 f i cbridge.obj
 0001:0001d6f0       ??$construct@V?$basic_string@DU?$char_traits@D@std@@V?$allocator@D@2@@std@@V12@@?$_Wrap_alloc@V?$allocator@V?$basic_string@DU?$char_traits@D@std@@V?$allocator@D@2@@std@@@std@@@std@@QEAAXPEAV?$basic_string@DU?$char_traits@D@std@@V?$allocator@D@2@@1@$$QEAV21@@Z 000000018001e6f0 f i cbridge.obj
 0001:0001d6f0       ??$construct@V?$basic_string@DU?$char_traits@D@std@@V?$allocator@D@2@@std@@V12@@?$allocator@V?$basic_string@DU?$char_traits@D@std@@V?$allocator@D@2@@std@@@std@@QEAAXPEAV?$basic_string@DU?$char_traits@D@std@@V?$allocator@D@2@@1@$$QEAV21@@Z 000000018001e6f0 f i cbridge.obj
 0001:0001d720       ??_G?$basic_string@_WU?$char_traits@_W@std@@V?$allocator@_W@2@@std@@QEAAPEAXI@Z 000000018001e720 f i cbridge.obj
 0001:0001d770       ??_G?$basic_string@DU?$char_traits@D@std@@V?$allocator@D@2@@std@@QEAAPEAXI@Z 000000018001e770 f i cbridge.obj
 0001:0001d7b0       ?fontDup@font_t@xlslib_core@@SAPEAV12@PEBV12@@Z 000000018001e7b0 f i cell.obj
 0001:0001d7f0       ?xfDup@xf_t@xlslib_core@@SAPEAV12@PEBV12@@Z 000000018001e7f0 f i cell.obj
 0001:0001d830       ?GetIndex@xf_t@xlslib_core@@QEBAGXZ 000000018001e830 f i cell.obj
 0001:0001d840       ??0cell_t@xlslib_core@@IEAA@AEAVCGlobalRecords@1@IIPEAVxf_t@1@@Z 000000018001e840 f   cell.obj
 0001:0001d880       ?set_xf_common@cell_t@xlslib_core@@AEAAXXZ 000000018001e880 f   cell.obj
 0001:0001d920       ?borderstyle@cell_t@xlslib_core@@QEAAXW4border_side_t@2@W4border_style_t@2@@Z 000000018001e920 f   cell.obj
 0001:0001da40       ?bordercolor@cell_t@xlslib_core@@QEAAXW4border_side_t@2@W4color_name_t@2@@Z 000000018001ea40 f   cell.obj
 0001:0001db40       ?bordercolor@cell_t@xlslib_core@@QEAAXW4border_side_t@2@E@Z 000000018001eb40 f   cell.obj
 0001:0001dc30       ?font@cell_t@xlslib_core@@QEAAXPEAVfont_t@2@@Z 000000018001ec30 f   cell.obj
 0001:0001dd30       ?format@cell_t@xlslib_core@@QEAAXW4format_number_t@2@@Z 000000018001ed30 f   cell.obj
 0001:0001de30       ?format@cell_t@xlslib_core@@QEAAXPEAVformat_t@2@@Z 000000018001ee30 f   cell.obj
 0001:0001df30       ?halign@cell_t@xlslib_core@@QEAAXW4halign_option_t@2@@Z 000000018001ef30 f   cell.obj
 0001:0001e020       ?valign@cell_t@xlslib_core@@QEAAXW4valign_option_t@2@@Z 000000018001f020 f   cell.obj
 0001:0001e110       ?indent@cell_t@xlslib_core@@QEAAXW4indent_option_t@2@@Z 000000018001f110 f   cell.obj
 0001:0001e200       ?orientation@cell_t@xlslib_core@@QEAAXW4txtori_option_t@2@@Z 000000018001f200 f   cell.obj
 0001:0001e2f0       ?fillfgcolor@cell_t@xlslib_core@@QEAAXW4color_name_t@2@@Z 000000018001f2f0 f   cell.obj
 0001:0001e3e0       ?fillfgcolor@cell_t@xlslib_core@@QEAAXE@Z 000000018001f3e0 f   cell.obj
 0001:0001e4c0       ?fillbgcolor@cell_t@xlslib_core@@QEAAXW4color_name_t@2@@Z 000000018001f4c0 f   cell.obj
 0001:0001e5b0       ?fillbgcolor@cell_t@xlslib_core@@QEAAXE@Z 000000018001f5b0 f   cell.obj
 0001:0001e690       ?fillstyle@cell_t@xlslib_core@@QEAAXW4fill_option_t@2@@Z 000000018001f690 f   cell.obj
 0001:0001e780       ?locked@cell_t@xlslib_core@@QEAAX_N@Z 000000018001f780 f   cell.obj
 0001:0001e870       ?hidden@cell_t@xlslib_core@@QEAAX_N@Z 000000018001f870 f   cell.obj
 0001:0001e970       ?wrap@cell_t@xlslib_core@@QEAAX_N@Z 000000018001f970 f   cell.obj
 0001:0001ea70       ?set_cell_font@cell_t@xlslib_core@@AEAAXXZ 000000018001fa70 f   cell.obj
 0001:0001ebd0       ?fontname@cell_t@xlslib_core@@QEAAXAEBV?$basic_string@DU?$char_traits@D@std@@V?$allocator@D@2@@std@@@Z 000000018001fbd0 f   cell.obj
 0001:0001ec10       ?fontcolor@cell_t@xlslib_core@@QEAAXE@Z 000000018001fc10 f   cell.obj
 0001:0001ec40       ?length@?$basic_string@DU?$char_traits@D@std@@V?$allocator@D@2@@std@@QEBA_KXZ 000000018001fc40 f   globalrec.obj
 0001:0001ec40       ?size@?$basic_string@DU?$char_traits@D@std@@V?$allocator@D@2@@std@@QEBA_KXZ 000000018001fc40 f   globalrec.obj
 0001:0001ec40       ?GetXF@cell_t@xlslib_core@@QEBAPEAVxf_t@2@XZ 000000018001fc40 f   cell.obj
 0001:0001ec40       ?length@?$basic_string@_SU?$char_traits@_S@std@@V?$allocator@_S@2@@std@@QEBA_KXZ 000000018001fc40 f   formula_cell.obj
 0001:0001ec40       ?size@?$basic_string@_WU?$char_traits@_W@std@@V?$allocator@_W@2@@std@@QEBA_KXZ 000000018001fc40 f   globalrec.obj
 0001:0001ec40       ?GetChild@unary_func_node_t@xlslib_core@@UEBAPEAVexpression_node_t@2@G@Z 000000018001fc40 f   formula_expr.obj
 0001:0001ec40       ?size@?$basic_string@_SU?$char_traits@_S@std@@V?$allocator@_S@2@@std@@QEBA_KXZ 000000018001fc40 f   note.obj
 0001:0001ec50       ??0CColInfo@xlslib_core@@IEAA@AEAVCDataStorage@1@PEBUcolinfo_t@1@@Z 000000018001fc50 f   colinfo.obj
 0001:0001ede0       ??0?$_Vector_const_iterator@V?$_Vector_val@U?$_Simple_types@PEAVformat_t@xlslib_core@@@std@@@std@@@std@@QEAA@XZ 000000018001fde0 f   globalrec.obj
 0001:0001ede0       ??0?$_Tree_unchecked_const_iterator@V?$_Tree_val@U?$_Tree_simple_types@PEAUcolinfo_t@xlslib_core@@@std@@@std@@U_Iterator_base0@2@@std@@QEAA@XZ 000000018001fde0 f   sheetrec.obj
 0001:0001ede0       ??0?$_Vector_const_iterator@V?$_Vector_val@U?$_Simple_types@PEAVboundsheet_t@xlslib_core@@@std@@@std@@@std@@QEAA@XZ 000000018001fde0 f   globalrec.obj
 0001:0001ede0       ??0?$_Vector_const_iterator@V?$_Vector_val@U?$_Simple_types@PEAUDataValidation@xlslib_core@@@std@@@std@@@std@@QEAA@XZ 000000018001fde0 f   sheetrec.obj
 0001:0001ede0       ??0?$_Tree_const_iterator@V?$_Tree_val@U?$_Tree_simple_types@PEAVrowheight_t@xlslib_core@@@std@@@std@@@std@@QEAA@XZ 000000018001fde0 f   sheetrec.obj
 0001:0001ede0       ??0?$_Vector_iterator@V?$_Vector_val@U?$_Simple_types@PEAUDataValidation@xlslib_core@@@std@@@std@@@std@@QEAA@XZ 000000018001fde0 f   sheetrec.obj
 0001:0001ede0       ??0?$_Tree_const_iterator@V?$_Tree_val@U?$_Tree_simple_types@PEAUcolinfo_t@xlslib_core@@@std@@@std@@@std@@QEAA@XZ 000000018001fde0 f   sheetrec.obj
 0001:0001ede0       ??0?$_String_const_iterator@V?$_String_val@U?$_Simple_types@_S@std@@@std@@@std@@QEAA@XZ 000000018001fde0 f   globalrec.obj
 0001:0001ede0       ??0?$_Vector_const_iterator@V?$_Vector_val@U?$_Simple_types@PEAVCOleProp@xlslib_core@@@std@@@std@@@std@@QEAA@XZ 000000018001fde0 f   olefs.obj
 0001:0001ede0       ??0?$_Vector_const_iterator@V?$_Vector_val@U?$_Simple_types@PEAVxf_t@xlslib_core@@@std@@@std@@@std@@QEAA@XZ 000000018001fde0 f   globalrec.obj
 0001:0001ede0       ??0?$_Vector_iterator@V?$_Vector_val@U?$_Simple_types@_K@std@@@std@@@std@@QEAA@XZ 000000018001fde0 f   sheetrec.obj
 0001:0001ede0       ??0?$_Vector_const_iterator@V?$_Vector_val@U?$_Simple_types@PEAVworksheet@xlslib_core@@@std@@@std@@@std@@QEAA@XZ 000000018001fde0 f   workbook.obj
 0001:0001ede0       ??0?$_Vector_iterator@V?$_Vector_val@U?$_Simple_types@PEAVformat_t@xlslib_core@@@std@@@std@@@std@@QEAA@XZ 000000018001fde0 f   globalrec.obj
 0001:0001ede0       ??0?$_Vector_const_iterator@V?$_Vector_val@U?$_Simple_types@PEBVlabel_t@xlslib_core@@@std@@@std@@@std@@QEAA@XZ 000000018001fde0 f   globalrec.obj
 0001:0001ede0       ??0?$_Vector_iterator@V?$_Vector_val@U?$_Simple_types@PEAUstyle_t@xlslib_core@@@std@@@std@@@std@@QEAA@XZ 000000018001fde0 f   globalrec.obj
 0001:0001ede0       ??0?$_Tree_const_iterator@V?$_Tree_val@U?$_Tree_simple_types@PEAVcell_t@xlslib_core@@@std@@@std@@@std@@QEAA@XZ 000000018001fde0 f   sheetrec.obj
 0001:0001ede0       ??0?$_Vector_const_iterator@V?$_Vector_val@U?$_Simple_types@PEAVrange_t@xlslib_core@@@std@@@std@@@std@@QEAA@XZ 000000018001fde0 f   sheetrec.obj
 0001:0001ede0       ??0?$_Tree_unchecked_const_iterator@V?$_Tree_val@U?$_Tree_simple_types@U?$pair@PEAVxf_t@xlslib_core@@UborderedXft@2@@std@@@std@@@std@@U_Iterator_base0@2@@std@@QEAA@XZ 000000018001fde0 f   range.obj
 0001:0001ede0       ??0?$_String_const_iterator@V?$_String_val@U?$_Simple_types@D@std@@@std@@@std@@QEAA@XZ 000000018001fde0 f   globalrec.obj
 0001:0001ede0       ??0?$_Tree_unchecked_const_iterator@V?$_Tree_val@U?$_Tree_simple_types@PEAVrowheight_t@xlslib_core@@@std@@@std@@U_Iterator_base0@2@@std@@QEAA@XZ 000000018001fde0 f   sheetrec.obj
 0001:0001ede0       ??0?$_Vector_const_iterator@V?$_Vector_val@U?$_Simple_types@Urowblocksize_t@xlslib_core@@@std@@@std@@@std@@QEAA@XZ 000000018001fde0 f   sheetrec.obj
 0001:0001ede0       ??0?$_Vector_iterator@V?$_Vector_val@U?$_Simple_types@PEAVCOleProp@xlslib_core@@@std@@@std@@@std@@QEAA@XZ 000000018001fde0 f   olefs.obj
 0001:0001ede0       ??0?$_Vector_iterator@V?$_Vector_val@U?$_Simple_types@VCUnitStore@xlslib_core@@@std@@@std@@@std@@QEAA@XZ 000000018001fde0 f   datast.obj
 0001:0001ede0       ??0colors_t@xlslib_core@@QEAA@XZ 000000018001fde0 f   colors.obj
 0001:0001ede0       ??0?$_Vector_iterator@V?$_Vector_val@U?$_Simple_types@PEAVboundsheet_t@xlslib_core@@@std@@@std@@@std@@QEAA@XZ 000000018001fde0 f   globalrec.obj
 0001:0001ede0       ??0?$_Vector_iterator@V?$_Vector_val@U?$_Simple_types@PEBVlabel_t@xlslib_core@@@std@@@std@@@std@@QEAA@XZ 000000018001fde0 f   globalrec.obj
 0001:0001ede0       ??0?$_Vector_const_iterator@V?$_Vector_val@U?$_Simple_types@VCUnitStore@xlslib_core@@@std@@@std@@@std@@QEAA@XZ 000000018001fde0 f   datast.obj
 0001:0001ede0       ??0?$_Vector_const_iterator@V?$_Vector_val@U?$_Simple_types@PEAUHyperLink@xlslib_core@@@std@@@std@@@std@@QEAA@XZ 000000018001fde0 f   sheetrec.obj
 0001:0001ede0       ??0?$_Tree_unchecked_const_iterator@V?$_Tree_val@U?$_Tree_simple_types@PEAVcell_t@xlslib_core@@@std@@@std@@U_Iterator_base0@2@@std@@QEAA@XZ 000000018001fde0 f   sheetrec.obj
 0001:0001ede0       ??0?$_Vector_const_iterator@V?$_Vector_val@U?$_Simple_types@_K@std@@@std@@@std@@QEAA@XZ 000000018001fde0 f   sheetrec.obj
 0001:0001ede0       ??0?$_Vector_iterator@V?$_Vector_val@U?$_Simple_types@PEAVworksheet@xlslib_core@@@std@@@std@@@std@@QEAA@XZ 000000018001fde0 f   workbook.obj
 0001:0001ede0       ??0?$_Tree_const_iterator@V?$_Tree_val@U?$_Tree_simple_types@PEAVHPSFitem@xlslib_core@@@std@@@std@@@std@@QEAA@XZ 000000018001fde0 f   HPSF.obj
 0001:0001ede0       ??0?$_Vector_iterator@V?$_Vector_val@U?$_Simple_types@PEAVxf_t@xlslib_core@@@std@@@std@@@std@@QEAA@XZ 000000018001fde0 f   globalrec.obj
 0001:0001ede0       ??0?$_Vector_iterator@V?$_Vector_val@U?$_Simple_types@PEAUHyperLink@xlslib_core@@@std@@@std@@@std@@QEAA@XZ 000000018001fde0 f   sheetrec.obj
 0001:0001ede0       ??0?$_Vector_iterator@V?$_Vector_val@U?$_Simple_types@PEAVrange_t@xlslib_core@@@std@@@std@@@std@@QEAA@XZ 000000018001fde0 f   sheetrec.obj
 0001:0001ede0       ??0?$_Tree_const_iterator@V?$_Tree_val@U?$_Tree_simple_types@U?$pair@PEAVxf_t@xlslib_core@@UborderedXft@2@@std@@@std@@@std@@@std@@QEAA@XZ 000000018001fde0 f   range.obj
 0001:0001ede0       ??0?$_Tree_unchecked_const_iterator@V?$_Tree_val@U?$_Tree_simple_types@PEAVHPSFitem@xlslib_core@@@std@@@std@@U_Iterator_base0@2@@std@@QEAA@XZ 000000018001fde0 f   HPSF.obj
 0001:0001ede0       ??0?$_Vector_const_iterator@V?$_Vector_val@U?$_Simple_types@PEAVfont_t@xlslib_core@@@std@@@std@@@std@@QEAA@XZ 000000018001fde0 f   globalrec.obj
 0001:0001ede0       ??0?$_Vector_iterator@V?$_Vector_val@U?$_Simple_types@PEAVfont_t@xlslib_core@@@std@@@std@@@std@@QEAA@XZ 000000018001fde0 f   globalrec.obj
 0001:0001ede0       ??0?$_Vector_const_iterator@V?$_Vector_val@U?$_Simple_types@PEAUstyle_t@xlslib_core@@@std@@@std@@@std@@QEAA@XZ 000000018001fde0 f   globalrec.obj
 0001:0001ede0       ??0?$_Vector_iterator@V?$_Vector_val@U?$_Simple_types@Urowblocksize_t@xlslib_core@@@std@@@std@@@std@@QEAA@XZ 000000018001fde0 f   sheetrec.obj
 0001:0001edf0       ?setColor@colors_t@xlslib_core@@QEAA_NEEEE@Z 000000018001fdf0 f   colors.obj
 0001:0001eef0       ?GetData@colors_t@xlslib_core@@QEBAPEAVCUnit@2@AEAVCDataStorage@2@@Z 000000018001fef0 f   colors.obj
 0001:0001ef50       ??1colors_t@xlslib_core@@QEAA@XZ 000000018001ff50 f   colors.obj
 0001:0001ef60       ??0CPalette@xlslib_core@@IEAA@AEAVCDataStorage@1@PEBUcolor_entry_t@1@@Z 000000018001ff60 f   colors.obj
 0001:0001f050       ?DataStore@CUnit@xlslib_core@@QEAAAEAVCDataStorage@2@XZ 0000000180020050 f i continue.obj
 0001:0001f050       ?seekpos@?$fpos@U_Mbstatet@@@std@@QEBA_JXZ 0000000180020050 f i binfile.obj
 0001:0001f050       ?size@?$list@PEAV?$basic_string@DU?$char_traits@D@std@@V?$allocator@D@2@@std@@V?$allocator@PEAV?$basic_string@DU?$char_traits@D@std@@V?$allocator@D@2@@std@@@2@@std@@QEBA_KXZ 0000000180020050 f i olefs.obj
 0001:0001f050       ?size@?$_Tree@V?$_Tset_traits@PEAVcell_t@xlslib_core@@Vinsertsort@2@V?$allocator@PEAVcell_t@xlslib_core@@@std@@$0A@@std@@@std@@QEBA_KXZ 0000000180020050 f i sheetrec.obj
 0001:0001f050       ?GetXF@rowheight_t@xlslib_core@@QEBAPEAVxf_t@2@XZ 0000000180020050 f i sheetrec.obj
 0001:0001f050       ?size@?$_Tree@V?$_Tset_traits@PEAUcolinfo_t@xlslib_core@@Vcolinfosort@2@V?$allocator@PEAUcolinfo_t@xlslib_core@@@std@@$0A@@std@@@std@@QEBA_KXZ 0000000180020050 f i sheetrec.obj
 0001:0001f050       ?GetGlobalRecords@font_t@xlslib_core@@QEBAAEAVCGlobalRecords@2@XZ 0000000180020050 f i font.obj
 0001:0001f050       ?size@?$_Tree@V?$_Tset_traits@PEAVrowheight_t@xlslib_core@@Vrowheightsort@2@V?$allocator@PEAVrowheight_t@xlslib_core@@@std@@$0A@@std@@@std@@QEBA_KXZ 0000000180020050 f i sheetrec.obj
 0001:0001f050       ?size@?$_Tree@V?$_Tset_traits@PEAVHPSFitem@xlslib_core@@Vinsertsort2@2@V?$allocator@PEAVHPSFitem@xlslib_core@@@std@@$0A@@std@@@std@@QEBA_KXZ 0000000180020050 f i HPSF.obj
 0001:0001f050       ?GetGlobalRecords@cell_t@xlslib_core@@QEBAAEAVCGlobalRecords@2@XZ 0000000180020050 f i formula_cell.obj
 0001:0001f060       ?GetRowHeight@rowheight_t@xlslib_core@@QEAAGXZ 0000000180020060 f i sheetrec.obj
 0001:0001f060       ?BackPatchingLevel@CUnit@xlslib_core@@QEBAGXZ 0000000180020060 f i continue.obj
 0001:0001f070       ??0CContinue@xlslib_core@@IEAA@PEAVCUnit@1@PEBE_K@Z 0000000180020070 f   continue.obj
 0001:0001f170       ?SetAlreadyContinued@CUnit@xlslib_core@@IEAAX_N@Z 0000000180020170 f i datast.obj
 0001:0001f180       ?GetIndex@CUnit@xlslib_core@@QEBAHXZ 0000000180020180 f i datast.obj
 0001:0001f180       ?GetRowNum@rowheight_t@xlslib_core@@QEAAIXZ 0000000180020180 f i sheetrec.obj
 0001:0001f190       ?GetNoteCount@boundsheet_t@xlslib_core@@QEBAGXZ 0000000180020190 f i datast.obj
 0001:0001f1a0       ?GetBuffer@CUnitStore@xlslib_core@@QEAAPEAEXZ 00000001800201a0 f i datast.obj
 0001:0001f1b0       ?SetDataSize@CUnitStore@xlslib_core@@QEAAX_K@Z 00000001800201b0 f i datast.obj
 0001:0001f1d0       ?GetDataSize@CUnitStore@xlslib_core@@QEBA_KXZ 00000001800201d0 f i datast.obj
 0001:0001f1e0       ?MakeSticky@CUnitStore@xlslib_core@@QEAAXXZ 00000001800201e0 f i datast.obj
 0001:0001f1f0       ?GetAuthor@note_t@xlslib_core@@QEBAAEBV?$basic_string@_SU?$char_traits@_S@std@@V?$allocator@_S@2@@std@@XZ 00000001800201f0 f i note.obj
 0001:0001f1f0       ?GetStrLabel@label_t@xlslib_core@@QEBAAEBV?$basic_string@_SU?$char_traits@_S@std@@V?$allocator@_S@2@@std@@XZ 00000001800201f0 f i datast.obj
 0001:0001f200       ??0CDataStorage@xlslib_core@@QEAA@XZ 0000000180020200 f   datast.obj
 0001:0001f280       ??_GCDataStorage@xlslib_core@@UEAAPEAXI@Z 0000000180020280 f i datast.obj
 0001:0001f280       ??_ECDataStorage@xlslib_core@@UEAAPEAXI@Z 0000000180020280 f i * CIL library *:* CIL module *
 0001:0001f2c0       ??0CDataStorage@xlslib_core@@QEAA@_K@Z 00000001800202c0 f   datast.obj
 0001:0001f350       ??1CDataStorage@xlslib_core@@UEAA@XZ 0000000180020350 f   datast.obj
 0001:0001f4a0       ??YCDataStorage@xlslib_core@@QEAAXPEAVCUnit@1@@Z 00000001800204a0 f   datast.obj
 0001:0001f4e0       ?GetWorksheet@cell_t@xlslib_core@@QEBAPEAVworksheet@2@XZ 00000001800204e0 f   formula.obj
 0001:0001f4e0       ?GetDataSize@CDataStorage@xlslib_core@@QEBA_KXZ 00000001800204e0 f   datast.obj
 0001:0001f4f0       ?end@?$vector@PEBVlabel_t@xlslib_core@@V?$allocator@PEBVlabel_t@xlslib_core@@@std@@@std@@QEAA?AV?$_Vector_iterator@V?$_Vector_val@U?$_Simple_types@PEBVlabel_t@xlslib_core@@@std@@@std@@@2@XZ 00000001800204f0 f   globalrec.obj
 0001:0001f4f0       ?end@?$vector@PEBVlabel_t@xlslib_core@@V?$allocator@PEBVlabel_t@xlslib_core@@@std@@@std@@QEBA?AV?$_Vector_const_iterator@V?$_Vector_val@U?$_Simple_types@PEBVlabel_t@xlslib_core@@@std@@@std@@@2@XZ 00000001800204f0 f   datast.obj
 0001:0001f4f0       ?end@?$vector@PEAUDataValidation@xlslib_core@@V?$allocator@PEAUDataValidation@xlslib_core@@@std@@@std@@QEAA?AV?$_Vector_iterator@V?$_Vector_val@U?$_Simple_types@PEAUDataValidation@xlslib_core@@@std@@@std@@@2@XZ 00000001800204f0 f   sheetrec.obj
 0001:0001f4f0       ?end@?$vector@PEAVxf_t@xlslib_core@@V?$allocator@PEAVxf_t@xlslib_core@@@std@@@std@@QEAA?AV?$_Vector_iterator@V?$_Vector_val@U?$_Simple_types@PEAVxf_t@xlslib_core@@@std@@@std@@@2@XZ 00000001800204f0 f   globalrec.obj
 0001:0001f4f0       ?end@?$vector@PEAVCOleProp@xlslib_core@@V?$allocator@PEAVCOleProp@xlslib_core@@@std@@@std@@QEAA?AV?$_Vector_iterator@V?$_Vector_val@U?$_Simple_types@PEAVCOleProp@xlslib_core@@@std@@@std@@@2@XZ 00000001800204f0 f   oledoc.obj
 0001:0001f4f0       ?end@?$vector@_KV?$allocator@_K@std@@@std@@QEAA?AV?$_Vector_iterator@V?$_Vector_val@U?$_Simple_types@_K@std@@@std@@@2@XZ 00000001800204f0 f   sheetrec.obj
 0001:0001f4f0       ?end@?$vector@PEAUHyperLink@xlslib_core@@V?$allocator@PEAUHyperLink@xlslib_core@@@std@@@std@@QEAA?AV?$_Vector_iterator@V?$_Vector_val@U?$_Simple_types@PEAUHyperLink@xlslib_core@@@std@@@std@@@2@XZ 00000001800204f0 f   sheetrec.obj
 0001:0001f4f0       ?end@?$vector@VCUnitStore@xlslib_core@@V?$allocator@VCUnitStore@xlslib_core@@@std@@@std@@QEAA?AV?$_Vector_iterator@V?$_Vector_val@U?$_Simple_types@VCUnitStore@xlslib_core@@@std@@@std@@@2@XZ 00000001800204f0 f   datast.obj
 0001:0001f4f0       ?end@?$vector@PEAUstyle_t@xlslib_core@@V?$allocator@PEAUstyle_t@xlslib_core@@@std@@@std@@QEAA?AV?$_Vector_iterator@V?$_Vector_val@U?$_Simple_types@PEAUstyle_t@xlslib_core@@@std@@@std@@@2@XZ 00000001800204f0 f   globalrec.obj
 0001:0001f4f0       ?end@?$vector@PEAVboundsheet_t@xlslib_core@@V?$allocator@PEAVboundsheet_t@xlslib_core@@@std@@@std@@QEAA?AV?$_Vector_iterator@V?$_Vector_val@U?$_Simple_types@PEAVboundsheet_t@xlslib_core@@@std@@@std@@@2@XZ 00000001800204f0 f   globalrec.obj
 0001:0001f4f0       ?end@?$vector@PEAVfont_t@xlslib_core@@V?$allocator@PEAVfont_t@xlslib_core@@@std@@@std@@QEAA?AV?$_Vector_iterator@V?$_Vector_val@U?$_Simple_types@PEAVfont_t@xlslib_core@@@std@@@std@@@2@XZ 00000001800204f0 f   globalrec.obj
 0001:0001f4f0       ?end@?$vector@PEAVworksheet@xlslib_core@@V?$allocator@PEAVworksheet@xlslib_core@@@std@@@std@@QEAA?AV?$_Vector_iterator@V?$_Vector_val@U?$_Simple_types@PEAVworksheet@xlslib_core@@@std@@@std@@@2@XZ 00000001800204f0 f   workbook.obj
 0001:0001f4f0       ?end@?$vector@PEAVformula_t@xlslib_core@@V?$allocator@PEAVformula_t@xlslib_core@@@std@@@std@@QEAA?AV?$_Vector_iterator@V?$_Vector_val@U?$_Simple_types@PEAVformula_t@xlslib_core@@@std@@@std@@@2@XZ 00000001800204f0 f   sheetrec.obj
 0001:0001f4f0       ?end@?$vector@Urowblocksize_t@xlslib_core@@V?$allocator@Urowblocksize_t@xlslib_core@@@std@@@std@@QEAA?AV?$_Vector_iterator@V?$_Vector_val@U?$_Simple_types@Urowblocksize_t@xlslib_core@@@std@@@std@@@2@XZ 00000001800204f0 f   sheetrec.obj
 0001:0001f4f0       ?end@?$vector@PEAVrange@xlslib_core@@V?$allocator@PEAVrange@xlslib_core@@@std@@@std@@QEAA?AV?$_Vector_iterator@V?$_Vector_val@U?$_Simple_types@PEAVrange@xlslib_core@@@std@@@std@@@2@XZ 00000001800204f0 f   sheetrec.obj
 0001:0001f4f0       ?end@?$vector@PEAVboundsheet_t@xlslib_core@@V?$allocator@PEAVboundsheet_t@xlslib_core@@@std@@@std@@QEBA?AV?$_Vector_const_iterator@V?$_Vector_val@U?$_Simple_types@PEAVboundsheet_t@xlslib_core@@@std@@@std@@@2@XZ 00000001800204f0 f   datast.obj
 0001:0001f4f0       ?end@?$vector@PEAVrange_t@xlslib_core@@V?$allocator@PEAVrange_t@xlslib_core@@@std@@@std@@QEAA?AV?$_Vector_iterator@V?$_Vector_val@U?$_Simple_types@PEAVrange_t@xlslib_core@@@std@@@std@@@2@XZ 00000001800204f0 f   sheetrec.obj
 0001:0001f4f0       ?GetValue@HPSFitem@xlslib_core@@QEBA?AThValue@2@XZ 00000001800204f0 f   HPSF.obj
 0001:0001f4f0       ?begin@CDataStorage@xlslib_core@@QEAA?AV?$_Vector_iterator@V?$_Vector_val@U?$_Simple_types@VCUnitStore@xlslib_core@@@std@@@std@@@std@@XZ 00000001800204f0 f   datast.obj
 0001:0001f4f0       ?end@?$vector@PEAVformat_t@xlslib_core@@V?$allocator@PEAVformat_t@xlslib_core@@@std@@@std@@QEAA?AV?$_Vector_iterator@V?$_Vector_val@U?$_Simple_types@PEAVformat_t@xlslib_core@@@std@@@std@@@2@XZ 00000001800204f0 f   globalrec.obj
 0001:0001f4f0       ?end@?$vector@PEAVCUnit@xlslib_core@@V?$allocator@PEAVCUnit@xlslib_core@@@std@@@std@@QEAA?AV?$_Vector_iterator@V?$_Vector_val@U?$_Simple_types@PEAVCUnit@xlslib_core@@@std@@@std@@@2@XZ 00000001800204f0 f   datast.obj
 0001:0001f500       ?end@CDataStorage@xlslib_core@@QEAA?AV?$_Vector_iterator@V?$_Vector_val@U?$_Simple_types@VCUnitStore@xlslib_core@@@std@@@std@@@std@@XZ 0000000180020500 f   datast.obj
 0001:0001f500       ?state@?$fpos@U_Mbstatet@@@std@@QEBA?AU_Mbstatet@@XZ 0000000180020500 f   binfile.obj
 0001:0001f510       ?RequestIndex@CDataStorage@xlslib_core@@QEAAH_K@Z 0000000180020510 f   datast.obj
 0001:0001f620       ??ACDataStorage@xlslib_core@@QEAAAEAVCUnitStore@1@H@Z 0000000180020620 f   datast.obj
 0001:0001f640       ?Push@CDataStorage@xlslib_core@@QEAAXPEAVCUnit@2@@Z 0000000180020640 f   datast.obj
 0001:0001f6f0       ?Clip@CDataStorage@xlslib_core@@QEAA_KPEAVCUnit@2@@Z 00000001800206f0 f   datast.obj
 0001:0001f760       ?FlushEm@CDataStorage@xlslib_core@@QEAAXG@Z 0000000180020760 f   datast.obj
 0001:0001f850       ?FlushLowerLevelUnits@CDataStorage@xlslib_core@@QEAAXPEBVCUnit@2@@Z 0000000180020850 f   datast.obj
 0001:0001f870       ?MakeCUnit@CDataStorage@xlslib_core@@QEAAPEAVCUnit@2@XZ 0000000180020870 f   datast.obj
 0001:0001f8e0       ?MakeCRecord@CDataStorage@xlslib_core@@QEAAPEAVCRecord@2@XZ 00000001800208e0 f   datast.obj
 0001:0001f970       ?MakeCRow@CDataStorage@xlslib_core@@QEAAPEAVCRow@2@IIIGPEBVxf_t@2@@Z 0000000180020970 f   datast.obj
 0001:0001f9f0       ?MakeCBof@CDataStorage@xlslib_core@@QEAAPEAVCBof@2@G@Z 00000001800209f0 f   datast.obj
 0001:0001fa40       ?MakeCEof@CDataStorage@xlslib_core@@QEAAPEAVCEof@2@XZ 0000000180020a40 f   datast.obj
 0001:0001fa80       ?MakeCDimension@CDataStorage@xlslib_core@@QEAAPEAVCDimension@2@IIII@Z 0000000180020a80 f   datast.obj
 0001:0001faf0       ?MakeCWindow1@CDataStorage@xlslib_core@@QEAAPEAVCWindow1@2@AEBVwindow1@2@@Z 0000000180020af0 f   datast.obj
 0001:0001fb40       ?MakeCWindow2@CDataStorage@xlslib_core@@QEAAPEAVCWindow2@2@_N@Z 0000000180020b40 f   datast.obj
 0001:0001fb90       ?MakeCDateMode@CDataStorage@xlslib_core@@QEAAPEAVCDateMode@2@XZ 0000000180020b90 f   datast.obj
 0001:0001fbd0       ?MakeCStyle@CDataStorage@xlslib_core@@QEAAPEAVCStyle@2@PEBUstyle_t@2@@Z 0000000180020bd0 f   datast.obj
 0001:0001fc20       ?MakeCBSheet@CDataStorage@xlslib_core@@QEAAPEAVCBSheet@2@PEBVboundsheet_t@2@@Z 0000000180020c20 f   datast.obj
 0001:0001fc70       ?MakeCFormat@CDataStorage@xlslib_core@@QEAAPEAVCFormat@2@PEBVformat_t@2@@Z 0000000180020c70 f   datast.obj
 0001:0001fcc0       ?MakeCFont@CDataStorage@xlslib_core@@QEAAPEAVCFont@2@PEBVfont_t@2@@Z 0000000180020cc0 f   datast.obj
 0001:0001fd10       ?MakeCNumber@CDataStorage@xlslib_core@@QEAAPEAVCNumber@2@AEBVnumber_t@2@@Z 0000000180020d10 f   datast.obj
 0001:0001fd60       ?MakeCBoolean@CDataStorage@xlslib_core@@QEAAPEAVCBoolean@2@AEBVboolean_t@2@@Z 0000000180020d60 f   datast.obj
 0001:0001fdb0       ?MakeCErr@CDataStorage@xlslib_core@@QEAAPEAVCErr@2@AEBVerr_t@2@@Z 0000000180020db0 f   datast.obj
 0001:0001fe00       ?MakeCNote@CDataStorage@xlslib_core@@QEAAPEAVCNote@2@AEBVnote_t@2@@Z 0000000180020e00 f   datast.obj
 0001:0001fe50       ?MakeCFormula@CDataStorage@xlslib_core@@QEAAPEAVCFormula@2@AEBVformula_cell_t@2@@Z 0000000180020e50 f   datast.obj
 0001:0001fea0       ?MakeCMergedCells@CDataStorage@xlslib_core@@QEAAPEAVCMergedCells@2@XZ 0000000180020ea0 f   datast.obj
 0001:0001fee0       ?MakeCLabel@CDataStorage@xlslib_core@@QEAAPEAVCLabel@2@AEBVlabel_t@2@@Z 0000000180020ee0 f   datast.obj
 0001:0001ff30       ?MakeCIndex@CDataStorage@xlslib_core@@QEAAPEAVCIndex@2@II@Z 0000000180020f30 f   datast.obj
 0001:0001ff90       ?MakeCExtFormat@CDataStorage@xlslib_core@@QEAAPEAVCExtFormat@2@PEBVxf_t@2@@Z 0000000180020f90 f   datast.obj
 0001:0001ffe0       ?MakeCContinue@CDataStorage@xlslib_core@@QEAAPEAVCContinue@2@PEAVCUnit@2@PEBE_K@Z 0000000180020fe0 f   datast.obj
 0001:00020040       ?MakeCPalette@CDataStorage@xlslib_core@@QEAAPEAVCPalette@2@PEBUcolor_entry_t@2@@Z 0000000180021040 f   datast.obj
 0001:00020090       ?MakeCColInfo@CDataStorage@xlslib_core@@QEAAPEAVCColInfo@2@PEBUcolinfo_t@2@@Z 0000000180021090 f   datast.obj
 0001:000200e0       ?MakeCBlank@CDataStorage@xlslib_core@@QEAAPEAVCBlank@2@AEBVblank_t@2@@Z 00000001800210e0 f   datast.obj
 0001:00020130       ?MakeCCodePage@CDataStorage@xlslib_core@@QEAAPEAVCCodePage@2@G@Z 0000000180021130 f   datast.obj
 0001:00020170       ?MakeCDBCell@CDataStorage@xlslib_core@@QEAAPEAVCDBCell@2@_K@Z 0000000180021170 f   datast.obj
 0001:000201c0       ?MakeCHPSFdoc@CDataStorage@xlslib_core@@QEAAPEAVCHPSFdoc@2@AEBVhpsf_doc_t@2@@Z 00000001800211c0 f   datast.obj
 0001:00020210       ?MakeCExternBook@CDataStorage@xlslib_core@@QEAAPEAVCUnit@2@G@Z 0000000180021210 f   datast.obj
 0001:00020360       ?MakeDrawingGroup@CDataStorage@xlslib_core@@QEAAPEAVCUnit@2@AEBV?$vector@PEAVboundsheet_t@xlslib_core@@V?$allocator@PEAVboundsheet_t@xlslib_core@@@std@@@std@@@Z 0000000180021360 f   datast.obj
 0001:00020500       ?MakeCExternSheet@CDataStorage@xlslib_core@@QEAAPEAVCUnit@2@AEBV?$vector@PEAVboundsheet_t@xlslib_core@@V?$allocator@PEAVboundsheet_t@xlslib_core@@@std@@@std@@@Z 0000000180021500 f   datast.obj
 0001:000206c0       ?MakeSST@CDataStorage@xlslib_core@@QEAAPEAVCUnit@2@AEBV?$vector@PEBVlabel_t@xlslib_core@@V?$allocator@PEBVlabel_t@xlslib_core@@@std@@@std@@@Z 00000001800216c0 f   datast.obj
 0001:00020a00       ??0CUnitStore@xlslib_core@@QEAA@XZ 0000000180021a00 f   datast.obj
 0001:00020a20       ?Reset@CUnitStore@xlslib_core@@QEAAXXZ 0000000180021a20 f   datast.obj
 0001:00020a20       ??1CUnitStore@xlslib_core@@QEAA@XZ 0000000180021a20 f   datast.obj
 0001:00020a60       ??0CUnitStore@xlslib_core@@QEAA@AEBV01@@Z 0000000180021a60 f   datast.obj
 0001:00020b30       ?Prepare@CUnitStore@xlslib_core@@QEAAD_K@Z 0000000180021b30 f   datast.obj
 0001:00020bd0       ?Resize@CUnitStore@xlslib_core@@QEAAD_K@Z 0000000180021bd0 f   datast.obj
 0001:00020ca0       ?Init@CUnitStore@xlslib_core@@QEAADPEBE_K1@Z 0000000180021ca0 f   datast.obj
 0001:00020d10       ?InitWithValue@CUnitStore@xlslib_core@@QEAADE_K@Z 0000000180021d10 f   datast.obj
 0001:00020d80       ??9?$_Vector_const_iterator@V?$_Vector_val@U?$_Simple_types@PEAVformula_t@xlslib_core@@@std@@@std@@@std@@QEBA_NAEBV01@@Z 0000000180021d80 f i sheetrec.obj
 0001:00020d80       ??9?$_Vector_const_iterator@V?$_Vector_val@U?$_Simple_types@PEAVCOleProp@xlslib_core@@@std@@@std@@@std@@QEBA_NAEBV01@@Z 0000000180021d80 f i oledoc.obj
 0001:00020d80       ??9?$_Vector_const_iterator@V?$_Vector_val@U?$_Simple_types@PEAVformat_t@xlslib_core@@@std@@@std@@@std@@QEBA_NAEBV01@@Z 0000000180021d80 f i globalrec.obj
 0001:00020d80       ??9?$_Vector_const_iterator@V?$_Vector_val@U?$_Simple_types@PEAUHyperLink@xlslib_core@@@std@@@std@@@std@@QEBA_NAEBV01@@Z 0000000180021d80 f i sheetrec.obj
 0001:00020d80       ??9?$_Tree_const_iterator@V?$_Tree_val@U?$_Tree_simple_types@U?$pair@PEAVxf_t@xlslib_core@@UborderedXft@2@@std@@@std@@@std@@@std@@QEBA_NAEBV01@@Z 0000000180021d80 f i range.obj
 0001:00020d80       ??9?$_Vector_const_iterator@V?$_Vector_val@U?$_Simple_types@_K@std@@@std@@@std@@QEBA_NAEBV01@@Z 0000000180021d80 f i sheetrec.obj
 0001:00020d80       ??9?$_Vector_const_iterator@V?$_Vector_val@U?$_Simple_types@PEAVrange_t@xlslib_core@@@std@@@std@@@std@@QEBA_NAEBV01@@Z 0000000180021d80 f i sheetrec.obj
 0001:00020d80       ??9?$_List_const_iterator@V?$_List_val@U?$_List_simple_types@PEAV?$basic_string@DU?$char_traits@D@std@@V?$allocator@D@2@@std@@@std@@@std@@@std@@QEBA_NAEBV01@@Z 0000000180021d80 f i olefs.obj
 0001:00020d80       ??9?$_Tree_const_iterator@V?$_Tree_val@U?$_Tree_simple_types@PEAVHPSFitem@xlslib_core@@@std@@@std@@@std@@QEBA_NAEBV01@@Z 0000000180021d80 f i HPSF.obj
 0001:00020d80       ??9?$_String_const_iterator@V?$_String_val@U?$_Simple_types@_S@std@@@std@@@std@@QEBA_NAEBV01@@Z 0000000180021d80 f i globalrec.obj
 0001:00020d80       ??9?$_Vector_const_iterator@V?$_Vector_val@U?$_Simple_types@PEAVxf_t@xlslib_core@@@std@@@std@@@std@@QEBA_NAEBV01@@Z 0000000180021d80 f i globalrec.obj
 0001:00020d80       ??9?$_Vector_const_iterator@V?$_Vector_val@U?$_Simple_types@VCUnitStore@xlslib_core@@@std@@@std@@@std@@QEBA_NAEBV01@@Z 0000000180021d80 f i datast.obj
 0001:00020d80       ??9?$_Vector_const_iterator@V?$_Vector_val@U?$_Simple_types@PEAUstyle_t@xlslib_core@@@std@@@std@@@std@@QEBA_NAEBV01@@Z 0000000180021d80 f i globalrec.obj
 0001:00020d80       ??9?$_Vector_const_iterator@V?$_Vector_val@U?$_Simple_types@PEAVrange@xlslib_core@@@std@@@std@@@std@@QEBA_NAEBV01@@Z 0000000180021d80 f i sheetrec.obj
 0001:00020d80       ??9?$_Vector_const_iterator@V?$_Vector_val@U?$_Simple_types@PEAVboundsheet_t@xlslib_core@@@std@@@std@@@std@@QEBA_NAEBV01@@Z 0000000180021d80 f i datast.obj
 0001:00020d80       ??9?$_Vector_const_iterator@V?$_Vector_val@U?$_Simple_types@PEAVCUnit@xlslib_core@@@std@@@std@@@std@@QEBA_NAEBV01@@Z 0000000180021d80 f i datast.obj
 0001:00020d80       ??9?$_Vector_const_iterator@V?$_Vector_val@U?$_Simple_types@PEAUDataValidation@xlslib_core@@@std@@@std@@@std@@QEBA_NAEBV01@@Z 0000000180021d80 f i sheetrec.obj
 0001:00020d80       ??9?$_Tree_const_iterator@V?$_Tree_val@U?$_Tree_simple_types@PEAVrowheight_t@xlslib_core@@@std@@@std@@@std@@QEBA_NAEBV01@@Z 0000000180021d80 f i sheetrec.obj
 0001:00020d80       ??9?$_Tree_const_iterator@V?$_Tree_val@U?$_Tree_simple_types@PEAUcolinfo_t@xlslib_core@@@std@@@std@@@std@@QEBA_NAEBV01@@Z 0000000180021d80 f i sheetrec.obj
 0001:00020d80       ??9?$_Vector_const_iterator@V?$_Vector_val@U?$_Simple_types@PEBVlabel_t@xlslib_core@@@std@@@std@@@std@@QEBA_NAEBV01@@Z 0000000180021d80 f i datast.obj
 0001:00020d80       ??9?$_String_const_iterator@V?$_String_val@U?$_Simple_types@D@std@@@std@@@std@@QEBA_NAEBV01@@Z 0000000180021d80 f i globalrec.obj
 0001:00020d80       ??9?$_Tree_const_iterator@V?$_Tree_val@U?$_Tree_simple_types@PEAVcell_t@xlslib_core@@@std@@@std@@@std@@QEBA_NAEBV01@@Z 0000000180021d80 f i sheetrec.obj
 0001:00020d80       ??9?$_Vector_const_iterator@V?$_Vector_val@U?$_Simple_types@PEAVfont_t@xlslib_core@@@std@@@std@@@std@@QEBA_NAEBV01@@Z 0000000180021d80 f i globalrec.obj
 0001:00020d90       ??E?$_Vector_const_iterator@V?$_Vector_val@U?$_Simple_types@PEAVrange@xlslib_core@@@std@@@std@@@std@@QEAAAEAV01@XZ 0000000180021d90 f i sheetrec.obj
 0001:00020d90       ??E?$_Vector_iterator@V?$_Vector_val@U?$_Simple_types@PEAVformat_t@xlslib_core@@@std@@@std@@@std@@QEAAAEAV01@XZ 0000000180021d90 f i globalrec.obj
 0001:00020d90       ??E?$_Vector_iterator@V?$_Vector_val@U?$_Simple_types@PEAVformula_t@xlslib_core@@@std@@@std@@@std@@QEAAAEAV01@XZ 0000000180021d90 f i sheetrec.obj
 0001:00020d90       ??E?$_Vector_const_iterator@V?$_Vector_val@U?$_Simple_types@PEAUstyle_t@xlslib_core@@@std@@@std@@@std@@QEAAAEAV01@XZ 0000000180021d90 f i globalrec.obj
 0001:00020d90       ??E?$_Vector_const_iterator@V?$_Vector_val@U?$_Simple_types@PEAVformula_t@xlslib_core@@@std@@@std@@@std@@QEAAAEAV01@XZ 0000000180021d90 f i sheetrec.obj
 0001:00020d90       ??E?$_Vector_iterator@V?$_Vector_val@U?$_Simple_types@PEAVCUnit@xlslib_core@@@std@@@std@@@std@@QEAAAEAV01@XZ 0000000180021d90 f i datast.obj
 0001:00020d90       ??E?$_Vector_iterator@V?$_Vector_val@U?$_Simple_types@PEAVrange@xlslib_core@@@std@@@std@@@std@@QEAAAEAV01@XZ 0000000180021d90 f i sheetrec.obj
 0001:00020d90       ??E?$_Vector_iterator@V?$_Vector_val@U?$_Simple_types@PEAVrange_t@xlslib_core@@@std@@@std@@@std@@QEAAAEAV01@XZ 0000000180021d90 f i sheetrec.obj
 0001:00020d90       ??E?$_Vector_const_iterator@V?$_Vector_val@U?$_Simple_types@PEAVxf_t@xlslib_core@@@std@@@std@@@std@@QEAAAEAV01@XZ 0000000180021d90 f i globalrec.obj
 0001:00020d90       ??E?$_Vector_iterator@V?$_Vector_val@U?$_Simple_types@PEAVxf_t@xlslib_core@@@std@@@std@@@std@@QEAAAEAV01@XZ 0000000180021d90 f i globalrec.obj
 0001:00020d90       ??E?$_Vector_iterator@V?$_Vector_val@U?$_Simple_types@PEAUDataValidation@xlslib_core@@@std@@@std@@@std@@QEAAAEAV01@XZ 0000000180021d90 f i sheetrec.obj
 0001:00020d90       ??E?$_Vector_iterator@V?$_Vector_val@U?$_Simple_types@PEAVCOleProp@xlslib_core@@@std@@@std@@@std@@QEAAAEAV01@XZ 0000000180021d90 f i oledoc.obj
 0001:00020d90       ??E?$_Vector_iterator@V?$_Vector_val@U?$_Simple_types@PEAUHyperLink@xlslib_core@@@std@@@std@@@std@@QEAAAEAV01@XZ 0000000180021d90 f i sheetrec.obj
 0001:00020d90       ??E?$_Vector_const_iterator@V?$_Vector_val@U?$_Simple_types@PEAVboundsheet_t@xlslib_core@@@std@@@std@@@std@@QEAAAEAV01@XZ 0000000180021d90 f i datast.obj
 0001:00020d90       ??E?$_Vector_iterator@V?$_Vector_val@U?$_Simple_types@_K@std@@@std@@@std@@QEAAAEAV01@XZ 0000000180021d90 f i sheetrec.obj
 0001:00020d90       ??E?$_Vector_iterator@V?$_Vector_val@U?$_Simple_types@PEBVlabel_t@xlslib_core@@@std@@@std@@@std@@QEAAAEAV01@XZ 0000000180021d90 f i globalrec.obj
 0001:00020d90       ??E?$_Vector_iterator@V?$_Vector_val@U?$_Simple_types@PEAUstyle_t@xlslib_core@@@std@@@std@@@std@@QEAAAEAV01@XZ 0000000180021d90 f i globalrec.obj
 0001:00020d90       ??E?$_Vector_const_iterator@V?$_Vector_val@U?$_Simple_types@PEBVlabel_t@xlslib_core@@@std@@@std@@@std@@QEAAAEAV01@XZ 0000000180021d90 f i datast.obj
 0001:00020d90       ??E?$_Vector_const_iterator@V?$_Vector_val@U?$_Simple_types@PEAVfont_t@xlslib_core@@@std@@@std@@@std@@QEAAAEAV01@XZ 0000000180021d90 f i globalrec.obj
 0001:00020d90       ??E?$_Vector_const_iterator@V?$_Vector_val@U?$_Simple_types@PEAVformat_t@xlslib_core@@@std@@@std@@@std@@QEAAAEAV01@XZ 0000000180021d90 f i globalrec.obj
 0001:00020d90       ??E?$_Vector_const_iterator@V?$_Vector_val@U?$_Simple_types@PEAUHyperLink@xlslib_core@@@std@@@std@@@std@@QEAAAEAV01@XZ 0000000180021d90 f i sheetrec.obj
 0001:00020d90       ??E?$_Vector_const_iterator@V?$_Vector_val@U?$_Simple_types@PEAVCUnit@xlslib_core@@@std@@@std@@@std@@QEAAAEAV01@XZ 0000000180021d90 f i datast.obj
 0001:00020d90       ??E?$_Vector_const_iterator@V?$_Vector_val@U?$_Simple_types@PEAVworksheet@xlslib_core@@@std@@@std@@@std@@QEAAAEAV01@XZ 0000000180021d90 f i workbook.obj
 0001:00020d90       ??E?$_Vector_iterator@V?$_Vector_val@U?$_Simple_types@PEAVworksheet@xlslib_core@@@std@@@std@@@std@@QEAAAEAV01@XZ 0000000180021d90 f i workbook.obj
 0001:00020d90       ??E?$_Vector_iterator@V?$_Vector_val@U?$_Simple_types@PEAVboundsheet_t@xlslib_core@@@std@@@std@@@std@@QEAAAEAV01@XZ 0000000180021d90 f i globalrec.obj
 0001:00020d90       ??E?$_Vector_const_iterator@V?$_Vector_val@U?$_Simple_types@_K@std@@@std@@@std@@QEAAAEAV01@XZ 0000000180021d90 f i sheetrec.obj
 0001:00020d90       ??E?$_Vector_iterator@V?$_Vector_val@U?$_Simple_types@PEAVfont_t@xlslib_core@@@std@@@std@@@std@@QEAAAEAV01@XZ 0000000180021d90 f i globalrec.obj
 0001:00020d90       ??E?$_Vector_const_iterator@V?$_Vector_val@U?$_Simple_types@PEAUDataValidation@xlslib_core@@@std@@@std@@@std@@QEAAAEAV01@XZ 0000000180021d90 f i sheetrec.obj
 0001:00020d90       ??E?$_Vector_const_iterator@V?$_Vector_val@U?$_Simple_types@PEAVCOleProp@xlslib_core@@@std@@@std@@@std@@QEAAAEAV01@XZ 0000000180021d90 f i oledoc.obj
 0001:00020d90       ??E?$_Vector_const_iterator@V?$_Vector_val@U?$_Simple_types@PEAVrange_t@xlslib_core@@@std@@@std@@@std@@QEAAAEAV01@XZ 0000000180021d90 f i sheetrec.obj
 0001:00020da0       ??D?$_Vector_const_iterator@V?$_Vector_val@U?$_Simple_types@PEBVlabel_t@xlslib_core@@@std@@@std@@@std@@QEBAAEBQEBVlabel_t@xlslib_core@@XZ 0000000180021da0 f i datast.obj
 0001:00020da0       ??D?$_Vector_const_iterator@V?$_Vector_val@U?$_Simple_types@PEAUstyle_t@xlslib_core@@@std@@@std@@@std@@QEBAAEBQEAUstyle_t@xlslib_core@@XZ 0000000180021da0 f i globalrec.obj
 0001:00020da0       ??D?$_Vector_iterator@V?$_Vector_val@U?$_Simple_types@PEAUDataValidation@xlslib_core@@@std@@@std@@@std@@QEBAAEAPEAUDataValidation@xlslib_core@@XZ 0000000180021da0 f i sheetrec.obj
 0001:00020da0       ?_Lmost@?$_Tree@V?$_Tset_traits@PEAVrowheight_t@xlslib_core@@Vrowheightsort@2@V?$allocator@PEAVrowheight_t@xlslib_core@@@std@@$0A@@std@@@std@@IEBAAEAPEAU?$_Tree_node@PEAVrowheight_t@xlslib_core@@PEAX@2@XZ 0000000180021da0 f i sheetrec.obj
 0001:00020da0       ??D?$_Vector_iterator@V?$_Vector_val@U?$_Simple_types@PEAUstyle_t@xlslib_core@@@std@@@std@@@std@@QEBAAEAPEAUstyle_t@xlslib_core@@XZ 0000000180021da0 f i globalrec.obj
 0001:00020da0       ??D?$_Vector_const_iterator@V?$_Vector_val@U?$_Simple_types@PEAVCOleProp@xlslib_core@@@std@@@std@@@std@@QEBAAEBQEAVCOleProp@xlslib_core@@XZ 0000000180021da0 f i oledoc.obj
 0001:00020da0       ??D?$_Vector_iterator@V?$_Vector_val@U?$_Simple_types@PEBVlabel_t@xlslib_core@@@std@@@std@@@std@@QEBAAEAPEBVlabel_t@xlslib_core@@XZ 0000000180021da0 f i globalrec.obj
 0001:00020da0       ?_Mynode@?$_Tree_unchecked_const_iterator@V?$_Tree_val@U?$_Tree_simple_types@PEAUcolinfo_t@xlslib_core@@@std@@@std@@U_Iterator_base0@2@@std@@QEBAPEAU?$_Tree_node@PEAUcolinfo_t@xlslib_core@@PEAX@2@XZ 0000000180021da0 f i sheetrec.obj
 0001:00020da0       ??D?$_Vector_iterator@V?$_Vector_val@U?$_Simple_types@PEAVCOleProp@xlslib_core@@@std@@@std@@@std@@QEBAAEAPEAVCOleProp@xlslib_core@@XZ 0000000180021da0 f i oledoc.obj
 0001:00020da0       ?_Mynode@?$_Tree_unchecked_const_iterator@V?$_Tree_val@U?$_Tree_simple_types@U?$pair@PEAVxf_t@xlslib_core@@UborderedXft@2@@std@@@std@@@std@@U_Iterator_base0@2@@std@@QEBAPEAU?$_Tree_node@U?$pair@PEAVxf_t@xlslib_core@@UborderedXft@2@@std@@PEAX@2@XZ 0000000180021da0 f i range.obj
 0001:00020da0       ??D?$_Vector_const_iterator@V?$_Vector_val@U?$_Simple_types@PEAVfont_t@xlslib_core@@@std@@@std@@@std@@QEBAAEBQEAVfont_t@xlslib_core@@XZ 0000000180021da0 f i globalrec.obj
 0001:00020da0       ?_Unchecked@?$_Vector_iterator@V?$_Vector_val@U?$_Simple_types@PEAVCOleProp@xlslib_core@@@std@@@std@@@std@@QEBAPEAPEAVCOleProp@xlslib_core@@XZ 0000000180021da0 f i olefs.obj
 0001:00020da0       ??D?$_Vector_const_iterator@V?$_Vector_val@U?$_Simple_types@PEAVrange_t@xlslib_core@@@std@@@std@@@std@@QEBAAEBQEAVrange_t@xlslib_core@@XZ 0000000180021da0 f i sheetrec.obj
 0001:00020da0       ??D?$_Vector_const_iterator@V?$_Vector_val@U?$_Simple_types@PEAVformula_t@xlslib_core@@@std@@@std@@@std@@QEBAAEBQEAVformula_t@xlslib_core@@XZ 0000000180021da0 f i sheetrec.obj
 0001:00020da0       ??D?$_Vector_iterator@V?$_Vector_val@U?$_Simple_types@PEAUHyperLink@xlslib_core@@@std@@@std@@@std@@QEBAAEAPEAUHyperLink@xlslib_core@@XZ 0000000180021da0 f i sheetrec.obj
 0001:00020da0       ??D?$_Vector_const_iterator@V?$_Vector_val@U?$_Simple_types@VCUnitStore@xlslib_core@@@std@@@std@@@std@@QEBAAEBVCUnitStore@xlslib_core@@XZ 0000000180021da0 f i datast.obj
 0001:00020da0       ??D?$_Vector_iterator@V?$_Vector_val@U?$_Simple_types@PEAVrange_t@xlslib_core@@@std@@@std@@@std@@QEBAAEAPEAVrange_t@xlslib_core@@XZ 0000000180021da0 f i sheetrec.obj
 0001:00020da0       ??D?$_Vector_iterator@V?$_Vector_val@U?$_Simple_types@PEAVfont_t@xlslib_core@@@std@@@std@@@std@@QEBAAEAPEAVfont_t@xlslib_core@@XZ 0000000180021da0 f i globalrec.obj
 0001:00020da0       ??D?$_Vector_iterator@V?$_Vector_val@U?$_Simple_types@PEAVrange@xlslib_core@@@std@@@std@@@std@@QEBAAEAPEAVrange@xlslib_core@@XZ 0000000180021da0 f i sheetrec.obj
 0001:00020da0       ??D?$_Vector_iterator@V?$_Vector_val@U?$_Simple_types@VCUnitStore@xlslib_core@@@std@@@std@@@std@@QEBAAEAVCUnitStore@xlslib_core@@XZ 0000000180021da0 f i datast.obj
 0001:00020da0       ?_Mynode@?$_Tree_unchecked_const_iterator@V?$_Tree_val@U?$_Tree_simple_types@PEAVrowheight_t@xlslib_core@@@std@@@std@@U_Iterator_base0@2@@std@@QEBAPEAU?$_Tree_node@PEAVrowheight_t@xlslib_core@@PEAX@2@XZ 0000000180021da0 f i sheetrec.obj
 0001:00020da0       ??D?$_Vector_iterator@V?$_Vector_val@U?$_Simple_types@_K@std@@@std@@@std@@QEBAAEA_KXZ 0000000180021da0 f i sheetrec.obj
 0001:00020da0       ??D?$_Vector_const_iterator@V?$_Vector_val@U?$_Simple_types@PEAVrange@xlslib_core@@@std@@@std@@@std@@QEBAAEBQEAVrange@xlslib_core@@XZ 0000000180021da0 f i sheetrec.obj
 0001:00020da0       ??D?$_Vector_const_iterator@V?$_Vector_val@U?$_Simple_types@PEAVxf_t@xlslib_core@@@std@@@std@@@std@@QEBAAEBQEAVxf_t@xlslib_core@@XZ 0000000180021da0 f i globalrec.obj
 0001:00020da0       ?_Lmost@?$_Tree@V?$_Tset_traits@U?$pair@PEAVxf_t@xlslib_core@@UborderedXft@2@@std@@VxfSorter@xlslib_core@@V?$allocator@U?$pair@PEAVxf_t@xlslib_core@@UborderedXft@2@@std@@@2@$0A@@std@@@std@@IEBAAEAPEAU?$_Tree_node@U?$pair@PEAVxf_t@xlslib_core@@UborderedXft@2@@std@@PEAX@2@XZ 0000000180021da0 f i range.obj
 0001:00020da0       ??D?$_Vector_iterator@V?$_Vector_val@U?$_Simple_types@Urowblocksize_t@xlslib_core@@@std@@@std@@@std@@QEBAAEAUrowblocksize_t@xlslib_core@@XZ 0000000180021da0 f i sheetrec.obj
 0001:00020da0       ??D?$_String_const_iterator@V?$_String_val@U?$_Simple_types@_S@std@@@std@@@std@@QEBAAEB_SXZ 0000000180021da0 f i globalrec.obj
 0001:00020da0       ??D?$_Vector_const_iterator@V?$_Vector_val@U?$_Simple_types@PEAVCUnit@xlslib_core@@@std@@@std@@@std@@QEBAAEBQEAVCUnit@xlslib_core@@XZ 0000000180021da0 f i datast.obj
 0001:00020da0       ?_Unchecked@?$_Vector_iterator@V?$_Vector_val@U?$_Simple_types@VCUnitStore@xlslib_core@@@std@@@std@@@std@@QEBAPEAVCUnitStore@xlslib_core@@XZ 0000000180021da0 f i datast.obj
 0001:00020da0       ??D?$_Vector_const_iterator@V?$_Vector_val@U?$_Simple_types@PEAUHyperLink@xlslib_core@@@std@@@std@@@std@@QEBAAEBQEAUHyperLink@xlslib_core@@XZ 0000000180021da0 f i sheetrec.obj
 0001:00020da0       ??D?$_Vector_const_iterator@V?$_Vector_val@U?$_Simple_types@_K@std@@@std@@@std@@QEBAAEB_KXZ 0000000180021da0 f i sheetrec.obj
 0001:00020da0       ?_Lmost@?$_Tree@V?$_Tset_traits@PEAVcell_t@xlslib_core@@Vinsertsort@2@V?$allocator@PEAVcell_t@xlslib_core@@@std@@$0A@@std@@@std@@IEBAAEAPEAU?$_Tree_node@PEAVcell_t@xlslib_core@@PEAX@2@XZ 0000000180021da0 f i sheetrec.obj
 0001:00020da0       ?_Lmost@?$_Tree@V?$_Tset_traits@PEAVHPSFitem@xlslib_core@@Vinsertsort2@2@V?$allocator@PEAVHPSFitem@xlslib_core@@@std@@$0A@@std@@@std@@IEBAAEAPEAU?$_Tree_node@PEAVHPSFitem@xlslib_core@@PEAX@2@XZ 0000000180021da0 f i HPSF.obj
 0001:00020da0       ??D?$_Vector_const_iterator@V?$_Vector_val@U?$_Simple_types@PEAVformat_t@xlslib_core@@@std@@@std@@@std@@QEBAAEBQEAVformat_t@xlslib_core@@XZ 0000000180021da0 f i globalrec.obj
 0001:00020da0       ??D?$_Vector_const_iterator@V?$_Vector_val@U?$_Simple_types@PEAVboundsheet_t@xlslib_core@@@std@@@std@@@std@@QEBAAEBQEAVboundsheet_t@xlslib_core@@XZ 0000000180021da0 f i datast.obj
 0001:00020da0       ??D?$_Vector_const_iterator@V?$_Vector_val@U?$_Simple_types@PEAVworksheet@xlslib_core@@@std@@@std@@@std@@QEBAAEBQEAVworksheet@xlslib_core@@XZ 0000000180021da0 f i workbook.obj
 0001:00020da0       ??D?$_Vector_iterator@V?$_Vector_val@U?$_Simple_types@PEAVformula_t@xlslib_core@@@std@@@std@@@std@@QEBAAEAPEAVformula_t@xlslib_core@@XZ 0000000180021da0 f i sheetrec.obj
 0001:00020da0       ??D?$_Vector_const_iterator@V?$_Vector_val@U?$_Simple_types@PEAUDataValidation@xlslib_core@@@std@@@std@@@std@@QEBAAEBQEAUDataValidation@xlslib_core@@XZ 0000000180021da0 f i sheetrec.obj
 0001:00020da0       ??D?$_String_iterator@V?$_String_val@U?$_Simple_types@D@std@@@std@@@std@@QEBAAEADXZ 0000000180021da0 f i binfile.obj
 0001:00020da0       ??D?$_Vector_iterator@V?$_Vector_val@U?$_Simple_types@PEAVCUnit@xlslib_core@@@std@@@std@@@std@@QEBAAEAPEAVCUnit@xlslib_core@@XZ 0000000180021da0 f i datast.obj
 0001:00020da0       ??D?$_Vector_iterator@V?$_Vector_val@U?$_Simple_types@PEAVworksheet@xlslib_core@@@std@@@std@@@std@@QEBAAEAPEAVworksheet@xlslib_core@@XZ 0000000180021da0 f i workbook.obj
 0001:00020da0       ?_Mynode@?$_Tree_unchecked_const_iterator@V?$_Tree_val@U?$_Tree_simple_types@PEAVcell_t@xlslib_core@@@std@@@std@@U_Iterator_base0@2@@std@@QEBAPEAU?$_Tree_node@PEAVcell_t@xlslib_core@@PEAX@2@XZ 0000000180021da0 f i sheetrec.obj
 0001:00020da0       ?_Mynode@?$_List_unchecked_const_iterator@V?$_List_val@U?$_List_simple_types@PEAV?$basic_string@DU?$char_traits@D@std@@V?$allocator@D@2@@std@@@std@@@std@@U_Iterator_base0@2@@std@@QEBAPEAU?$_List_node@PEAV?$basic_string@DU?$char_traits@D@std@@V?$allocator@D@2@@std@@PEAX@2@XZ 0000000180021da0 f i olefs.obj
 0001:00020da0       ??C?$_Vector_iterator@V?$_Vector_val@U?$_Simple_types@VCUnitStore@xlslib_core@@@std@@@std@@@std@@QEBAPEAVCUnitStore@xlslib_core@@XZ 0000000180021da0 f i datast.obj
 0001:00020da0       ??D?$_String_const_iterator@V?$_String_val@U?$_Simple_types@D@std@@@std@@@std@@QEBAAEBDXZ 0000000180021da0 f i globalrec.obj
 0001:00020da0       ??D?$_Vector_iterator@V?$_Vector_val@U?$_Simple_types@PEAVboundsheet_t@xlslib_core@@@std@@@std@@@std@@QEBAAEAPEAVboundsheet_t@xlslib_core@@XZ 0000000180021da0 f i globalrec.obj
 0001:00020da0       ??D?$_Vector_iterator@V?$_Vector_val@U?$_Simple_types@PEAVformat_t@xlslib_core@@@std@@@std@@@std@@QEBAAEAPEAVformat_t@xlslib_core@@XZ 0000000180021da0 f i globalrec.obj
 0001:00020da0       ??D?$_Vector_const_iterator@V?$_Vector_val@U?$_Simple_types@Urowblocksize_t@xlslib_core@@@std@@@std@@@std@@QEBAAEBUrowblocksize_t@xlslib_core@@XZ 0000000180021da0 f i sheetrec.obj
 0001:00020da0       ?_Lmost@?$_Tree@V?$_Tset_traits@PEAUcolinfo_t@xlslib_core@@Vcolinfosort@2@V?$allocator@PEAUcolinfo_t@xlslib_core@@@std@@$0A@@std@@@std@@IEBAAEAPEAU?$_Tree_node@PEAUcolinfo_t@xlslib_core@@PEAX@2@XZ 0000000180021da0 f i sheetrec.obj
 0001:00020da0       ??D?$_Vector_iterator@V?$_Vector_val@U?$_Simple_types@PEAVxf_t@xlslib_core@@@std@@@std@@@std@@QEBAAEAPEAVxf_t@xlslib_core@@XZ 0000000180021da0 f i globalrec.obj
 0001:00020da0       ?_Mynode@?$_Tree_unchecked_const_iterator@V?$_Tree_val@U?$_Tree_simple_types@PEAVHPSFitem@xlslib_core@@@std@@@std@@U_Iterator_base0@2@@std@@QEBAPEAU?$_Tree_node@PEAVHPSFitem@xlslib_core@@PEAX@2@XZ 0000000180021da0 f i HPSF.obj
 0001:00020db0       ?end@?$_Tree@V?$_Tset_traits@PEAUcolinfo_t@xlslib_core@@Vcolinfosort@2@V?$allocator@PEAUcolinfo_t@xlslib_core@@@std@@$0A@@std@@@std@@QEAA?AV?$_Tree_const_iterator@V?$_Tree_val@U?$_Tree_simple_types@PEAUcolinfo_t@xlslib_core@@@std@@@std@@@2@XZ 0000000180021db0 f i sheetrec.obj
 0001:00020db0       ?begin@?$vector@VCUnitStore@xlslib_core@@V?$allocator@VCUnitStore@xlslib_core@@@std@@@std@@QEAA?AV?$_Vector_iterator@V?$_Vector_val@U?$_Simple_types@VCUnitStore@xlslib_core@@@std@@@std@@@2@XZ 0000000180021db0 f i datast.obj
 0001:00020db0       ?end@?$_Tree@V?$_Tset_traits@PEAVrowheight_t@xlslib_core@@Vrowheightsort@2@V?$allocator@PEAVrowheight_t@xlslib_core@@@std@@$0A@@std@@@std@@QEAA?AV?$_Tree_const_iterator@V?$_Tree_val@U?$_Tree_simple_types@PEAVrowheight_t@xlslib_core@@@std@@@std@@@2@XZ 0000000180021db0 f i sheetrec.obj
 0001:00020db0       ?begin@?$vector@PEAUHyperLink@xlslib_core@@V?$allocator@PEAUHyperLink@xlslib_core@@@std@@@std@@QEAA?AV?$_Vector_iterator@V?$_Vector_val@U?$_Simple_types@PEAUHyperLink@xlslib_core@@@std@@@std@@@2@XZ 0000000180021db0 f i sheetrec.obj
 0001:00020db0       ?end@?$_Tree@V?$_Tset_traits@PEAVcell_t@xlslib_core@@Vinsertsort@2@V?$allocator@PEAVcell_t@xlslib_core@@@std@@$0A@@std@@@std@@QEAA?AV?$_Tree_const_iterator@V?$_Tree_val@U?$_Tree_simple_types@PEAVcell_t@xlslib_core@@@std@@@std@@@2@XZ 0000000180021db0 f i sheetrec.obj
 0001:00020db0       ?begin@?$vector@PEAVfont_t@xlslib_core@@V?$allocator@PEAVfont_t@xlslib_core@@@std@@@std@@QEAA?AV?$_Vector_iterator@V?$_Vector_val@U?$_Simple_types@PEAVfont_t@xlslib_core@@@std@@@std@@@2@XZ 0000000180021db0 f i globalrec.obj
 0001:00020db0       ?begin@?$vector@PEAVfont_t@xlslib_core@@V?$allocator@PEAVfont_t@xlslib_core@@@std@@@std@@QEBA?AV?$_Vector_const_iterator@V?$_Vector_val@U?$_Simple_types@PEAVfont_t@xlslib_core@@@std@@@std@@@2@XZ 0000000180021db0 f i globalrec.obj
 0001:00020db0       ?end@?$_Tree@V?$_Tset_traits@PEAVHPSFitem@xlslib_core@@Vinsertsort2@2@V?$allocator@PEAVHPSFitem@xlslib_core@@@std@@$0A@@std@@@std@@QEBA?AV?$_Tree_const_iterator@V?$_Tree_val@U?$_Tree_simple_types@PEAVHPSFitem@xlslib_core@@@std@@@std@@@2@XZ 0000000180021db0 f i HPSF.obj
 0001:00020db0       ?begin@?$vector@PEBVlabel_t@xlslib_core@@V?$allocator@PEBVlabel_t@xlslib_core@@@std@@@std@@QEAA?AV?$_Vector_iterator@V?$_Vector_val@U?$_Simple_types@PEBVlabel_t@xlslib_core@@@std@@@std@@@2@XZ 0000000180021db0 f i globalrec.obj
 0001:00020db0       ?begin@?$vector@PEAVCOleProp@xlslib_core@@V?$allocator@PEAVCOleProp@xlslib_core@@@std@@@std@@QEAA?AV?$_Vector_iterator@V?$_Vector_val@U?$_Simple_types@PEAVCOleProp@xlslib_core@@@std@@@std@@@2@XZ 0000000180021db0 f i oledoc.obj
 0001:00020db0       ?begin@?$vector@PEAVworksheet@xlslib_core@@V?$allocator@PEAVworksheet@xlslib_core@@@std@@@std@@QEAA?AV?$_Vector_iterator@V?$_Vector_val@U?$_Simple_types@PEAVworksheet@xlslib_core@@@std@@@std@@@2@XZ 0000000180021db0 f i workbook.obj
 0001:00020db0       ?end@?$_Tree@V?$_Tset_traits@U?$pair@PEAVxf_t@xlslib_core@@UborderedXft@2@@std@@VxfSorter@xlslib_core@@V?$allocator@U?$pair@PEAVxf_t@xlslib_core@@UborderedXft@2@@std@@@2@$0A@@std@@@std@@QEAA?AV?$_Tree_const_iterator@V?$_Tree_val@U?$_Tree_simple_types@U?$pair@PEAVxf_t@xlslib_core@@UborderedXft@2@@std@@@std@@@std@@@2@XZ 0000000180021db0 f i range.obj
 0001:00020db0       ?begin@?$vector@PEAVformula_t@xlslib_core@@V?$allocator@PEAVformula_t@xlslib_core@@@std@@@std@@QEAA?AV?$_Vector_iterator@V?$_Vector_val@U?$_Simple_types@PEAVformula_t@xlslib_core@@@std@@@std@@@2@XZ 0000000180021db0 f i sheetrec.obj
 0001:00020db0       ?_Unchecked_end@?$list@PEAV?$basic_string@DU?$char_traits@D@std@@V?$allocator@D@2@@std@@V?$allocator@PEAV?$basic_string@DU?$char_traits@D@std@@V?$allocator@D@2@@std@@@2@@std@@QEAA?AV?$_List_unchecked_iterator@V?$_List_val@U?$_List_simple_types@PEAV?$basic_string@DU?$char_traits@D@std@@V?$allocator@D@2@@std@@@std@@@std@@@2@XZ 0000000180021db0 f i olefs.obj
 0001:00020db0       ?begin@?$vector@PEAVformat_t@xlslib_core@@V?$allocator@PEAVformat_t@xlslib_core@@@std@@@std@@QEAA?AV?$_Vector_iterator@V?$_Vector_val@U?$_Simple_types@PEAVformat_t@xlslib_core@@@std@@@std@@@2@XZ 0000000180021db0 f i globalrec.obj
 0001:00020db0       ?begin@?$vector@PEAVrange_t@xlslib_core@@V?$allocator@PEAVrange_t@xlslib_core@@@std@@@std@@QEAA?AV?$_Vector_iterator@V?$_Vector_val@U?$_Simple_types@PEAVrange_t@xlslib_core@@@std@@@std@@@2@XZ 0000000180021db0 f i sheetrec.obj
 0001:00020db0       ?begin@?$vector@Urowblocksize_t@xlslib_core@@V?$allocator@Urowblocksize_t@xlslib_core@@@std@@@std@@QEAA?AV?$_Vector_iterator@V?$_Vector_val@U?$_Simple_types@Urowblocksize_t@xlslib_core@@@std@@@std@@@2@XZ 0000000180021db0 f i sheetrec.obj
 0001:00020db0       ?end@?$_Tree@V?$_Tset_traits@PEAVcell_t@xlslib_core@@Vinsertsort@2@V?$allocator@PEAVcell_t@xlslib_core@@@std@@$0A@@std@@@std@@QEBA?AV?$_Tree_const_iterator@V?$_Tree_val@U?$_Tree_simple_types@PEAVcell_t@xlslib_core@@@std@@@std@@@2@XZ 0000000180021db0 f i sheetrec.obj
 0001:00020db0       ?begin@?$vector@PEAUDataValidation@xlslib_core@@V?$allocator@PEAUDataValidation@xlslib_core@@@std@@@std@@QEAA?AV?$_Vector_iterator@V?$_Vector_val@U?$_Simple_types@PEAUDataValidation@xlslib_core@@@std@@@std@@@2@XZ 0000000180021db0 f i sheetrec.obj
 0001:00020db0       ?begin@?$vector@_KV?$allocator@_K@std@@@std@@QEAA?AV?$_Vector_iterator@V?$_Vector_val@U?$_Simple_types@_K@std@@@std@@@2@XZ 0000000180021db0 f i sheetrec.obj
 0001:00020db0       ?begin@?$vector@PEBVlabel_t@xlslib_core@@V?$allocator@PEBVlabel_t@xlslib_core@@@std@@@std@@QEBA?AV?$_Vector_const_iterator@V?$_Vector_val@U?$_Simple_types@PEBVlabel_t@xlslib_core@@@std@@@std@@@2@XZ 0000000180021db0 f i datast.obj
 0001:00020db0       ?begin@?$vector@PEAVboundsheet_t@xlslib_core@@V?$allocator@PEAVboundsheet_t@xlslib_core@@@std@@@std@@QEAA?AV?$_Vector_iterator@V?$_Vector_val@U?$_Simple_types@PEAVboundsheet_t@xlslib_core@@@std@@@std@@@2@XZ 0000000180021db0 f i globalrec.obj
 0001:00020db0       ?begin@?$vector@PEAVxf_t@xlslib_core@@V?$allocator@PEAVxf_t@xlslib_core@@@std@@@std@@QEAA?AV?$_Vector_iterator@V?$_Vector_val@U?$_Simple_types@PEAVxf_t@xlslib_core@@@std@@@std@@@2@XZ 0000000180021db0 f i globalrec.obj
 0001:00020db0       ?begin@?$vector@PEAVrange@xlslib_core@@V?$allocator@PEAVrange@xlslib_core@@@std@@@std@@QEAA?AV?$_Vector_iterator@V?$_Vector_val@U?$_Simple_types@PEAVrange@xlslib_core@@@std@@@std@@@2@XZ 0000000180021db0 f i sheetrec.obj
 0001:00020db0       ?end@?$list@PEAV?$basic_string@DU?$char_traits@D@std@@V?$allocator@D@2@@std@@V?$allocator@PEAV?$basic_string@DU?$char_traits@D@std@@V?$allocator@D@2@@std@@@2@@std@@QEAA?AV?$_List_iterator@V?$_List_val@U?$_List_simple_types@PEAV?$basic_string@DU?$char_traits@D@std@@V?$allocator@D@2@@std@@@std@@@std@@@2@XZ 0000000180021db0 f i olefs.obj
 0001:00020db0       ?begin@?$vector@PEAVboundsheet_t@xlslib_core@@V?$allocator@PEAVboundsheet_t@xlslib_core@@@std@@@std@@QEBA?AV?$_Vector_const_iterator@V?$_Vector_val@U?$_Simple_types@PEAVboundsheet_t@xlslib_core@@@std@@@std@@@2@XZ 0000000180021db0 f i datast.obj
 0001:00020db0       ?begin@?$vector@PEAVCUnit@xlslib_core@@V?$allocator@PEAVCUnit@xlslib_core@@@std@@@std@@QEAA?AV?$_Vector_iterator@V?$_Vector_val@U?$_Simple_types@PEAVCUnit@xlslib_core@@@std@@@std@@@2@XZ 0000000180021db0 f i datast.obj
 0001:00020db0       ?end@?$_Tree@V?$_Tset_traits@PEAVHPSFitem@xlslib_core@@Vinsertsort2@2@V?$allocator@PEAVHPSFitem@xlslib_core@@@std@@$0A@@std@@@std@@QEAA?AV?$_Tree_const_iterator@V?$_Tree_val@U?$_Tree_simple_types@PEAVHPSFitem@xlslib_core@@@std@@@std@@@2@XZ 0000000180021db0 f i HPSF.obj
 0001:00020db0       ?begin@?$vector@PEAUstyle_t@xlslib_core@@V?$allocator@PEAUstyle_t@xlslib_core@@@std@@@std@@QEAA?AV?$_Vector_iterator@V?$_Vector_val@U?$_Simple_types@PEAUstyle_t@xlslib_core@@@std@@@std@@@2@XZ 0000000180021db0 f i globalrec.obj
 0001:00020dc0       ??G?$_Vector_const_iterator@V?$_Vector_val@U?$_Simple_types@PEAVCUnit@xlslib_core@@@std@@@std@@@std@@QEBA_JAEBV01@@Z 0000000180021dc0 f i datast.obj
 0001:00020dc0       ??G?$_Vector_iterator@V?$_Vector_val@U?$_Simple_types@PEAVCUnit@xlslib_core@@@std@@@std@@@std@@QEBA_JAEBV?$_Vector_const_iterator@V?$_Vector_val@U?$_Simple_types@PEAVCUnit@xlslib_core@@@std@@@std@@@1@@Z 0000000180021dc0 f i datast.obj
 0001:00020dc0       ??G?$_Vector_iterator@V?$_Vector_val@U?$_Simple_types@PEAVrange_t@xlslib_core@@@std@@@std@@@std@@QEBA_JAEBV?$_Vector_const_iterator@V?$_Vector_val@U?$_Simple_types@PEAVrange_t@xlslib_core@@@std@@@std@@@1@@Z 0000000180021dc0 f i sheetrec.obj
 0001:00020dc0       ??G?$_Vector_const_iterator@V?$_Vector_val@U?$_Simple_types@PEAVrange_t@xlslib_core@@@std@@@std@@@std@@QEBA_JAEBV01@@Z 0000000180021dc0 f i sheetrec.obj
 0001:00020dd0       ??H?$_Vector_iterator@V?$_Vector_val@U?$_Simple_types@PEAVCUnit@xlslib_core@@@std@@@std@@@std@@QEBA?AV01@_J@Z 0000000180021dd0 f i datast.obj
 0001:00020de0       ??F?$_Vector_iterator@V?$_Vector_val@U?$_Simple_types@PEAVCOleProp@xlslib_core@@@std@@@std@@@std@@QEAA?AV01@H@Z 0000000180021de0 f i olefs.obj
 0001:00020de0       ??F?$_Vector_iterator@V?$_Vector_val@U?$_Simple_types@PEAVCUnit@xlslib_core@@@std@@@std@@@std@@QEAA?AV01@H@Z 0000000180021de0 f i datast.obj
 0001:00020de0       ??F?$_Vector_iterator@V?$_Vector_val@U?$_Simple_types@PEAVxf_t@xlslib_core@@@std@@@std@@@std@@QEAA?AV01@H@Z 0000000180021de0 f i globalrec.obj
 0001:00020e00       ??E?$_Vector_iterator@V?$_Vector_val@U?$_Simple_types@PEAVfont_t@xlslib_core@@@std@@@std@@@std@@QEAA?AV01@H@Z 0000000180021e00 f i globalrec.obj
 0001:00020e00       ??E?$_Vector_iterator@V?$_Vector_val@U?$_Simple_types@PEAUHyperLink@xlslib_core@@@std@@@std@@@std@@QEAA?AV01@H@Z 0000000180021e00 f i sheetrec.obj
 0001:00020e00       ??E?$_Vector_iterator@V?$_Vector_val@U?$_Simple_types@PEAVCUnit@xlslib_core@@@std@@@std@@@std@@QEAA?AV01@H@Z 0000000180021e00 f i datast.obj
 0001:00020e00       ??E?$_Vector_iterator@V?$_Vector_val@U?$_Simple_types@_K@std@@@std@@@std@@QEAA?AV01@H@Z 0000000180021e00 f i sheetrec.obj
 0001:00020e00       ??E?$_Vector_iterator@V?$_Vector_val@U?$_Simple_types@PEAVboundsheet_t@xlslib_core@@@std@@@std@@@std@@QEAA?AV01@H@Z 0000000180021e00 f i globalrec.obj
 0001:00020e00       ??E?$_Vector_iterator@V?$_Vector_val@U?$_Simple_types@PEAVCOleProp@xlslib_core@@@std@@@std@@@std@@QEAA?AV01@H@Z 0000000180021e00 f i oledoc.obj
 0001:00020e00       ??E?$_Vector_iterator@V?$_Vector_val@U?$_Simple_types@PEAVformula_t@xlslib_core@@@std@@@std@@@std@@QEAA?AV01@H@Z 0000000180021e00 f i sheetrec.obj
 0001:00020e00       ??E?$_Vector_iterator@V?$_Vector_val@U?$_Simple_types@PEAUstyle_t@xlslib_core@@@std@@@std@@@std@@QEAA?AV01@H@Z 0000000180021e00 f i globalrec.obj
 0001:00020e00       ??E?$_Vector_iterator@V?$_Vector_val@U?$_Simple_types@PEAVformat_t@xlslib_core@@@std@@@std@@@std@@QEAA?AV01@H@Z 0000000180021e00 f i globalrec.obj
 0001:00020e00       ??E?$_Vector_iterator@V?$_Vector_val@U?$_Simple_types@PEAVrange_t@xlslib_core@@@std@@@std@@@std@@QEAA?AV01@H@Z 0000000180021e00 f i sheetrec.obj
 0001:00020e00       ??E?$_Vector_iterator@V?$_Vector_val@U?$_Simple_types@PEAVxf_t@xlslib_core@@@std@@@std@@@std@@QEAA?AV01@H@Z 0000000180021e00 f i globalrec.obj
 0001:00020e00       ??E?$_Vector_iterator@V?$_Vector_val@U?$_Simple_types@PEAVrange@xlslib_core@@@std@@@std@@@std@@QEAA?AV01@H@Z 0000000180021e00 f i sheetrec.obj
 0001:00020e00       ??E?$_Vector_iterator@V?$_Vector_val@U?$_Simple_types@PEAUDataValidation@xlslib_core@@@std@@@std@@@std@@QEAA?AV01@H@Z 0000000180021e00 f i sheetrec.obj
 0001:00020e20       ?push_back@?$vector@PEAVCUnit@xlslib_core@@V?$allocator@PEAVCUnit@xlslib_core@@@std@@@std@@QEAAXAEBQEAVCUnit@xlslib_core@@@Z 0000000180021e20 f i datast.obj
 0001:00020eb0       ?resize@?$vector@PEAVCUnit@xlslib_core@@V?$allocator@PEAVCUnit@xlslib_core@@@std@@@std@@QEAAX_K@Z 0000000180021eb0 f i datast.obj
 0001:00020fa0       ??E?$_Vector_const_iterator@V?$_Vector_val@U?$_Simple_types@VCUnitStore@xlslib_core@@@std@@@std@@@std@@QEAAAEAV01@XZ 0000000180021fa0 f i datast.obj
 0001:00020fa0       ??E?$_Vector_iterator@V?$_Vector_val@U?$_Simple_types@VCUnitStore@xlslib_core@@@std@@@std@@@std@@QEAAAEAV01@XZ 0000000180021fa0 f i datast.obj
 0001:00020fb0       ??A?$vector@VCUnitStore@xlslib_core@@V?$allocator@VCUnitStore@xlslib_core@@@std@@@std@@QEAAAEAVCUnitStore@xlslib_core@@_K@Z 0000000180021fb0 f i datast.obj
 0001:00020fb0       ??A?$vector@V?$basic_string@_WU?$char_traits@_W@std@@V?$allocator@_W@2@@std@@V?$allocator@V?$basic_string@_WU?$char_traits@_W@std@@V?$allocator@_W@2@@std@@@2@@std@@QEBAAEBV?$basic_string@_WU?$char_traits@_W@std@@V?$allocator@_W@2@@1@_K@Z 0000000180021fb0 f i formula.obj
 0001:00020fb0       ??A?$vector@V?$basic_string@DU?$char_traits@D@std@@V?$allocator@D@2@@std@@V?$allocator@V?$basic_string@DU?$char_traits@D@std@@V?$allocator@D@2@@std@@@2@@std@@QEBAAEBV?$basic_string@DU?$char_traits@D@std@@V?$allocator@D@2@@1@_K@Z 0000000180021fb0 f i formula.obj
 0001:00020fc0       ?empty@?$vector@PEAVxf_t@xlslib_core@@V?$allocator@PEAVxf_t@xlslib_core@@@std@@@std@@QEBA_NXZ 0000000180021fc0 f i globalrec.obj
 0001:00020fc0       ?empty@?$vector@PEAVformat_t@xlslib_core@@V?$allocator@PEAVformat_t@xlslib_core@@@std@@@std@@QEBA_NXZ 0000000180021fc0 f i globalrec.obj
 0001:00020fc0       ?empty@?$vector@PEAVCOleProp@xlslib_core@@V?$allocator@PEAVCOleProp@xlslib_core@@@std@@@std@@QEBA_NXZ 0000000180021fc0 f i olefs.obj
 0001:00020fc0       ?empty@?$vector@PEAVformula_t@xlslib_core@@V?$allocator@PEAVformula_t@xlslib_core@@@std@@@std@@QEBA_NXZ 0000000180021fc0 f i sheetrec.obj
 0001:00020fc0       ?empty@?$vector@PEAVrange@xlslib_core@@V?$allocator@PEAVrange@xlslib_core@@@std@@@std@@QEBA_NXZ 0000000180021fc0 f i sheetrec.obj
 0001:00020fc0       ?empty@?$vector@PEAUHyperLink@xlslib_core@@V?$allocator@PEAUHyperLink@xlslib_core@@@std@@@std@@QEBA_NXZ 0000000180021fc0 f i sheetrec.obj
 0001:00020fc0       ?empty@?$vector@PEAVrange_t@xlslib_core@@V?$allocator@PEAVrange_t@xlslib_core@@@std@@@std@@QEBA_NXZ 0000000180021fc0 f i sheetrec.obj
 0001:00020fc0       ?empty@?$vector@VCUnitStore@xlslib_core@@V?$allocator@VCUnitStore@xlslib_core@@@std@@@std@@QEBA_NXZ 0000000180021fc0 f i datast.obj
 0001:00020fc0       ?empty@?$vector@PEAVboundsheet_t@xlslib_core@@V?$allocator@PEAVboundsheet_t@xlslib_core@@@std@@@std@@QEBA_NXZ 0000000180021fc0 f i globalrec.obj
 0001:00020fc0       ?empty@?$vector@PEAVworksheet@xlslib_core@@V?$allocator@PEAVworksheet@xlslib_core@@@std@@@std@@QEBA_NXZ 0000000180021fc0 f i workbook.obj
 0001:00020fc0       ?empty@?$vector@PEAUDataValidation@xlslib_core@@V?$allocator@PEAUDataValidation@xlslib_core@@@std@@@std@@QEBA_NXZ 0000000180021fc0 f i sheetrec.obj
 0001:00020fc0       ?empty@?$vector@PEAUstyle_t@xlslib_core@@V?$allocator@PEAUstyle_t@xlslib_core@@@std@@@std@@QEBA_NXZ 0000000180021fc0 f i globalrec.obj
 0001:00020fc0       ?empty@?$vector@PEAVfont_t@xlslib_core@@V?$allocator@PEAVfont_t@xlslib_core@@@std@@@std@@QEBA_NXZ 0000000180021fc0 f i globalrec.obj
 0001:00020fc0       ?empty@?$vector@PEBVlabel_t@xlslib_core@@V?$allocator@PEBVlabel_t@xlslib_core@@@std@@@std@@QEBA_NXZ 0000000180021fc0 f i globalrec.obj
 0001:00020fd0       ?resize@?$vector@VCUnitStore@xlslib_core@@V?$allocator@VCUnitStore@xlslib_core@@@std@@@std@@QEAAX_K@Z 0000000180021fd0 f i datast.obj
 0001:00020ff0       ?reserve@?$vector@VCUnitStore@xlslib_core@@V?$allocator@VCUnitStore@xlslib_core@@@std@@@std@@QEAAX_K@Z 0000000180021ff0 f i datast.obj
 0001:00021030       ??1?$vector@VCUnitStore@xlslib_core@@V?$allocator@VCUnitStore@xlslib_core@@@std@@@std@@QEAA@XZ 0000000180022030 f i datast.obj
 0001:00021040       ?insert@?$vector@VCUnitStore@xlslib_core@@V?$allocator@VCUnitStore@xlslib_core@@@std@@@std@@QEAA?AV?$_Vector_iterator@V?$_Vector_val@U?$_Simple_types@VCUnitStore@xlslib_core@@@std@@@std@@@2@V?$_Vector_const_iterator@V?$_Vector_val@U?$_Simple_types@VCUnitStore@xlslib_core@@@std@@@std@@@2@$$QEAVCUnitStore@xlslib_core@@@Z 0000000180022040 f i datast.obj
 0001:00021060       ??4?$basic_string@_SU?$char_traits@_S@std@@V?$allocator@_S@2@@std@@QEAAAEAV01@PEB_S@Z 0000000180022060 f i datast.obj
 0001:00021060       ?assign@?$basic_string@_SU?$char_traits@_S@std@@V?$allocator@_S@2@@std@@QEAAAEAV12@PEB_S@Z 0000000180022060 f i datast.obj
 0001:00021090       ??0?$basic_string@_SU?$char_traits@_S@std@@V?$allocator@_S@2@@std@@QEAA@AEBV01@@Z 0000000180022090 f i datast.obj
 0001:000210c0       ??8?$_Tree_const_iterator@V?$_Tree_val@U?$_Tree_simple_types@PEAUcolinfo_t@xlslib_core@@@std@@@std@@@std@@QEBA_NAEBV01@@Z 00000001800220c0 f i sheetrec.obj
 0001:000210c0       ??8?$_Tree_const_iterator@V?$_Tree_val@U?$_Tree_simple_types@PEAVcell_t@xlslib_core@@@std@@@std@@@std@@QEBA_NAEBV01@@Z 00000001800220c0 f i sheetrec.obj
 0001:000210c0       ??8?$_Vector_const_iterator@V?$_Vector_val@U?$_Simple_types@PEAVrange@xlslib_core@@@std@@@std@@@std@@QEBA_NAEBV01@@Z 00000001800220c0 f i sheetrec.obj
 0001:000210c0       ??8?$_Vector_const_iterator@V?$_Vector_val@U?$_Simple_types@_K@std@@@std@@@std@@QEBA_NAEBV01@@Z 00000001800220c0 f i sheetrec.obj
 0001:000210c0       ??8?$_Vector_const_iterator@V?$_Vector_val@U?$_Simple_types@PEAVboundsheet_t@xlslib_core@@@std@@@std@@@std@@QEBA_NAEBV01@@Z 00000001800220c0 f i datast.obj
 0001:000210c0       ??8?$_Vector_const_iterator@V?$_Vector_val@U?$_Simple_types@PEAUHyperLink@xlslib_core@@@std@@@std@@@std@@QEBA_NAEBV01@@Z 00000001800220c0 f i sheetrec.obj
 0001:000210c0       ??8?$_Vector_const_iterator@V?$_Vector_val@U?$_Simple_types@Urowblocksize_t@xlslib_core@@@std@@@std@@@std@@QEBA_NAEBV01@@Z 00000001800220c0 f i sheetrec.obj
 0001:000210c0       ??8?$_String_const_iterator@V?$_String_val@U?$_Simple_types@_S@std@@@std@@@std@@QEBA_NAEBV01@@Z 00000001800220c0 f i globalrec.obj
 0001:000210c0       ??8?$_Vector_const_iterator@V?$_Vector_val@U?$_Simple_types@PEAVfont_t@xlslib_core@@@std@@@std@@@std@@QEBA_NAEBV01@@Z 00000001800220c0 f i globalrec.obj
 0001:000210c0       ??8?$_Vector_const_iterator@V?$_Vector_val@U?$_Simple_types@PEAVrange_t@xlslib_core@@@std@@@std@@@std@@QEBA_NAEBV01@@Z 00000001800220c0 f i sheetrec.obj
 0001:000210c0       ??8?$_Vector_const_iterator@V?$_Vector_val@U?$_Simple_types@PEAUDataValidation@xlslib_core@@@std@@@std@@@std@@QEBA_NAEBV01@@Z 00000001800220c0 f i sheetrec.obj
 0001:000210c0       ??8?$_Vector_const_iterator@V?$_Vector_val@U?$_Simple_types@PEAVformat_t@xlslib_core@@@std@@@std@@@std@@QEBA_NAEBV01@@Z 00000001800220c0 f i globalrec.obj
 0001:000210c0       ??8?$_Vector_const_iterator@V?$_Vector_val@U?$_Simple_types@VCUnitStore@xlslib_core@@@std@@@std@@@std@@QEBA_NAEBV01@@Z 00000001800220c0 f i datast.obj
 0001:000210c0       ??8?$_Tree_const_iterator@V?$_Tree_val@U?$_Tree_simple_types@U?$pair@PEAVxf_t@xlslib_core@@UborderedXft@2@@std@@@std@@@std@@@std@@QEBA_NAEBV01@@Z 00000001800220c0 f i range.obj
 0001:000210c0       ??8?$_Vector_const_iterator@V?$_Vector_val@U?$_Simple_types@PEAVxf_t@xlslib_core@@@std@@@std@@@std@@QEBA_NAEBV01@@Z 00000001800220c0 f i globalrec.obj
 0001:000210c0       ??8?$_Vector_const_iterator@V?$_Vector_val@U?$_Simple_types@PEAVCOleProp@xlslib_core@@@std@@@std@@@std@@QEBA_NAEBV01@@Z 00000001800220c0 f i oledoc.obj
 0001:000210c0       ??8?$_Tree_const_iterator@V?$_Tree_val@U?$_Tree_simple_types@PEAVHPSFitem@xlslib_core@@@std@@@std@@@std@@QEBA_NAEBV01@@Z 00000001800220c0 f i HPSF.obj
 0001:000210c0       ??8?$_Vector_const_iterator@V?$_Vector_val@U?$_Simple_types@PEAVformula_t@xlslib_core@@@std@@@std@@@std@@QEBA_NAEBV01@@Z 00000001800220c0 f i sheetrec.obj
 0001:000210c0       ??8?$_String_const_iterator@V?$_String_val@U?$_Simple_types@D@std@@@std@@@std@@QEBA_NAEBV01@@Z 00000001800220c0 f i globalrec.obj
 0001:000210c0       ??8?$_Vector_const_iterator@V?$_Vector_val@U?$_Simple_types@PEAVCUnit@xlslib_core@@@std@@@std@@@std@@QEBA_NAEBV01@@Z 00000001800220c0 f i datast.obj
 0001:000210c0       ??8?$_Tree_const_iterator@V?$_Tree_val@U?$_Tree_simple_types@PEAVrowheight_t@xlslib_core@@@std@@@std@@@std@@QEBA_NAEBV01@@Z 00000001800220c0 f i sheetrec.obj
 0001:000210c0       ??8?$_Vector_const_iterator@V?$_Vector_val@U?$_Simple_types@PEAUstyle_t@xlslib_core@@@std@@@std@@@std@@QEBA_NAEBV01@@Z 00000001800220c0 f i globalrec.obj
 0001:000210c0       ??8?$_Vector_const_iterator@V?$_Vector_val@U?$_Simple_types@PEBVlabel_t@xlslib_core@@@std@@@std@@@std@@QEBA_NAEBV01@@Z 00000001800220c0 f i datast.obj
 0001:000210c0       ??8?$_List_const_iterator@V?$_List_val@U?$_List_simple_types@PEAV?$basic_string@DU?$char_traits@D@std@@V?$allocator@D@2@@std@@@std@@@std@@@std@@QEBA_NAEBV01@@Z 00000001800220c0 f i olefs.obj
 0001:000210d0       ??Y?$_Vector_iterator@V?$_Vector_val@U?$_Simple_types@PEAVCUnit@xlslib_core@@@std@@@std@@@std@@QEAAAEAV01@_J@Z 00000001800220d0 f i datast.obj
 0001:000210d0       ??Y?$_Vector_const_iterator@V?$_Vector_val@U?$_Simple_types@PEAVCUnit@xlslib_core@@@std@@@std@@@std@@QEAAAEAV01@_J@Z 00000001800220d0 f i datast.obj
 0001:000210e0       ??F?$_Vector_const_iterator@V?$_Vector_val@U?$_Simple_types@PEAVCOleProp@xlslib_core@@@std@@@std@@@std@@QEAAAEAV01@XZ 00000001800220e0 f i olefs.obj
 0001:000210e0       ??F?$_Vector_iterator@V?$_Vector_val@U?$_Simple_types@PEAVformat_t@xlslib_core@@@std@@@std@@@std@@QEAAAEAV01@XZ 00000001800220e0 f i globalrec.obj
 0001:000210e0       ??F?$_Vector_const_iterator@V?$_Vector_val@U?$_Simple_types@PEAVCUnit@xlslib_core@@@std@@@std@@@std@@QEAAAEAV01@XZ 00000001800220e0 f i datast.obj
 0001:000210e0       ??F?$_Vector_iterator@V?$_Vector_val@U?$_Simple_types@PEAVCUnit@xlslib_core@@@std@@@std@@@std@@QEAAAEAV01@XZ 00000001800220e0 f i datast.obj
 0001:000210e0       ??F?$_Vector_const_iterator@V?$_Vector_val@U?$_Simple_types@PEAVboundsheet_t@xlslib_core@@@std@@@std@@@std@@QEAAAEAV01@XZ 00000001800220e0 f i globalrec.obj
 0001:000210e0       ??F?$_Vector_const_iterator@V?$_Vector_val@U?$_Simple_types@PEAVxf_t@xlslib_core@@@std@@@std@@@std@@QEAAAEAV01@XZ 00000001800220e0 f i globalrec.obj
 0001:000210e0       ??Y?$_Vector_const_iterator@V?$_Vector_val@U?$_Simple_types@PEAVworksheet@xlslib_core@@@std@@@std@@@std@@QEAAAEAV01@_J@Z 00000001800220e0 f i workbook.obj
 0001:000210e0       ??F?$_Vector_iterator@V?$_Vector_val@U?$_Simple_types@PEAVfont_t@xlslib_core@@@std@@@std@@@std@@QEAAAEAV01@XZ 00000001800220e0 f i globalrec.obj
 0001:000210e0       ??Z?$_Vector_iterator@V?$_Vector_val@U?$_Simple_types@PEAVworksheet@xlslib_core@@@std@@@std@@@std@@QEAAAEAV01@_J@Z 00000001800220e0 f i workbook.obj
 0001:000210e0       ??F?$_Vector_iterator@V?$_Vector_val@U?$_Simple_types@PEAVCOleProp@xlslib_core@@@std@@@std@@@std@@QEAAAEAV01@XZ 00000001800220e0 f i olefs.obj
 0001:000210e0       ??F?$_Vector_const_iterator@V?$_Vector_val@U?$_Simple_types@PEAVfont_t@xlslib_core@@@std@@@std@@@std@@QEAAAEAV01@XZ 00000001800220e0 f i globalrec.obj
 0001:000210e0       ??F?$_Vector_iterator@V?$_Vector_val@U?$_Simple_types@PEAVboundsheet_t@xlslib_core@@@std@@@std@@@std@@QEAAAEAV01@XZ 00000001800220e0 f i globalrec.obj
 0001:000210e0       ??F?$_Vector_iterator@V?$_Vector_val@U?$_Simple_types@PEAVxf_t@xlslib_core@@@std@@@std@@@std@@QEAAAEAV01@XZ 00000001800220e0 f i globalrec.obj
 0001:000210e0       ??Y?$_Vector_iterator@V?$_Vector_val@U?$_Simple_types@PEAVworksheet@xlslib_core@@@std@@@std@@@std@@QEAAAEAV01@_J@Z 00000001800220e0 f i workbook.obj
 0001:000210e0       ??F?$_Vector_const_iterator@V?$_Vector_val@U?$_Simple_types@PEAVformat_t@xlslib_core@@@std@@@std@@@std@@QEAAAEAV01@XZ 00000001800220e0 f i globalrec.obj
 0001:000210e0       ??F?$_Vector_const_iterator@V?$_Vector_val@U?$_Simple_types@PEAUstyle_t@xlslib_core@@@std@@@std@@@std@@QEAAAEAV01@XZ 00000001800220e0 f i globalrec.obj
 0001:000210e0       ??F?$_Vector_iterator@V?$_Vector_val@U?$_Simple_types@PEAUstyle_t@xlslib_core@@@std@@@std@@@std@@QEAAAEAV01@XZ 00000001800220e0 f i globalrec.obj
 0001:000210f0       ?_Reserve@?$vector@PEAVCUnit@xlslib_core@@V?$allocator@PEAVCUnit@xlslib_core@@@std@@@std@@IEAAX_K@Z 00000001800220f0 f i datast.obj
 0001:00021180       ?_Pop_back_n@?$vector@PEAVCUnit@xlslib_core@@V?$allocator@PEAVCUnit@xlslib_core@@@std@@@std@@QEAAX_K@Z 0000000180022180 f i datast.obj
 0001:00021190       ?_Tidy@?$vector@VCUnitStore@xlslib_core@@V?$allocator@VCUnitStore@xlslib_core@@@std@@@std@@IEAAXXZ 0000000180022190 f i datast.obj
 0001:00021220       ?_Reserve@?$vector@VCUnitStore@xlslib_core@@V?$allocator@VCUnitStore@xlslib_core@@@std@@@std@@IEAAX_K@Z 0000000180022220 f i datast.obj
 0001:000212b0       ?_Reallocate@?$vector@VCUnitStore@xlslib_core@@V?$allocator@VCUnitStore@xlslib_core@@@std@@@std@@IEAAX_K@Z 00000001800222b0 f i datast.obj
 0001:000213d0       ?_Pop_back_n@?$vector@VCUnitStore@xlslib_core@@V?$allocator@VCUnitStore@xlslib_core@@@std@@@std@@QEAAX_K@Z 00000001800223d0 f i datast.obj
 0001:00021470       ?_Tidy@?$basic_string@_SU?$char_traits@_S@std@@V?$allocator@_S@2@@std@@QEAAX_N_K@Z 0000000180022470 f i datast.obj
 0001:00021500       ?assign@?$basic_string@_SU?$char_traits@_S@std@@V?$allocator@_S@2@@std@@QEAAAEAV12@PEB_S_K@Z 0000000180022500 f i datast.obj
 0001:00021660       ?assign@?$basic_string@_SU?$char_traits@_S@std@@V?$allocator@_S@2@@std@@QEAAAEAV12@AEBV12@_K1@Z 0000000180022660 f i datast.obj
 0001:000217c0       ?_Destroy@?$vector@VCUnitStore@xlslib_core@@V?$allocator@VCUnitStore@xlslib_core@@@std@@@std@@IEAAXPEAVCUnitStore@xlslib_core@@0@Z 00000001800227c0 f i datast.obj
 0001:00021820       ?_Grow@?$basic_string@_SU?$char_traits@_S@std@@V?$allocator@_S@2@@std@@QEAA_N_K_N@Z 0000000180022820 f i datast.obj
 0001:000218b0       ?erase@?$basic_string@_SU?$char_traits@_S@std@@V?$allocator@_S@2@@std@@QEAAAEAV12@_K0@Z 00000001800228b0 f i datast.obj
 0001:00021930       ?copy@?$_Char_traits@_SG@std@@SAPEA_SPEA_SPEB_S_K@Z 0000000180022930 f i datast.obj
 0001:00021960       ?length@?$_Char_traits@_SG@std@@SA_KPEB_S@Z 0000000180022960 f i datast.obj
 0001:00021980       ?_Copy@?$basic_string@_SU?$char_traits@_S@std@@V?$allocator@_S@2@@std@@QEAAX_K0@Z 0000000180022980 f i datast.obj
 0001:00021b00       ?eq@?$_Char_traits@_SG@std@@SA_NAEB_S0@Z 0000000180022b00 f i datast.obj
 0001:00021b10       ?move@?$_Char_traits@_SG@std@@SAPEA_SPEA_SPEB_S_K@Z 0000000180022b10 f i datast.obj
 0001:00021b80       ??$_Uninitialized_default_fill_n@PEAPEAVCUnit@xlslib_core@@_KV?$allocator@PEAVCUnit@xlslib_core@@@std@@@std@@YAXPEAPEAVCUnit@xlslib_core@@_KAEAU?$_Wrap_alloc@V?$allocator@PEAVCUnit@xlslib_core@@@std@@@0@@Z 0000000180022b80 f i datast.obj
 0001:00021b80       ??$_Uninitialized_default_fill_n1@PEAPEAVCUnit@xlslib_core@@_KV?$allocator@PEAVCUnit@xlslib_core@@@std@@@std@@YAXPEAPEAVCUnit@xlslib_core@@_KAEAU?$_Wrap_alloc@V?$allocator@PEAVCUnit@xlslib_core@@@std@@@0@U?$integral_constant@_N$00@0@@Z 0000000180022b80 f i datast.obj
 0001:00021b90       ??$_Uninitialized_default_fill_n@PEAVCUnitStore@xlslib_core@@_KV?$allocator@VCUnitStore@xlslib_core@@@std@@@std@@YAXPEAVCUnitStore@xlslib_core@@_KAEAU?$_Wrap_alloc@V?$allocator@VCUnitStore@xlslib_core@@@std@@@0@@Z 0000000180022b90 f i datast.obj
 0001:00021ba0       ??$emplace@VCUnitStore@xlslib_core@@@?$vector@VCUnitStore@xlslib_core@@V?$allocator@VCUnitStore@xlslib_core@@@std@@@std@@QEAA?AV?$_Vector_iterator@V?$_Vector_val@U?$_Simple_types@VCUnitStore@xlslib_core@@@std@@@std@@@1@V?$_Vector_const_iterator@V?$_Vector_val@U?$_Simple_types@VCUnitStore@xlslib_core@@@std@@@std@@@1@$$QEAVCUnitStore@xlslib_core@@@Z 0000000180022ba0 f i datast.obj
 0001:00021c30       ??$_Umove@PEAVCUnitStore@xlslib_core@@@?$vector@VCUnitStore@xlslib_core@@V?$allocator@VCUnitStore@xlslib_core@@@std@@@std@@IEAAPEAVCUnitStore@xlslib_core@@PEAV23@00@Z 0000000180022c30 f i datast.obj
 0001:00021c50       ??$_Destroy_range1@V?$allocator@VCUnitStore@xlslib_core@@@std@@PEAVCUnitStore@xlslib_core@@@std@@YAXPEAVCUnitStore@xlslib_core@@0AEAU?$_Wrap_alloc@V?$allocator@VCUnitStore@xlslib_core@@@std@@@0@U?$integral_constant@_N$0A@@0@@Z 0000000180022c50 f i datast.obj
 0001:00021c50       ??$_Destroy_range@V?$allocator@VCUnitStore@xlslib_core@@@std@@PEAVCUnitStore@xlslib_core@@@std@@YAXPEAVCUnitStore@xlslib_core@@0AEAU?$_Wrap_alloc@V?$allocator@VCUnitStore@xlslib_core@@@std@@@0@@Z 0000000180022c50 f i datast.obj
 0001:00021cb0       ??G?$_Vector_iterator@V?$_Vector_val@U?$_Simple_types@VCUnitStore@xlslib_core@@@std@@@std@@@std@@QEBA?AV01@_J@Z 0000000180022cb0 f i datast.obj
 0001:00021cc0       ??H?$_Vector_iterator@V?$_Vector_val@U?$_Simple_types@VCUnitStore@xlslib_core@@@std@@@std@@@std@@QEBA?AV01@_J@Z 0000000180022cc0 f i datast.obj
