 xlslib

 Timestamp is 5b3d4f91 (Thu Jul  5 07:52:01 2018)

 Preferred load address is 10000000

 Start         Length     Name                   Class
 0001:00000000 00011bf0H .text                   CODE
 0001:00011bf0 00000020H .text$di                CODE
 0001:00011c10 0002cc10H .text$mn                CODE
 0001:0003e820 00001930H .text$x                 CODE
 0001:00040150 0000000bH .text$yd                CODE
 0002:00000000 000002a0H .idata$5                DATA
 0002:000002a0 00000004H .00cfg                  DATA
 0002:000002a4 00000004H .CRT$XCA                DATA
 0002:000002a8 00000004H .CRT$XCL                DATA
 0002:000002ac 00000004H .CRT$XCU                DATA
 0002:000002b0 00000004H .CRT$XCZ                DATA
 0002:000002b4 00000004H .CRT$XIA                DATA
 0002:000002b8 00000004H .CRT$XIC                DATA
 0002:000002bc 00000004H .CRT$XIZ                DATA
 0002:000002c0 00000004H .CRT$XPA                DATA
 0002:000002c4 00000004H .CRT$XPZ                DATA
 0002:000002c8 00000004H .CRT$XTA                DATA
 0002:000002cc 00000004H .CRT$XTZ                DATA
 0002:000002d0 000cc89cH .rdata                  DATA
 0002:000ccb6c 00001dc4H .rdata$r                DATA
 0002:000ce930 000001c0H .rdata$sxdata           DATA
 0002:000ceaf0 000002e4H .rdata$zzzdbg           DATA
 0002:000cedd4 00000004H .rtc$IAA                DATA
 0002:000cedd8 00000004H .rtc$IZZ                DATA
 0002:000ceddc 00000004H .rtc$TAA                DATA
 0002:000cede0 00000008H .rtc$TZZ                DATA
 0002:000cede8 000019e8H .xdata$x                DATA
 0002:000d07d0 00000114H .edata                  DATA
 0002:000d08e4 000000b4H .idata$2                DATA
 0002:000d0998 00000014H .idata$3                DATA
 0002:000d09ac 000002a0H .idata$4                DATA
 0002:000d0c4c 00001990H .idata$6                DATA
 0003:00000000 00001098H .data                   DATA
 0003:00001098 00001018H .data$r                 DATA
 0003:000020b0 00000404H .bss                    DATA
 0004:00000000 00000318H .gfids$y                DATA
 0005:00000000 00000060H .rsrc$01                DATA
 0005:00000060 00000180H .rsrc$02                DATA

  Address         Publics by Value              Rva+Base       Lib:Object

 0000:00000000       ___guard_longjmp_table     00000000     <absolute>
 0000:00000000       ___guard_fids_count        00000000     <absolute>
 0000:00000000       ___guard_iat_count         00000000     <absolute>
 0000:00000000       ___guard_longjmp_count     00000000     <absolute>
 0000:00000000       ___guard_iat_table         00000000     <absolute>
 0000:00000000       ___guard_fids_table        00000000     <absolute>
 0000:00000000       ___dynamic_value_reloc_table 00000000     <absolute>
 0000:00000070       ___safe_se_handler_count   00000070     <absolute>
 0000:00000100       ___guard_flags             00000100     <absolute>
 0000:00000000       ___ImageBase               10000000     <linker-defined>
 0001:00010de0       _aliases_lookup            10011de0 f   libiconv:iconv.obj
 0001:00010e60       _aliases2_lookup           10011e60 f   libiconv:iconv.obj
 0001:00010ec0       _libiconv_open             10011ec0 f   libiconv:iconv.obj
 0001:00011210       _libiconv                  10012210 f   libiconv:iconv.obj
 0001:00011250       _libiconv_close            10012250 f   libiconv:iconv.obj
 0001:00011270       _libiconv_open_into        10012270 f   libiconv:iconv.obj
 0001:000115a0       _libiconvctl               100125a0 f   libiconv:iconv.obj
 0001:00011780       _libiconvlist              10012780 f   libiconv:iconv.obj
 0001:00011990       _iconv_canonicalize        10012990 f   libiconv:iconv.obj
 0001:00011b20       _locale_charset            10012b20 f   libiconv:localcharset.obj
 0001:00011c10       ??2@YAPAXIPAX@Z            10012c10 f i assert_assist.obj
 0001:00011c20       ?copy@?$char_traits@D@std@@SAPADPADPBDI@Z 10012c20 f i assert_assist.obj
 0001:00011c40       ?move@?$char_traits@D@std@@SAPADPADPBDI@Z 10012c40 f i assert_assist.obj
 0001:00011c60       ?assign@?$char_traits@D@std@@SAXAADABD@Z 10012c60 f i assert_assist.obj
 0001:00011c70       ?eq@?$char_traits@D@std@@SA_NABD0@Z 10012c70 f i assert_assist.obj
 0001:00011c80       ?to_char_type@?$char_traits@D@std@@SADABH@Z 10012c80 f i assert_assist.obj
 0001:00011c90       ?to_int_type@?$char_traits@D@std@@SAHABD@Z 10012c90 f i assert_assist.obj
 0001:00011ca0       ?eq_int_type@?$char_traits@D@std@@SA_NABH0@Z 10012ca0 f i assert_assist.obj
 0001:00011cb0       ?not_eof@?$char_traits@D@std@@SAHABH@Z 10012cb0 f i assert_assist.obj
 0001:00011cc0       ?max_size@?$allocator_traits@V?$allocator@D@std@@@std@@SAIABV?$allocator@D@2@@Z 10012cc0 f i assert_assist.obj
 0001:00011cc0       ?eof@?$char_traits@D@std@@SAHXZ 10012cc0 f i assert_assist.obj
 0001:00011cc0       ?max_size@?$allocator@D@std@@QBEIXZ 10012cc0 f i assert_assist.obj
 0001:00011cd0       ?_Allocate@std@@YAPAXII_N@Z 10012cd0 f i assert_assist.obj
 0001:00011d30       ?_Deallocate@std@@YAXPAXII@Z 10012d30 f i assert_assist.obj
 0001:00011d90       ??0str_stream@@QAE@XZ      10012d90 f i assert_assist.obj
 0001:00011db0       ??$forward@VCUnitStore@xlslib_core@@@std@@YA$$QAVCUnitStore@xlslib_core@@AAV12@@Z 10012db0 f i datast.obj
 0001:00011db0       ??$_Unchecked@PAPAUstyle_t@xlslib_core@@@std@@YAPAPAUstyle_t@xlslib_core@@PAPAU12@@Z 10012db0 f i globalrec.obj
 0001:00011db0       ?_Get_data@?$_Vector_alloc@U?$_Vec_base_types@PAUDataValidation@xlslib_core@@V?$allocator@PAUDataValidation@xlslib_core@@@std@@@std@@@std@@QAEAAV?$_Vector_val@U?$_Simple_types@PAUDataValidation@xlslib_core@@@std@@@2@XZ 10012db0 f i sheetrec.obj
 0001:00011db0       ?_Kfn@?$_Tset_traits@PAVHPSFitem@xlslib_core@@Vinsertsort2@2@V?$allocator@PAVHPSFitem@xlslib_core@@@std@@$0A@@std@@SAABQAVHPSFitem@xlslib_core@@ABQAV34@@Z 10012db0 f i HPSF.obj
 0001:00011db0       ?_Get_first@?$_Compressed_pair@U?$_Wrap_alloc@V?$allocator@Urowblocksize_t@xlslib_core@@@std@@@std@@V?$_Vector_val@U?$_Simple_types@Urowblocksize_t@xlslib_core@@@std@@@2@$00@std@@QBEABU?$_Wrap_alloc@V?$allocator@Urowblocksize_t@xlslib_core@@@std@@@2@XZ 10012db0 f i sheetrec.obj
 0001:00011db0       ??$forward@AAPAU?$_Tree_node@U?$pair@PAVxf_t@xlslib_core@@UborderedXft@2@@std@@PAX@std@@@std@@YAAAPAU?$_Tree_node@U?$pair@PAVxf_t@xlslib_core@@UborderedXft@2@@std@@PAX@0@AAPAU10@@Z 10012db0 f i range.obj
 0001:00011db0       ?_Getcomp@?$_Tree_comp_alloc@V?$_Tset_traits@PAVHPSFitem@xlslib_core@@Vinsertsort2@2@V?$allocator@PAVHPSFitem@xlslib_core@@@std@@$0A@@std@@@std@@QAEAAVinsertsort2@xlslib_core@@XZ 10012db0 f i HPSF.obj
 0001:00011db0       ?_Get_data@?$_Tree_comp_alloc@V?$_Tset_traits@PAUcolinfo_t@xlslib_core@@Vcolinfosort@2@V?$allocator@PAUcolinfo_t@xlslib_core@@@std@@$0A@@std@@@std@@QBEABV?$_Tree_val@U?$_Tree_simple_types@PAUcolinfo_t@xlslib_core@@@std@@@2@XZ 10012db0 f i sheetrec.obj
 0001:00011db0       ??$forward@U?$_Wrap_alloc@V?$allocator@D@std@@@std@@@std@@YA$$QAU?$_Wrap_alloc@V?$allocator@D@std@@@0@AAU10@@Z 10012db0 f i assert_assist.obj
 0001:00011db0       ??$addressof@PAU?$_Tree_node@PAVHPSFitem@xlslib_core@@PAX@std@@@std@@YAPAPAU?$_Tree_node@PAVHPSFitem@xlslib_core@@PAX@0@AAPAU10@@Z 10012db0 f i HPSF.obj
 0001:00011db0       ?_Get_first@?$_Compressed_pair@U?$_Wrap_alloc@V?$allocator@VCUnitStore@xlslib_core@@@std@@@std@@V?$_Vector_val@U?$_Simple_types@VCUnitStore@xlslib_core@@@std@@@2@$00@std@@QAEAAU?$_Wrap_alloc@V?$allocator@VCUnitStore@xlslib_core@@@std@@@2@XZ 10012db0 f i datast.obj
 0001:00011db0       ?_Getcomp@?$_Tree_comp_alloc@V?$_Tset_traits@PAUcolinfo_t@xlslib_core@@Vcolinfosort@2@V?$allocator@PAUcolinfo_t@xlslib_core@@@std@@$0A@@std@@@std@@QAEAAVcolinfosort@xlslib_core@@XZ 10012db0 f i sheetrec.obj
 0001:00011db0       ?_Get_first@?$_Compressed_pair@U?$_Wrap_alloc@V?$allocator@I@std@@@std@@V?$_Vector_val@U?$_Simple_types@I@std@@@2@$00@std@@QBEABU?$_Wrap_alloc@V?$allocator@I@std@@@2@XZ 10012db0 f i sheetrec.obj
 0001:00011db0       ?_Get_second@?$_Compressed_pair@U?$_Wrap_alloc@V?$allocator@U?$_List_node@PAV?$basic_string@DU?$char_traits@D@std@@V?$allocator@D@2@@std@@PAX@std@@@std@@@std@@V?$_List_val@U?$_List_simple_types@PAV?$basic_string@DU?$char_traits@D@std@@V?$allocator@D@2@@std@@@std@@@2@$00@std@@QAEAAV?$_List_val@U?$_List_simple_types@PAV?$basic_string@DU?$char_traits@D@std@@V?$allocator@D@2@@std@@@std@@@2@XZ 10012db0 f i olefs.obj
 0001:00011db0       ?pointer_to@?$pointer_traits@PA_S@std@@SAPA_SAA_S@Z 10012db0 f i sheetrec.obj
 0001:00011db0       ?_Myhead@?$_Tree_comp_alloc@V?$_Tset_traits@PAVHPSFitem@xlslib_core@@Vinsertsort2@2@V?$allocator@PAVHPSFitem@xlslib_core@@@std@@$0A@@std@@@std@@QBEABQAU?$_Tree_node@PAVHPSFitem@xlslib_core@@PAX@2@XZ 10012db0 f i HPSF.obj
 0001:00011db0       ?_Myfirst@?$_Vector_alloc@U?$_Vec_base_types@PAVformula_t@xlslib_core@@V?$allocator@PAVformula_t@xlslib_core@@@std@@@std@@@std@@QBEABQAPAVformula_t@xlslib_core@@XZ 10012db0 f i sheetrec.obj
 0001:00011db0       ??0?$_Wrap_alloc@V?$allocator@U?$_Tree_node@U?$pair@PAVxf_t@xlslib_core@@UborderedXft@2@@std@@PAX@std@@@std@@@std@@QAE@XZ 10012db0 f i range.obj
 0001:00011db0       ??0?$_Wrap_alloc@V?$allocator@VCUnitStore@xlslib_core@@@std@@@std@@QAE@XZ 10012db0 f i datast.obj
 0001:00011db0       ?_Getal@?$_Vector_alloc@U?$_Vec_base_types@PAVrange@xlslib_core@@V?$allocator@PAVrange@xlslib_core@@@std@@@std@@@std@@QAEAAU?$_Wrap_alloc@V?$allocator@PAVrange@xlslib_core@@@std@@@2@XZ 10012db0 f i sheetrec.obj
 0001:00011db0       ?_Getal@?$_Tree_comp_alloc@V?$_Tset_traits@U?$pair@PAVxf_t@xlslib_core@@UborderedXft@2@@std@@VxfSorter@xlslib_core@@V?$allocator@U?$pair@PAVxf_t@xlslib_core@@UborderedXft@2@@std@@@2@$0A@@std@@@std@@QAEAAU?$_Wrap_alloc@V?$allocator@U?$_Tree_node@U?$pair@PAVxf_t@xlslib_core@@UborderedXft@2@@std@@PAX@std@@@std@@@2@XZ 10012db0 f i range.obj
 0001:00011db0       ??$_Unfancy@PAVformula_t@xlslib_core@@@std@@YAPAPAVformula_t@xlslib_core@@PAPAV12@@Z 10012db0 f i sheetrec.obj
 0001:00011db0       ?_Get_first@?$_Compressed_pair@U?$_Wrap_alloc@V?$allocator@U?$_Tree_node@PAVrowheight_t@xlslib_core@@PAX@std@@@std@@@std@@V?$_Tree_val@U?$_Tree_simple_types@PAVrowheight_t@xlslib_core@@@std@@@2@$00@std@@QBEABU?$_Wrap_alloc@V?$allocator@U?$_Tree_node@PAVrowheight_t@xlslib_core@@PAX@std@@@std@@@2@XZ 10012db0 f i sheetrec.obj
 0001:00011db0       ?pointer_to@?$pointer_traits@PB_S@std@@SAPB_SAB_S@Z 10012db0 f i globalrec.obj
 0001:00011db0       ??$_Unfancy@_S@std@@YAPA_SPA_S@Z 10012db0 f i datast.obj
 0001:00011db0       ??$_Ptr_move_cat@PAVboundsheet_t@xlslib_core@@PAV12@@std@@YA?AU_Really_trivial_ptr_iterator_tag@0@ABQAPAVboundsheet_t@xlslib_core@@0@Z 10012db0 f i globalrec.obj
 0001:00011db0       ??$addressof@QAVformat_t@xlslib_core@@@std@@YAPBQAVformat_t@xlslib_core@@ABQAV12@@Z 10012db0 f i globalrec.obj
 0001:00011db0       ?_Myfirst@?$_Vector_alloc@U?$_Vec_base_types@PAVfont_t@xlslib_core@@V?$allocator@PAVfont_t@xlslib_core@@@std@@@std@@@std@@QAEAAPAPAVfont_t@xlslib_core@@XZ 10012db0 f i globalrec.obj
 0001:00011db0       ?_Getal@?$_Vector_alloc@U?$_Vec_base_types@PAVrange_t@xlslib_core@@V?$allocator@PAVrange_t@xlslib_core@@@std@@@std@@@std@@QBEABU?$_Wrap_alloc@V?$allocator@PAVrange_t@xlslib_core@@@std@@@2@XZ 10012db0 f i sheetrec.obj
 0001:00011db0       ?_Get_first@?$_Compressed_pair@U?$_Wrap_alloc@V?$allocator@PAVformula_t@xlslib_core@@@std@@@std@@V?$_Vector_val@U?$_Simple_types@PAVformula_t@xlslib_core@@@std@@@2@$00@std@@QAEAAU?$_Wrap_alloc@V?$allocator@PAVformula_t@xlslib_core@@@std@@@2@XZ 10012db0 f i sheetrec.obj
 0001:00011db0       ?_Myfirst@?$_Vector_alloc@U?$_Vec_base_types@VCUnitStore@xlslib_core@@V?$allocator@VCUnitStore@xlslib_core@@@std@@@std@@@std@@QBEABQAVCUnitStore@xlslib_core@@XZ 10012db0 f i datast.obj
 0001:00011db0       ??$move@AAVCUnitStore@xlslib_core@@@std@@YA$$QAVCUnitStore@xlslib_core@@AAV12@@Z 10012db0 f i datast.obj
 0001:00011db0       ?_Myfirst@?$_Vector_alloc@U?$_Vec_base_types@PAVCUnit@xlslib_core@@V?$allocator@PAVCUnit@xlslib_core@@@std@@@std@@@std@@QBEABQAPAVCUnit@xlslib_core@@XZ 10012db0 f i datast.obj
 0001:00011db0       ??$addressof@PAUcolinfo_t@xlslib_core@@@std@@YAPAPAUcolinfo_t@xlslib_core@@AAPAU12@@Z 10012db0 f i sheetrec.obj
 0001:00011db0       ?_Getcomp@?$_Tree_comp_alloc@V?$_Tset_traits@U?$pair@PAVxf_t@xlslib_core@@UborderedXft@2@@std@@VxfSorter@xlslib_core@@V?$allocator@U?$pair@PAVxf_t@xlslib_core@@UborderedXft@2@@std@@@2@$0A@@std@@@std@@QBEABVxfSorter@xlslib_core@@XZ 10012db0 f i range.obj
 0001:00011db0       ??$forward@AAPAUHyperLink@xlslib_core@@@std@@YAAAPAUHyperLink@xlslib_core@@AAPAU12@@Z 10012db0 f i sheetrec.obj
 0001:00011db0       ??0?$allocator@PAVformula_t@xlslib_core@@@std@@QAE@XZ 10012db0 f i sheetrec.obj
 0001:00011db0       ??0?$allocator@U?$_List_node@PAV?$basic_string@DU?$char_traits@D@std@@V?$allocator@D@2@@std@@PAX@std@@@std@@QAE@XZ 10012db0 f i olefs.obj
 0001:00011db0       ?_Getcomp@?$_Tree_comp_alloc@V?$_Tset_traits@PAVcell_t@xlslib_core@@Vinsertsort@2@V?$allocator@PAVcell_t@xlslib_core@@@std@@$0A@@std@@@std@@QAEAAVinsertsort@xlslib_core@@XZ 10012db0 f i sheetrec.obj
 0001:00011db0       ?_Get_first@?$_Compressed_pair@U?$_Wrap_alloc@V?$allocator@D@std@@@std@@V?$_String_val@U?$_Simple_types@D@std@@@2@$00@std@@QBEABU?$_Wrap_alloc@V?$allocator@D@std@@@2@XZ 10012db0 f i assert_assist.obj
 0001:00011db0       ??$forward@U?$_Wrap_alloc@V?$allocator@_W@std@@@std@@@std@@YA$$QAU?$_Wrap_alloc@V?$allocator@_W@std@@@0@AAU10@@Z 10012db0 f i cbridge.obj
 0001:00011db0       ??$_Unchecked@PAPAVboundsheet_t@xlslib_core@@@std@@YAPAPAVboundsheet_t@xlslib_core@@PAPAV12@@Z 10012db0 f i globalrec.obj
 0001:00011db0       ??0?$allocator@U?$_Tree_node@PAVcell_t@xlslib_core@@PAX@std@@@std@@QAE@XZ 10012db0 f i sheetrec.obj
 0001:00011db0       ?_Get_data@?$_Vector_alloc@U?$_Vec_base_types@PAVrange@xlslib_core@@V?$allocator@PAVrange@xlslib_core@@@std@@@std@@@std@@QAEAAV?$_Vector_val@U?$_Simple_types@PAVrange@xlslib_core@@@std@@@2@XZ 10012db0 f i sheetrec.obj
 0001:00011db0       ??$move@AAD@std@@YA$$QADAAD@Z 10012db0 f i HPSF.obj
 0001:00011db0       ??0?$_Wrap_alloc@V?$allocator@U?$_Tree_node@PAVHPSFitem@xlslib_core@@PAX@std@@@std@@@std@@QAE@XZ 10012db0 f i HPSF.obj
 0001:00011db0       ?_Get_data@?$_Vector_alloc@U?$_Vec_base_types@PAVCOleProp@xlslib_core@@V?$allocator@PAVCOleProp@xlslib_core@@@std@@@std@@@std@@QBEABV?$_Vector_val@U?$_Simple_types@PAVCOleProp@xlslib_core@@@std@@@2@XZ 10012db0 f i olefs.obj
 0001:00011db0       ?_Get_first@?$_Compressed_pair@U?$_Wrap_alloc@V?$allocator@U?$_List_node@PAV?$basic_string@DU?$char_traits@D@std@@V?$allocator@D@2@@std@@PAX@std@@@std@@@std@@V?$_List_val@U?$_List_simple_types@PAV?$basic_string@DU?$char_traits@D@std@@V?$allocator@D@2@@std@@@std@@@2@$00@std@@QBEABU?$_Wrap_alloc@V?$allocator@U?$_List_node@PAV?$basic_string@DU?$char_traits@D@std@@V?$allocator@D@2@@std@@PAX@std@@@std@@@2@XZ 10012db0 f i olefs.obj
 0001:00011db0       ??$forward@ABQAVHPSFitem@xlslib_core@@@std@@YAABQAVHPSFitem@xlslib_core@@ABQAV12@@Z 10012db0 f i HPSF.obj
 0001:00011db0       ??$forward@AAPAVCUnit@xlslib_core@@@std@@YAAAPAVCUnit@xlslib_core@@AAPAV12@@Z 10012db0 f i datast.obj
 0001:00011db0       ?_Get_data@?$_Vector_alloc@U?$_Vec_base_types@PAVworksheet@xlslib_core@@V?$allocator@PAVworksheet@xlslib_core@@@std@@@std@@@std@@QAEAAV?$_Vector_val@U?$_Simple_types@PAVworksheet@xlslib_core@@@std@@@2@XZ 10012db0 f i workbook.obj
 0001:00011db0       ??$forward@ABQAVrange_t@xlslib_core@@@std@@YAABQAVrange_t@xlslib_core@@ABQAV12@@Z 10012db0 f i sheetrec.obj
 0001:00011db0       ?_Getal@?$_Vector_alloc@U?$_Vec_base_types@PAUstyle_t@xlslib_core@@V?$allocator@PAUstyle_t@xlslib_core@@@std@@@std@@@std@@QAEAAU?$_Wrap_alloc@V?$allocator@PAUstyle_t@xlslib_core@@@std@@@2@XZ 10012db0 f i globalrec.obj
 0001:00011db0       ?_Get_second@?$_Compressed_pair@U?$_Wrap_alloc@V?$allocator@D@std@@@std@@V?$_String_val@U?$_Simple_types@D@std@@@2@$00@std@@QBEABV?$_String_val@U?$_Simple_types@D@std@@@2@XZ 10012db0 f i assert_assist.obj
 0001:00011db0       ??$move@AAV?$basic_string@_WU?$char_traits@_W@std@@V?$allocator@_W@2@@std@@@std@@YA$$QAV?$basic_string@_WU?$char_traits@_W@std@@V?$allocator@_W@2@@0@AAV10@@Z 10012db0 f i cbridge.obj
 0001:00011db0       ?_Getal@?$_Vector_alloc@U?$_Vec_base_types@PAVrange@xlslib_core@@V?$allocator@PAVrange@xlslib_core@@@std@@@std@@@std@@QBEABU?$_Wrap_alloc@V?$allocator@PAVrange@xlslib_core@@@std@@@2@XZ 10012db0 f i sheetrec.obj
 0001:00011db0       ?_Myfirst@?$_Vector_alloc@U?$_Vec_base_types@V?$basic_string@_WU?$char_traits@_W@std@@V?$allocator@_W@2@@std@@V?$allocator@V?$basic_string@_WU?$char_traits@_W@std@@V?$allocator@_W@2@@std@@@2@@std@@@std@@QBEABQAV?$basic_string@_WU?$char_traits@_W@std@@V?$allocator@_W@2@@2@XZ 10012db0 f i cbridge.obj
 0001:00011db0       ?_Get_data@?$_Tree_comp_alloc@V?$_Tset_traits@U?$pair@PAVxf_t@xlslib_core@@UborderedXft@2@@std@@VxfSorter@xlslib_core@@V?$allocator@U?$pair@PAVxf_t@xlslib_core@@UborderedXft@2@@std@@@2@$0A@@std@@@std@@QAEAAV?$_Tree_val@U?$_Tree_simple_types@U?$pair@PAVxf_t@xlslib_core@@UborderedXft@2@@std@@@std@@@2@XZ 10012db0 f i range.obj
 0001:00011db0       ??$forward@V?$allocator@_S@std@@@std@@YA$$QAV?$allocator@_S@0@AAV10@@Z 10012db0 f i datast.obj
 0001:00011db0       ?_Get_second@?$_Compressed_pair@U?$_Wrap_alloc@V?$allocator@PAUDataValidation@xlslib_core@@@std@@@std@@V?$_Vector_val@U?$_Simple_types@PAUDataValidation@xlslib_core@@@std@@@2@$00@std@@QAEAAV?$_Vector_val@U?$_Simple_types@PAUDataValidation@xlslib_core@@@std@@@2@XZ 10012db0 f i sheetrec.obj
 0001:00011db0       ?_Kfn@?$_Tset_traits@PAUcolinfo_t@xlslib_core@@Vcolinfosort@2@V?$allocator@PAUcolinfo_t@xlslib_core@@@std@@$0A@@std@@SAABQAUcolinfo_t@xlslib_core@@ABQAU34@@Z 10012db0 f i sheetrec.obj
 0001:00011db0       ?_Getal@?$_Vector_alloc@U?$_Vec_base_types@PAVCOleProp@xlslib_core@@V?$allocator@PAVCOleProp@xlslib_core@@@std@@@std@@@std@@QAEAAU?$_Wrap_alloc@V?$allocator@PAVCOleProp@xlslib_core@@@std@@@2@XZ 10012db0 f i oledoc.obj
 0001:00011db0       ??$addressof@QAVformula_t@xlslib_core@@@std@@YAPBQAVformula_t@xlslib_core@@ABQAV12@@Z 10012db0 f i sheetrec.obj
 0001:00011db0       ?_Getal@?$_Vector_alloc@U?$_Vec_base_types@V?$basic_string@DU?$char_traits@D@std@@V?$allocator@D@2@@std@@V?$allocator@V?$basic_string@DU?$char_traits@D@std@@V?$allocator@D@2@@std@@@2@@std@@@std@@QBEABU?$_Wrap_alloc@V?$allocator@V?$basic_string@DU?$char_traits@D@std@@V?$allocator@D@2@@std@@@std@@@2@XZ 10012db0 f i cbridge.obj
 0001:00011db0       ??$forward@ABQAUcolinfo_t@xlslib_core@@@std@@YAABQAUcolinfo_t@xlslib_core@@ABQAU12@@Z 10012db0 f i sheetrec.obj
 0001:00011db0       ??0?$_Wrap_alloc@V?$allocator@PAVworksheet@xlslib_core@@@std@@@std@@QAE@XZ 10012db0 f i workbook.obj
 0001:00011db0       ?_Getal@?$_Vector_alloc@U?$_Vec_base_types@V?$basic_string@_WU?$char_traits@_W@std@@V?$allocator@_W@2@@std@@V?$allocator@V?$basic_string@_WU?$char_traits@_W@std@@V?$allocator@_W@2@@std@@@2@@std@@@std@@QAEAAU?$_Wrap_alloc@V?$allocator@V?$basic_string@_WU?$char_traits@_W@std@@V?$allocator@_W@2@@std@@@std@@@2@XZ 10012db0 f i cbridge.obj
 0001:00011db0       ?_Get_second@?$_Compressed_pair@Vcolinfosort@xlslib_core@@V?$_Compressed_pair@U?$_Wrap_alloc@V?$allocator@U?$_Tree_node@PAUcolinfo_t@xlslib_core@@PAX@std@@@std@@@std@@V?$_Tree_val@U?$_Tree_simple_types@PAUcolinfo_t@xlslib_core@@@std@@@2@$00@std@@$00@std@@QAEAAV?$_Compressed_pair@U?$_Wrap_alloc@V?$allocator@U?$_Tree_node@PAUcolinfo_t@xlslib_core@@PAX@std@@@std@@@std@@V?$_Tree_val@U?$_Tree_simple_types@PAUcolinfo_t@xlslib_core@@@std@@@2@$00@2@XZ 10012db0 f i sheetrec.obj
 0001:00011db0       ?_Get_second@?$_Compressed_pair@U?$_Wrap_alloc@V?$allocator@U?$_Tree_node@PAVrowheight_t@xlslib_core@@PAX@std@@@std@@@std@@V?$_Tree_val@U?$_Tree_simple_types@PAVrowheight_t@xlslib_core@@@std@@@2@$00@std@@QAEAAV?$_Tree_val@U?$_Tree_simple_types@PAVrowheight_t@xlslib_core@@@std@@@2@XZ 10012db0 f i sheetrec.obj
 0001:00011db0       ?_Myfirst@?$_Vector_alloc@U?$_Vec_base_types@PAUstyle_t@xlslib_core@@V?$allocator@PAUstyle_t@xlslib_core@@@std@@@std@@@std@@QAEAAPAPAUstyle_t@xlslib_core@@XZ 10012db0 f i globalrec.obj
 0001:00011db0       ?_Getal@?$_String_alloc@U?$_String_base_types@DV?$allocator@D@std@@@std@@@std@@QBEABU?$_Wrap_alloc@V?$allocator@D@std@@@2@XZ 10012db0 f i assert_assist.obj
 0001:00011db0       ??$_Unfancy@V?$basic_string@DU?$char_traits@D@std@@V?$allocator@D@2@@std@@@std@@YAPAV?$basic_string@DU?$char_traits@D@std@@V?$allocator@D@2@@0@PAV10@@Z 10012db0 f i cbridge.obj
 0001:00011db0       ??$addressof@PAVrowheight_t@xlslib_core@@@std@@YAPAPAVrowheight_t@xlslib_core@@AAPAV12@@Z 10012db0 f i sheetrec.obj
 0001:00011db0       ?_Getal@?$_Vector_alloc@U?$_Vec_base_types@PAUDataValidation@xlslib_core@@V?$allocator@PAUDataValidation@xlslib_core@@@std@@@std@@@std@@QBEABU?$_Wrap_alloc@V?$allocator@PAUDataValidation@xlslib_core@@@std@@@2@XZ 10012db0 f i sheetrec.obj
 0001:00011db0       ??$forward@AAPAU?$_Tree_node@PAVrowheight_t@xlslib_core@@PAX@std@@@std@@YAAAPAU?$_Tree_node@PAVrowheight_t@xlslib_core@@PAX@0@AAPAU10@@Z 10012db0 f i sheetrec.obj
 0001:00011db0       ?_Get_first@?$_Compressed_pair@U?$_Wrap_alloc@V?$allocator@PBVlabel_t@xlslib_core@@@std@@@std@@V?$_Vector_val@U?$_Simple_types@PBVlabel_t@xlslib_core@@@std@@@2@$00@std@@QBEABU?$_Wrap_alloc@V?$allocator@PBVlabel_t@xlslib_core@@@std@@@2@XZ 10012db0 f i globalrec.obj
 0001:00011db0       ?_Get_second@?$_Compressed_pair@U?$_Wrap_alloc@V?$allocator@_S@std@@@std@@V?$_String_val@U?$_Simple_types@_S@std@@@2@$00@std@@QBEABV?$_String_val@U?$_Simple_types@_S@std@@@2@XZ 10012db0 f i datast.obj
 0001:00011db0       ?_Left@?$_Tree_comp_alloc@V?$_Tset_traits@PAUcolinfo_t@xlslib_core@@Vcolinfosort@2@V?$allocator@PAUcolinfo_t@xlslib_core@@@std@@$0A@@std@@@std@@SAAAPAU?$_Tree_node@PAUcolinfo_t@xlslib_core@@PAX@2@PAU32@@Z 10012db0 f i sheetrec.obj
 0001:00011db0       ??$_Unchecked@PAPAVworksheet@xlslib_core@@@std@@YAPAPAVworksheet@xlslib_core@@PAPAV12@@Z 10012db0 f i workbook.obj
 0001:00011db0       ?_Get_first@?$_Compressed_pair@U?$_Wrap_alloc@V?$allocator@PAVformat_t@xlslib_core@@@std@@@std@@V?$_Vector_val@U?$_Simple_types@PAVformat_t@xlslib_core@@@std@@@2@$00@std@@QBEABU?$_Wrap_alloc@V?$allocator@PAVformat_t@xlslib_core@@@std@@@2@XZ 10012db0 f i globalrec.obj
 0001:00011db0       ??$addressof@U?$pair@PAVxf_t@xlslib_core@@UborderedXft@2@@std@@@std@@YAPAU?$pair@PAVxf_t@xlslib_core@@UborderedXft@2@@0@AAU10@@Z 10012db0 f i range.obj
 0001:00011db0       ?_Nextnode@?$_List_val@U?$_List_simple_types@PAV?$basic_string@DU?$char_traits@D@std@@V?$allocator@D@2@@std@@@std@@@std@@SAAAPAU?$_List_node@PAV?$basic_string@DU?$char_traits@D@std@@V?$allocator@D@2@@std@@PAX@2@PAU32@@Z 10012db0 f i olefs.obj
 0001:00011db0       ??$_Unfancy@PBVlabel_t@xlslib_core@@@std@@YAPAPBVlabel_t@xlslib_core@@PAPBV12@@Z 10012db0 f i globalrec.obj
 0001:00011db0       ?_Get_data@?$_String_alloc@U?$_String_base_types@DV?$allocator@D@std@@@std@@@std@@QAEAAV?$_String_val@U?$_Simple_types@D@std@@@2@XZ 10012db0 f i assert_assist.obj
 0001:00011db0       ?_Get_second@?$_Compressed_pair@U?$_Wrap_alloc@V?$allocator@D@std@@@std@@V?$_String_val@U?$_Simple_types@D@std@@@2@$00@std@@QAEAAV?$_String_val@U?$_Simple_types@D@std@@@2@XZ 10012db0 f i assert_assist.obj
 0001:00011db0       ??$addressof@QAUstyle_t@xlslib_core@@@std@@YAPBQAUstyle_t@xlslib_core@@ABQAU12@@Z 10012db0 f i globalrec.obj
 0001:00011db0       ?_Get_first@?$_Compressed_pair@Vinsertsort@xlslib_core@@V?$_Compressed_pair@U?$_Wrap_alloc@V?$allocator@U?$_Tree_node@PAVcell_t@xlslib_core@@PAX@std@@@std@@@std@@V?$_Tree_val@U?$_Tree_simple_types@PAVcell_t@xlslib_core@@@std@@@2@$00@std@@$00@std@@QBEABVinsertsort@xlslib_core@@XZ 10012db0 f i sheetrec.obj
 0001:00011db0       ??0?$_Wrap_alloc@V?$allocator@N@std@@@std@@QAE@XZ 10012db0 f i cbridge.obj
 0001:00011db0       ?_Get_first@?$_Compressed_pair@U?$_Wrap_alloc@V?$allocator@I@std@@@std@@V?$_Vector_val@U?$_Simple_types@I@std@@@2@$00@std@@QAEAAU?$_Wrap_alloc@V?$allocator@I@std@@@2@XZ 10012db0 f i sheetrec.obj
 0001:00011db0       ??$move@AAV?$basic_string@DU?$char_traits@D@std@@V?$allocator@D@2@@std@@@std@@YA$$QAV?$basic_string@DU?$char_traits@D@std@@V?$allocator@D@2@@0@AAV10@@Z 10012db0 f i cbridge.obj
 0001:00011db0       ??$forward@ABQAVrange@xlslib_core@@@std@@YAABQAVrange@xlslib_core@@ABQAV12@@Z 10012db0 f i sheetrec.obj
 0001:00011db0       ?_Get_first@?$_Compressed_pair@U?$_Wrap_alloc@V?$allocator@PBVlabel_t@xlslib_core@@@std@@@std@@V?$_Vector_val@U?$_Simple_types@PBVlabel_t@xlslib_core@@@std@@@2@$00@std@@QAEAAU?$_Wrap_alloc@V?$allocator@PBVlabel_t@xlslib_core@@@std@@@2@XZ 10012db0 f i globalrec.obj
 0001:00011db0       ?_Get_second@?$_Compressed_pair@U?$_Wrap_alloc@V?$allocator@_S@std@@@std@@V?$_String_val@U?$_Simple_types@_S@std@@@2@$00@std@@QAEAAV?$_String_val@U?$_Simple_types@_S@std@@@2@XZ 10012db0 f i datast.obj
 0001:00011db0       ?_Getal@?$_Vector_alloc@U?$_Vec_base_types@PAVformula_t@xlslib_core@@V?$allocator@PAVformula_t@xlslib_core@@@std@@@std@@@std@@QBEABU?$_Wrap_alloc@V?$allocator@PAVformula_t@xlslib_core@@@std@@@2@XZ 10012db0 f i sheetrec.obj
 0001:00011db0       ?_Getal@?$_Vector_alloc@U?$_Vec_base_types@Urowblocksize_t@xlslib_core@@V?$allocator@Urowblocksize_t@xlslib_core@@@std@@@std@@@std@@QAEAAU?$_Wrap_alloc@V?$allocator@Urowblocksize_t@xlslib_core@@@std@@@2@XZ 10012db0 f i sheetrec.obj
 0001:00011db0       ?_Get_second@?$_Compressed_pair@U?$_Wrap_alloc@V?$allocator@VCUnitStore@xlslib_core@@@std@@@std@@V?$_Vector_val@U?$_Simple_types@VCUnitStore@xlslib_core@@@std@@@2@$00@std@@QAEAAV?$_Vector_val@U?$_Simple_types@VCUnitStore@xlslib_core@@@std@@@2@XZ 10012db0 f i datast.obj
 0001:00011db0       ??$forward@AAPAU?$_List_node@PAV?$basic_string@DU?$char_traits@D@std@@V?$allocator@D@2@@std@@PAX@std@@@std@@YAAAPAU?$_List_node@PAV?$basic_string@DU?$char_traits@D@std@@V?$allocator@D@2@@std@@PAX@0@AAPAU10@@Z 10012db0 f i olefs.obj
 0001:00011db0       ??0?$_Wrap_alloc@V?$allocator@PBVlabel_t@xlslib_core@@@std@@@std@@QAE@XZ 10012db0 f i globalrec.obj
 0001:00011db0       ?_Get_first@?$_Compressed_pair@U?$_Wrap_alloc@V?$allocator@VCUnitStore@xlslib_core@@@std@@@std@@V?$_Vector_val@U?$_Simple_types@VCUnitStore@xlslib_core@@@std@@@2@$00@std@@QBEABU?$_Wrap_alloc@V?$allocator@VCUnitStore@xlslib_core@@@std@@@2@XZ 10012db0 f i datast.obj
 0001:00011db0       ?_Getal@?$_String_alloc@U?$_String_base_types@_WV?$allocator@_W@std@@@std@@@std@@QBEABU?$_Wrap_alloc@V?$allocator@_W@std@@@2@XZ 10012db0 f i cbridge.obj
 0001:00011db0       ?_Left@?$_Tree_comp_alloc@V?$_Tset_traits@PAVcell_t@xlslib_core@@Vinsertsort@2@V?$allocator@PAVcell_t@xlslib_core@@@std@@$0A@@std@@@std@@SAAAPAU?$_Tree_node@PAVcell_t@xlslib_core@@PAX@2@PAU32@@Z 10012db0 f i sheetrec.obj
 0001:00011db0       ?_Kfn@?$_Tset_traits@PAVcell_t@xlslib_core@@Vinsertsort@2@V?$allocator@PAVcell_t@xlslib_core@@@std@@$0A@@std@@SAABQAVcell_t@xlslib_core@@ABQAV34@@Z 10012db0 f i sheetrec.obj
 0001:00011db0       ?_Get_second@?$_Compressed_pair@U?$_Wrap_alloc@V?$allocator@PAVrange@xlslib_core@@@std@@@std@@V?$_Vector_val@U?$_Simple_types@PAVrange@xlslib_core@@@std@@@2@$00@std@@QBEABV?$_Vector_val@U?$_Simple_types@PAVrange@xlslib_core@@@std@@@2@XZ 10012db0 f i sheetrec.obj
 0001:00011db0       ?_Get_data@?$_Vector_alloc@U?$_Vec_base_types@PAVformat_t@xlslib_core@@V?$allocator@PAVformat_t@xlslib_core@@@std@@@std@@@std@@QBEABV?$_Vector_val@U?$_Simple_types@PAVformat_t@xlslib_core@@@std@@@2@XZ 10012db0 f i globalrec.obj
 0001:00011db0       ?_Get_second@?$_Compressed_pair@U?$_Wrap_alloc@V?$allocator@N@std@@@std@@V?$_Vector_val@U?$_Simple_types@N@std@@@2@$00@std@@QAEAAV?$_Vector_val@U?$_Simple_types@N@std@@@2@XZ 10012db0 f i cbridge.obj
 0001:00011db0       ??$forward@ABQAUDataValidation@xlslib_core@@@std@@YAABQAUDataValidation@xlslib_core@@ABQAU12@@Z 10012db0 f i sheetrec.obj
 0001:00011db0       ??0?$allocator@PAVCUnit@xlslib_core@@@std@@QAE@XZ 10012db0 f i datast.obj
 0001:00011db0       ??$forward@V?$basic_string@_WU?$char_traits@_W@std@@V?$allocator@_W@2@@std@@@std@@YA$$QAV?$basic_string@_WU?$char_traits@_W@std@@V?$allocator@_W@2@@0@AAV10@@Z 10012db0 f i cbridge.obj
 0001:00011db0       ??$forward@PBVlabel_t@xlslib_core@@@std@@YA$$QAPBVlabel_t@xlslib_core@@AAPBV12@@Z 10012db0 f i globalrec.obj
 0001:00011db0       ??$forward@AAPAU?$_Tree_node@PAVHPSFitem@xlslib_core@@PAX@std@@@std@@YAAAPAU?$_Tree_node@PAVHPSFitem@xlslib_core@@PAX@0@AAPAU10@@Z 10012db0 f i HPSF.obj
 0001:00011db0       ?_Get_second@?$_Compressed_pair@U?$_Wrap_alloc@V?$allocator@PAVxf_t@xlslib_core@@@std@@@std@@V?$_Vector_val@U?$_Simple_types@PAVxf_t@xlslib_core@@@std@@@2@$00@std@@QBEABV?$_Vector_val@U?$_Simple_types@PAVxf_t@xlslib_core@@@std@@@2@XZ 10012db0 f i globalrec.obj
 0001:00011db0       ?_Getal@?$_Vector_alloc@U?$_Vec_base_types@V?$basic_string@_WU?$char_traits@_W@std@@V?$allocator@_W@2@@std@@V?$allocator@V?$basic_string@_WU?$char_traits@_W@std@@V?$allocator@_W@2@@std@@@2@@std@@@std@@QBEABU?$_Wrap_alloc@V?$allocator@V?$basic_string@_WU?$char_traits@_W@std@@V?$allocator@_W@2@@std@@@std@@@2@XZ 10012db0 f i cbridge.obj
 0001:00011db0       ?_Get_data@?$_Vector_alloc@U?$_Vec_base_types@PAVboundsheet_t@xlslib_core@@V?$allocator@PAVboundsheet_t@xlslib_core@@@std@@@std@@@std@@QAEAAV?$_Vector_val@U?$_Simple_types@PAVboundsheet_t@xlslib_core@@@std@@@2@XZ 10012db0 f i globalrec.obj
 0001:00011db0       ?_Get_data@?$_Vector_alloc@U?$_Vec_base_types@PAUDataValidation@xlslib_core@@V?$allocator@PAUDataValidation@xlslib_core@@@std@@@std@@@std@@QBEABV?$_Vector_val@U?$_Simple_types@PAUDataValidation@xlslib_core@@@std@@@2@XZ 10012db0 f i sheetrec.obj
 0001:00011db0       ?_Get_data@?$_Vector_alloc@U?$_Vec_base_types@VCUnitStore@xlslib_core@@V?$allocator@VCUnitStore@xlslib_core@@@std@@@std@@@std@@QAEAAV?$_Vector_val@U?$_Simple_types@VCUnitStore@xlslib_core@@@std@@@2@XZ 10012db0 f i datast.obj
 0001:00011db0       ?_Get_second@?$_Compressed_pair@U?$_Wrap_alloc@V?$allocator@V?$basic_string@_WU?$char_traits@_W@std@@V?$allocator@_W@2@@std@@@std@@@std@@V?$_Vector_val@U?$_Simple_types@V?$basic_string@_WU?$char_traits@_W@std@@V?$allocator@_W@2@@std@@@std@@@2@$00@std@@QAEAAV?$_Vector_val@U?$_Simple_types@V?$basic_string@_WU?$char_traits@_W@std@@V?$allocator@_W@2@@std@@@std@@@2@XZ 10012db0 f i cbridge.obj
 0001:00011db0       ?_Get_first@?$_Compressed_pair@U?$_Wrap_alloc@V?$allocator@PAVrange@xlslib_core@@@std@@@std@@V?$_Vector_val@U?$_Simple_types@PAVrange@xlslib_core@@@std@@@2@$00@std@@QBEABU?$_Wrap_alloc@V?$allocator@PAVrange@xlslib_core@@@std@@@2@XZ 10012db0 f i sheetrec.obj
 0001:00011db0       ?_Get_first@?$_Compressed_pair@U?$_Wrap_alloc@V?$allocator@PAVboundsheet_t@xlslib_core@@@std@@@std@@V?$_Vector_val@U?$_Simple_types@PAVboundsheet_t@xlslib_core@@@std@@@2@$00@std@@QBEABU?$_Wrap_alloc@V?$allocator@PAVboundsheet_t@xlslib_core@@@std@@@2@XZ 10012db0 f i globalrec.obj
 0001:00011db0       ??$_Unfancy@PAVboundsheet_t@xlslib_core@@@std@@YAPAPAVboundsheet_t@xlslib_core@@PAPAV12@@Z 10012db0 f i globalrec.obj
 0001:00011db0       ?_Myfirst@?$_Vector_alloc@U?$_Vec_base_types@PAUDataValidation@xlslib_core@@V?$allocator@PAUDataValidation@xlslib_core@@@std@@@std@@@std@@QBEABQAPAUDataValidation@xlslib_core@@XZ 10012db0 f i sheetrec.obj
 0001:00011db0       ?_Get_first@?$_Compressed_pair@U?$_Wrap_alloc@V?$allocator@_W@std@@@std@@V?$_String_val@U?$_Simple_types@_W@std@@@2@$00@std@@QAEAAU?$_Wrap_alloc@V?$allocator@_W@std@@@2@XZ 10012db0 f i cbridge.obj
 0001:00011db0       ??$addressof@QAUDataValidation@xlslib_core@@@std@@YAPBQAUDataValidation@xlslib_core@@ABQAU12@@Z 10012db0 f i sheetrec.obj
 0001:00011db0       ??0?$allocator@PAVCOleProp@xlslib_core@@@std@@QAE@XZ 10012db0 f i oledoc.obj
 0001:00011db0       ??$forward@AAPAVboundsheet_t@xlslib_core@@@std@@YAAAPAVboundsheet_t@xlslib_core@@AAPAV12@@Z 10012db0 f i globalrec.obj
 0001:00011db0       ??0?$_Wrap_alloc@V?$allocator@PAVCOleProp@xlslib_core@@@std@@@std@@QAE@XZ 10012db0 f i oledoc.obj
 0001:00011db0       ??$forward@Urowblocksize_t@xlslib_core@@@std@@YA$$QAUrowblocksize_t@xlslib_core@@AAU12@@Z 10012db0 f i sheetrec.obj
 0001:00011db0       ?_Get_first@?$_Compressed_pair@U?$_Wrap_alloc@V?$allocator@U?$_Tree_node@PAVcell_t@xlslib_core@@PAX@std@@@std@@@std@@V?$_Tree_val@U?$_Tree_simple_types@PAVcell_t@xlslib_core@@@std@@@2@$00@std@@QAEAAU?$_Wrap_alloc@V?$allocator@U?$_Tree_node@PAVcell_t@xlslib_core@@PAX@std@@@std@@@2@XZ 10012db0 f i sheetrec.obj
 0001:00011db0       ?_Get_second@?$_Compressed_pair@U?$_Wrap_alloc@V?$allocator@U?$_Tree_node@PAVHPSFitem@xlslib_core@@PAX@std@@@std@@@std@@V?$_Tree_val@U?$_Tree_simple_types@PAVHPSFitem@xlslib_core@@@std@@@2@$00@std@@QAEAAV?$_Tree_val@U?$_Tree_simple_types@PAVHPSFitem@xlslib_core@@@std@@@2@XZ 10012db0 f i HPSF.obj
 0001:00011db0       ?_Myhead@?$_Tree_comp_alloc@V?$_Tset_traits@PAUcolinfo_t@xlslib_core@@Vcolinfosort@2@V?$allocator@PAUcolinfo_t@xlslib_core@@@std@@$0A@@std@@@std@@QAEAAPAU?$_Tree_node@PAUcolinfo_t@xlslib_core@@PAX@2@XZ 10012db0 f i sheetrec.obj
 0001:00011db0       ??$forward@AAV?$_Tree_const_iterator@V?$_Tree_val@U?$_Tree_simple_types@PAVrowheight_t@xlslib_core@@@std@@@std@@@std@@@std@@YAAAV?$_Tree_const_iterator@V?$_Tree_val@U?$_Tree_simple_types@PAVrowheight_t@xlslib_core@@@std@@@std@@@0@AAV10@@Z 10012db0 f i sheetrec.obj
 0001:00011db0       ??0?$allocator@U?$_Tree_node@PAVHPSFitem@xlslib_core@@PAX@std@@@std@@QAE@XZ 10012db0 f i HPSF.obj
 0001:00011db0       ?_Myhead@?$_Tree_comp_alloc@V?$_Tset_traits@PAVHPSFitem@xlslib_core@@Vinsertsort2@2@V?$allocator@PAVHPSFitem@xlslib_core@@@std@@$0A@@std@@@std@@QAEAAPAU?$_Tree_node@PAVHPSFitem@xlslib_core@@PAX@2@XZ 10012db0 f i HPSF.obj
 0001:00011db0       ?_Get_second@?$_Compressed_pair@U?$_Wrap_alloc@V?$allocator@Urowblocksize_t@xlslib_core@@@std@@@std@@V?$_Vector_val@U?$_Simple_types@Urowblocksize_t@xlslib_core@@@std@@@2@$00@std@@QBEABV?$_Vector_val@U?$_Simple_types@Urowblocksize_t@xlslib_core@@@std@@@2@XZ 10012db0 f i sheetrec.obj
 0001:00011db0       ??0?$allocator@PAUHyperLink@xlslib_core@@@std@@QAE@XZ 10012db0 f i sheetrec.obj
 0001:00011db0       ?_Get_first@?$_Compressed_pair@U?$_Wrap_alloc@V?$allocator@V?$basic_string@DU?$char_traits@D@std@@V?$allocator@D@2@@std@@@std@@@std@@V?$_Vector_val@U?$_Simple_types@V?$basic_string@DU?$char_traits@D@std@@V?$allocator@D@2@@std@@@std@@@2@$00@std@@QAEAAU?$_Wrap_alloc@V?$allocator@V?$basic_string@DU?$char_traits@D@std@@V?$allocator@D@2@@std@@@std@@@2@XZ 10012db0 f i cbridge.obj
 0001:00011db0       ??$_Unchecked@PAV?$basic_string@_WU?$char_traits@_W@std@@V?$allocator@_W@2@@std@@@std@@YAPAV?$basic_string@_WU?$char_traits@_W@std@@V?$allocator@_W@2@@0@PAV10@@Z 10012db0 f i cbridge.obj
 0001:00011db0       ??$_Ptr_move_cat@NN@std@@YA?AU_Really_trivial_ptr_iterator_tag@0@ABQAN0@Z 10012db0 f i cbridge.obj
 0001:00011db0       ??$forward@AAPA_W@std@@YAAAPA_WAAPA_W@Z 10012db0 f i cbridge.obj
 0001:00011db0       ??$addressof@PAV?$basic_string@DU?$char_traits@D@std@@V?$allocator@D@2@@std@@@std@@YAPAPAV?$basic_string@DU?$char_traits@D@std@@V?$allocator@D@2@@0@AAPAV10@@Z 10012db0 f i olefs.obj
 0001:00011db0       ??$forward@ABQAVformat_t@xlslib_core@@@std@@YAABQAVformat_t@xlslib_core@@ABQAV12@@Z 10012db0 f i globalrec.obj
 0001:00011db0       ?_Left@?$_Tree_val@U?$_Tree_simple_types@PAVrowheight_t@xlslib_core@@@std@@@std@@SAAAPAU?$_Tree_node@PAVrowheight_t@xlslib_core@@PAX@2@PAU32@@Z 10012db0 f i sheetrec.obj
 0001:00011db0       ??0?$_Wrap_alloc@V?$allocator@PAVfont_t@xlslib_core@@@std@@@std@@QAE@XZ 10012db0 f i globalrec.obj
 0001:00011db0       ?_Get_second@?$_Compressed_pair@U?$_Wrap_alloc@V?$allocator@PAVCOleProp@xlslib_core@@@std@@@std@@V?$_Vector_val@U?$_Simple_types@PAVCOleProp@xlslib_core@@@std@@@2@$00@std@@QAEAAV?$_Vector_val@U?$_Simple_types@PAVCOleProp@xlslib_core@@@std@@@2@XZ 10012db0 f i oledoc.obj
 0001:00011db0       ??0?$_Wrap_alloc@V?$allocator@PAVxf_t@xlslib_core@@@std@@@std@@QAE@XZ 10012db0 f i globalrec.obj
 0001:00011db0       ??$forward@ABQAVcell_t@xlslib_core@@@std@@YAABQAVcell_t@xlslib_core@@ABQAV12@@Z 10012db0 f i sheetrec.obj
 0001:00011db0       ??$forward@ABQAVCOleProp@xlslib_core@@@std@@YAABQAVCOleProp@xlslib_core@@ABQAV12@@Z 10012db0 f i olefs.obj
 0001:00011db0       ?_Get_data@?$_Vector_alloc@U?$_Vec_base_types@PAVrange@xlslib_core@@V?$allocator@PAVrange@xlslib_core@@@std@@@std@@@std@@QBEABV?$_Vector_val@U?$_Simple_types@PAVrange@xlslib_core@@@std@@@2@XZ 10012db0 f i sheetrec.obj
 0001:00011db0       ?_Myhead@?$_Tree_comp_alloc@V?$_Tset_traits@PAVrowheight_t@xlslib_core@@Vrowheightsort@2@V?$allocator@PAVrowheight_t@xlslib_core@@@std@@$0A@@std@@@std@@QBEABQAU?$_Tree_node@PAVrowheight_t@xlslib_core@@PAX@2@XZ 10012db0 f i sheetrec.obj
 0001:00011db0       ??$forward@ABVinsertsort@xlslib_core@@@std@@YAABVinsertsort@xlslib_core@@ABV12@@Z 10012db0 f i sheetrec.obj
 0001:00011db0       ??$addressof@PAVcell_t@xlslib_core@@@std@@YAPAPAVcell_t@xlslib_core@@AAPAV12@@Z 10012db0 f i sheetrec.obj
 0001:00011db0       ??$forward@ABQAVworksheet@xlslib_core@@@std@@YAABQAVworksheet@xlslib_core@@ABQAV12@@Z 10012db0 f i workbook.obj
 0001:00011db0       ?_Get_second@?$_Compressed_pair@U?$_Wrap_alloc@V?$allocator@PBVlabel_t@xlslib_core@@@std@@@std@@V?$_Vector_val@U?$_Simple_types@PBVlabel_t@xlslib_core@@@std@@@2@$00@std@@QAEAAV?$_Vector_val@U?$_Simple_types@PBVlabel_t@xlslib_core@@@std@@@2@XZ 10012db0 f i globalrec.obj
 0001:00011db0       ??$move@AAU?$_Wrap_alloc@V?$allocator@_S@std@@@std@@@std@@YA$$QAU?$_Wrap_alloc@V?$allocator@_S@std@@@0@AAU10@@Z 10012db0 f i datast.obj
 0001:00011db0       ??$forward@AAPAPAVCOleProp@xlslib_core@@@std@@YAAAPAPAVCOleProp@xlslib_core@@AAPAPAV12@@Z 10012db0 f i olefs.obj
 0001:00011db0       ?_Myhead@?$_Tree_comp_alloc@V?$_Tset_traits@PAVcell_t@xlslib_core@@Vinsertsort@2@V?$allocator@PAVcell_t@xlslib_core@@@std@@$0A@@std@@@std@@QBEABQAU?$_Tree_node@PAVcell_t@xlslib_core@@PAX@2@XZ 10012db0 f i sheetrec.obj
 0001:00011db0       ?_Get_first@?$_Compressed_pair@U?$_Wrap_alloc@V?$allocator@_S@std@@@std@@V?$_String_val@U?$_Simple_types@_S@std@@@2@$00@std@@QBEABU?$_Wrap_alloc@V?$allocator@_S@std@@@2@XZ 10012db0 f i datast.obj
 0001:00011db0       ?_Get_first@?$_Compressed_pair@U?$_Wrap_alloc@V?$allocator@PAUDataValidation@xlslib_core@@@std@@@std@@V?$_Vector_val@U?$_Simple_types@PAUDataValidation@xlslib_core@@@std@@@2@$00@std@@QAEAAU?$_Wrap_alloc@V?$allocator@PAUDataValidation@xlslib_core@@@std@@@2@XZ 10012db0 f i sheetrec.obj
 0001:00011db0       ??$forward@ABUrowblocksize_t@xlslib_core@@@std@@YAABUrowblocksize_t@xlslib_core@@ABU12@@Z 10012db0 f i sheetrec.obj
 0001:00011db0       ??$addressof@PAU?$_Tree_node@PAVrowheight_t@xlslib_core@@PAX@std@@@std@@YAPAPAU?$_Tree_node@PAVrowheight_t@xlslib_core@@PAX@0@AAPAU10@@Z 10012db0 f i sheetrec.obj
 0001:00011db0       ??0?$_Wrap_alloc@V?$allocator@PAUDataValidation@xlslib_core@@@std@@@std@@QAE@XZ 10012db0 f i sheetrec.obj
 0001:00011db0       ?_Getal@?$_Vector_alloc@U?$_Vec_base_types@PAUHyperLink@xlslib_core@@V?$allocator@PAUHyperLink@xlslib_core@@@std@@@std@@@std@@QBEABU?$_Wrap_alloc@V?$allocator@PAUHyperLink@xlslib_core@@@std@@@2@XZ 10012db0 f i sheetrec.obj
 0001:00011db0       ??$forward@ABV?$basic_string@DU?$char_traits@D@std@@V?$allocator@D@2@@std@@@std@@YAABV?$basic_string@DU?$char_traits@D@std@@V?$allocator@D@2@@0@ABV10@@Z 10012db0 f i cbridge.obj
 0001:00011db0       ?_Getal@?$_String_alloc@U?$_String_base_types@_SV?$allocator@_S@std@@@std@@@std@@QBEABU?$_Wrap_alloc@V?$allocator@_S@std@@@2@XZ 10012db0 f i datast.obj
 0001:00011db0       ?_Getal@?$_Vector_alloc@U?$_Vec_base_types@PAVformat_t@xlslib_core@@V?$allocator@PAVformat_t@xlslib_core@@@std@@@std@@@std@@QAEAAU?$_Wrap_alloc@V?$allocator@PAVformat_t@xlslib_core@@@std@@@2@XZ 10012db0 f i globalrec.obj
 0001:00011db0       ?_Getal@?$_Tree_comp_alloc@V?$_Tset_traits@PAVcell_t@xlslib_core@@Vinsertsort@2@V?$allocator@PAVcell_t@xlslib_core@@@std@@$0A@@std@@@std@@QAEAAU?$_Wrap_alloc@V?$allocator@U?$_Tree_node@PAVcell_t@xlslib_core@@PAX@std@@@std@@@2@XZ 10012db0 f i sheetrec.obj
 0001:00011db0       ?_Get_first@?$_Compressed_pair@U?$_Wrap_alloc@V?$allocator@PAUstyle_t@xlslib_core@@@std@@@std@@V?$_Vector_val@U?$_Simple_types@PAUstyle_t@xlslib_core@@@std@@@2@$00@std@@QAEAAU?$_Wrap_alloc@V?$allocator@PAUstyle_t@xlslib_core@@@std@@@2@XZ 10012db0 f i globalrec.obj
 0001:00011db0       ?_Get_first@?$_Compressed_pair@Vrowheightsort@xlslib_core@@V?$_Compressed_pair@U?$_Wrap_alloc@V?$allocator@U?$_Tree_node@PAVrowheight_t@xlslib_core@@PAX@std@@@std@@@std@@V?$_Tree_val@U?$_Tree_simple_types@PAVrowheight_t@xlslib_core@@@std@@@2@$00@std@@$00@std@@QAEAAVrowheightsort@xlslib_core@@XZ 10012db0 f i sheetrec.obj
 0001:00011db0       ?_Get_second@?$_Compressed_pair@U?$_Wrap_alloc@V?$allocator@PAVfont_t@xlslib_core@@@std@@@std@@V?$_Vector_val@U?$_Simple_types@PAVfont_t@xlslib_core@@@std@@@2@$00@std@@QAEAAV?$_Vector_val@U?$_Simple_types@PAVfont_t@xlslib_core@@@std@@@2@XZ 10012db0 f i globalrec.obj
 0001:00011db0       ?_Myfirst@?$_Vector_alloc@U?$_Vec_base_types@PAVCUnit@xlslib_core@@V?$allocator@PAVCUnit@xlslib_core@@@std@@@std@@@std@@QAEAAPAPAVCUnit@xlslib_core@@XZ 10012db0 f i datast.obj
 0001:00011db0       ??$_Unfancy@PAVformat_t@xlslib_core@@@std@@YAPAPAVformat_t@xlslib_core@@PAPAV12@@Z 10012db0 f i globalrec.obj
 0001:00011db0       ??$_Unchecked@PAPAVfont_t@xlslib_core@@@std@@YAPAPAVfont_t@xlslib_core@@PAPAV12@@Z 10012db0 f i globalrec.obj
 0001:00011db0       ?_Get_first@?$_Compressed_pair@U?$_Wrap_alloc@V?$allocator@PAVworksheet@xlslib_core@@@std@@@std@@V?$_Vector_val@U?$_Simple_types@PAVworksheet@xlslib_core@@@std@@@2@$00@std@@QBEABU?$_Wrap_alloc@V?$allocator@PAVworksheet@xlslib_core@@@std@@@2@XZ 10012db0 f i workbook.obj
 0001:00011db0       ??$forward@AAV?$_Tree_const_iterator@V?$_Tree_val@U?$_Tree_simple_types@PAUcolinfo_t@xlslib_core@@@std@@@std@@@std@@@std@@YAAAV?$_Tree_const_iterator@V?$_Tree_val@U?$_Tree_simple_types@PAUcolinfo_t@xlslib_core@@@std@@@std@@@0@AAV10@@Z 10012db0 f i sheetrec.obj
 0001:00011db0       ??0?$allocator@Urowblocksize_t@xlslib_core@@@std@@QAE@XZ 10012db0 f i sheetrec.obj
 0001:00011db0       ??$forward@AAV?$basic_string@DU?$char_traits@D@std@@V?$allocator@D@2@@std@@@std@@YAAAV?$basic_string@DU?$char_traits@D@std@@V?$allocator@D@2@@0@AAV10@@Z 10012db0 f i cbridge.obj
 0001:00011db0       ?_Getal@?$_Vector_alloc@U?$_Vec_base_types@PAVboundsheet_t@xlslib_core@@V?$allocator@PAVboundsheet_t@xlslib_core@@@std@@@std@@@std@@QBEABU?$_Wrap_alloc@V?$allocator@PAVboundsheet_t@xlslib_core@@@std@@@2@XZ 10012db0 f i globalrec.obj
 0001:00011db0       ?_Get_second@?$_Compressed_pair@U?$_Wrap_alloc@V?$allocator@PAVformula_t@xlslib_core@@@std@@@std@@V?$_Vector_val@U?$_Simple_types@PAVformula_t@xlslib_core@@@std@@@2@$00@std@@QBEABV?$_Vector_val@U?$_Simple_types@PAVformula_t@xlslib_core@@@std@@@2@XZ 10012db0 f i sheetrec.obj
 0001:00011db0       ??0?$allocator@D@std@@QAE@XZ 10012db0 f i assert_assist.obj
 0001:00011db0       ?_Get_first@?$_Compressed_pair@U?$_Wrap_alloc@V?$allocator@PAUHyperLink@xlslib_core@@@std@@@std@@V?$_Vector_val@U?$_Simple_types@PAUHyperLink@xlslib_core@@@std@@@2@$00@std@@QAEAAU?$_Wrap_alloc@V?$allocator@PAUHyperLink@xlslib_core@@@std@@@2@XZ 10012db0 f i sheetrec.obj
 0001:00011db0       ?_Getcomp@?$_Tree_comp_alloc@V?$_Tset_traits@PAVHPSFitem@xlslib_core@@Vinsertsort2@2@V?$allocator@PAVHPSFitem@xlslib_core@@@std@@$0A@@std@@@std@@QBEABVinsertsort2@xlslib_core@@XZ 10012db0 f i HPSF.obj
 0001:00011db0       ?_Get_second@?$_Compressed_pair@U?$_Wrap_alloc@V?$allocator@PAVrange@xlslib_core@@@std@@@std@@V?$_Vector_val@U?$_Simple_types@PAVrange@xlslib_core@@@std@@@2@$00@std@@QAEAAV?$_Vector_val@U?$_Simple_types@PAVrange@xlslib_core@@@std@@@2@XZ 10012db0 f i sheetrec.obj
 0001:00011db0       ?_Getal@?$_Vector_alloc@U?$_Vec_base_types@PBVlabel_t@xlslib_core@@V?$allocator@PBVlabel_t@xlslib_core@@@std@@@std@@@std@@QBEABU?$_Wrap_alloc@V?$allocator@PBVlabel_t@xlslib_core@@@std@@@2@XZ 10012db0 f i globalrec.obj
 0001:00011db0       ?_Get_first@?$_Compressed_pair@VxfSorter@xlslib_core@@V?$_Compressed_pair@U?$_Wrap_alloc@V?$allocator@U?$_Tree_node@U?$pair@PAVxf_t@xlslib_core@@UborderedXft@2@@std@@PAX@std@@@std@@@std@@V?$_Tree_val@U?$_Tree_simple_types@U?$pair@PAVxf_t@xlslib_core@@UborderedXft@2@@std@@@std@@@2@$00@std@@$00@std@@QBEABVxfSorter@xlslib_core@@XZ 10012db0 f i range.obj
 0001:00011db0       ?_Getal@?$_Vector_alloc@U?$_Vec_base_types@PAVCUnit@xlslib_core@@V?$allocator@PAVCUnit@xlslib_core@@@std@@@std@@@std@@QBEABU?$_Wrap_alloc@V?$allocator@PAVCUnit@xlslib_core@@@std@@@2@XZ 10012db0 f i datast.obj
 0001:00011db0       ?_Get_data@?$_Vector_alloc@U?$_Vec_base_types@VCUnitStore@xlslib_core@@V?$allocator@VCUnitStore@xlslib_core@@@std@@@std@@@std@@QBEABV?$_Vector_val@U?$_Simple_types@VCUnitStore@xlslib_core@@@std@@@2@XZ 10012db0 f i datast.obj
 0001:00011db0       ?_Bx@?$_String_alloc@U?$_String_base_types@_SV?$allocator@_S@std@@@std@@@std@@QAEAAT_Bxty@?$_String_val@U?$_Simple_types@_S@std@@@2@XZ 10012db0 f i datast.obj
 0001:00011db0       ?_Get_second@?$_Compressed_pair@Vinsertsort2@xlslib_core@@V?$_Compressed_pair@U?$_Wrap_alloc@V?$allocator@U?$_Tree_node@PAVHPSFitem@xlslib_core@@PAX@std@@@std@@@std@@V?$_Tree_val@U?$_Tree_simple_types@PAVHPSFitem@xlslib_core@@@std@@@2@$00@std@@$00@std@@QBEABV?$_Compressed_pair@U?$_Wrap_alloc@V?$allocator@U?$_Tree_node@PAVHPSFitem@xlslib_core@@PAX@std@@@std@@@std@@V?$_Tree_val@U?$_Tree_simple_types@PAVHPSFitem@xlslib_core@@@std@@@2@$00@2@XZ 10012db0 f i HPSF.obj
 0001:00011db0       ?_Get_second@?$_Compressed_pair@U?$_Wrap_alloc@V?$allocator@Urowblocksize_t@xlslib_core@@@std@@@std@@V?$_Vector_val@U?$_Simple_types@Urowblocksize_t@xlslib_core@@@std@@@2@$00@std@@QAEAAV?$_Vector_val@U?$_Simple_types@Urowblocksize_t@xlslib_core@@@std@@@2@XZ 10012db0 f i sheetrec.obj
 0001:00011db0       ?_Get_first@?$_Compressed_pair@U?$_Wrap_alloc@V?$allocator@PAVformat_t@xlslib_core@@@std@@@std@@V?$_Vector_val@U?$_Simple_types@PAVformat_t@xlslib_core@@@std@@@2@$00@std@@QAEAAU?$_Wrap_alloc@V?$allocator@PAVformat_t@xlslib_core@@@std@@@2@XZ 10012db0 f i globalrec.obj
 0001:00011db0       ?_Get_first@?$_Compressed_pair@U?$_Wrap_alloc@V?$allocator@PAVrange_t@xlslib_core@@@std@@@std@@V?$_Vector_val@U?$_Simple_types@PAVrange_t@xlslib_core@@@std@@@2@$00@std@@QBEABU?$_Wrap_alloc@V?$allocator@PAVrange_t@xlslib_core@@@std@@@2@XZ 10012db0 f i sheetrec.obj
 0001:00011db0       ?_Get_first@?$_Compressed_pair@U?$_Wrap_alloc@V?$allocator@PAVworksheet@xlslib_core@@@std@@@std@@V?$_Vector_val@U?$_Simple_types@PAVworksheet@xlslib_core@@@std@@@2@$00@std@@QAEAAU?$_Wrap_alloc@V?$allocator@PAVworksheet@xlslib_core@@@std@@@2@XZ 10012db0 f i workbook.obj
 0001:00011db0       ??$addressof@$$CB_S@std@@YAPB_SAB_S@Z 10012db0 f i globalrec.obj
 0001:00011db0       ?_Get_second@?$_Compressed_pair@Vcolinfosort@xlslib_core@@V?$_Compressed_pair@U?$_Wrap_alloc@V?$allocator@U?$_Tree_node@PAUcolinfo_t@xlslib_core@@PAX@std@@@std@@@std@@V?$_Tree_val@U?$_Tree_simple_types@PAUcolinfo_t@xlslib_core@@@std@@@2@$00@std@@$00@std@@QBEABV?$_Compressed_pair@U?$_Wrap_alloc@V?$allocator@U?$_Tree_node@PAUcolinfo_t@xlslib_core@@PAX@std@@@std@@@std@@V?$_Tree_val@U?$_Tree_simple_types@PAUcolinfo_t@xlslib_core@@@std@@@2@$00@2@XZ 10012db0 f i sheetrec.obj
 0001:00011db0       ?_Get_first@?$_Compressed_pair@U?$_Wrap_alloc@V?$allocator@PAVCUnit@xlslib_core@@@std@@@std@@V?$_Vector_val@U?$_Simple_types@PAVCUnit@xlslib_core@@@std@@@2@$00@std@@QBEABU?$_Wrap_alloc@V?$allocator@PAVCUnit@xlslib_core@@@std@@@2@XZ 10012db0 f i datast.obj
 0001:00011db0       ?_Getal@?$_String_alloc@U?$_String_base_types@_WV?$allocator@_W@std@@@std@@@std@@QAEAAU?$_Wrap_alloc@V?$allocator@_W@std@@@2@XZ 10012db0 f i cbridge.obj
 0001:00011db0       ??$forward@_N@std@@YA$$QA_NAA_N@Z 10012db0 f i HPSF.obj
 0001:00011db0       ?_Get_second@?$_Compressed_pair@U?$_Wrap_alloc@V?$allocator@PAUDataValidation@xlslib_core@@@std@@@std@@V?$_Vector_val@U?$_Simple_types@PAUDataValidation@xlslib_core@@@std@@@2@$00@std@@QBEABV?$_Vector_val@U?$_Simple_types@PAUDataValidation@xlslib_core@@@std@@@2@XZ 10012db0 f i sheetrec.obj
 0001:00011db0       ?_Getal@?$_List_alloc@U?$_List_base_types@PAV?$basic_string@DU?$char_traits@D@std@@V?$allocator@D@2@@std@@V?$allocator@PAV?$basic_string@DU?$char_traits@D@std@@V?$allocator@D@2@@std@@@2@@std@@@std@@QBEABU?$_Wrap_alloc@V?$allocator@U?$_List_node@PAV?$basic_string@DU?$char_traits@D@std@@V?$allocator@D@2@@std@@PAX@std@@@std@@@2@XZ 10012db0 f i olefs.obj
 0001:00011db0       ??0?$_Wrap_alloc@V?$allocator@U?$_Tree_node@PAUcolinfo_t@xlslib_core@@PAX@std@@@std@@@std@@QAE@XZ 10012db0 f i sheetrec.obj
 0001:00011db0       ?_Getal@?$_Tree_comp_alloc@V?$_Tset_traits@PAVcell_t@xlslib_core@@Vinsertsort@2@V?$allocator@PAVcell_t@xlslib_core@@@std@@$0A@@std@@@std@@QBEABU?$_Wrap_alloc@V?$allocator@U?$_Tree_node@PAVcell_t@xlslib_core@@PAX@std@@@std@@@2@XZ 10012db0 f i sheetrec.obj
 0001:00011db0       ?_Getal@?$_Vector_alloc@U?$_Vec_base_types@PAVformula_t@xlslib_core@@V?$allocator@PAVformula_t@xlslib_core@@@std@@@std@@@std@@QAEAAU?$_Wrap_alloc@V?$allocator@PAVformula_t@xlslib_core@@@std@@@2@XZ 10012db0 f i sheetrec.obj
 0001:00011db0       ??$addressof@D@std@@YAPADAAD@Z 10012db0 f i binfile.obj
 0001:00011db0       ?_Getal@?$_Vector_alloc@U?$_Vec_base_types@VCUnitStore@xlslib_core@@V?$allocator@VCUnitStore@xlslib_core@@@std@@@std@@@std@@QBEABU?$_Wrap_alloc@V?$allocator@VCUnitStore@xlslib_core@@@std@@@2@XZ 10012db0 f i datast.obj
 0001:00011db0       ??$_Unchecked@PAPAVrange_t@xlslib_core@@@std@@YAPAPAVrange_t@xlslib_core@@PAPAV12@@Z 10012db0 f i sheetrec.obj
 0001:00011db0       ?_Get_data@?$_String_alloc@U?$_String_base_types@_SV?$allocator@_S@std@@@std@@@std@@QBEABV?$_String_val@U?$_Simple_types@_S@std@@@2@XZ 10012db0 f i datast.obj
 0001:00011db0       ??0?$_Wrap_alloc@V?$allocator@_S@std@@@std@@QAE@XZ 10012db0 f i format.obj
 0001:00011db0       ??$_Ptr_move_cat@PBVlabel_t@xlslib_core@@PBV12@@std@@YA?AU_Really_trivial_ptr_iterator_tag@0@ABQAPBVlabel_t@xlslib_core@@0@Z 10012db0 f i globalrec.obj
 0001:00011db0       ??$_Unchecked@PAPAUHyperLink@xlslib_core@@@std@@YAPAPAUHyperLink@xlslib_core@@PAPAU12@@Z 10012db0 f i sheetrec.obj
 0001:00011db0       ??0_Bxty@?$_String_val@U?$_Simple_types@D@std@@@std@@QAE@XZ 10012db0 f i assert_assist.obj
 0001:00011db0       ?_Left@?$_Tree_val@U?$_Tree_simple_types@PAVcell_t@xlslib_core@@@std@@@std@@SAAAPAU?$_Tree_node@PAVcell_t@xlslib_core@@PAX@2@PAU32@@Z 10012db0 f i sheetrec.obj
 0001:00011db0       ?_Getal@?$_Vector_alloc@U?$_Vec_base_types@PAVfont_t@xlslib_core@@V?$allocator@PAVfont_t@xlslib_core@@@std@@@std@@@std@@QAEAAU?$_Wrap_alloc@V?$allocator@PAVfont_t@xlslib_core@@@std@@@2@XZ 10012db0 f i globalrec.obj
 0001:00011db0       ?GetName@COleProp@xlslib_core@@QBEABV?$basic_string@DU?$char_traits@D@std@@V?$allocator@D@2@@std@@XZ 10012db0 f i oleprop.obj
 0001:00011db0       ?_Get_data@?$_List_alloc@U?$_List_base_types@PAV?$basic_string@DU?$char_traits@D@std@@V?$allocator@D@2@@std@@V?$allocator@PAV?$basic_string@DU?$char_traits@D@std@@V?$allocator@D@2@@std@@@2@@std@@@std@@QAEAAV?$_List_val@U?$_List_simple_types@PAV?$basic_string@DU?$char_traits@D@std@@V?$allocator@D@2@@std@@@std@@@2@XZ 10012db0 f i olefs.obj
 0001:00011db0       ??0?$allocator@VCUnitStore@xlslib_core@@@std@@QAE@XZ 10012db0 f i datast.obj
 0001:00011db0       ?_Myfirst@?$_Vector_alloc@U?$_Vec_base_types@Urowblocksize_t@xlslib_core@@V?$allocator@Urowblocksize_t@xlslib_core@@@std@@@std@@@std@@QAEAAPAUrowblocksize_t@xlslib_core@@XZ 10012db0 f i sheetrec.obj
 0001:00011db0       ?_Get_data@?$_Tree_comp_alloc@V?$_Tset_traits@U?$pair@PAVxf_t@xlslib_core@@UborderedXft@2@@std@@VxfSorter@xlslib_core@@V?$allocator@U?$pair@PAVxf_t@xlslib_core@@UborderedXft@2@@std@@@2@$0A@@std@@@std@@QBEABV?$_Tree_val@U?$_Tree_simple_types@U?$pair@PAVxf_t@xlslib_core@@UborderedXft@2@@std@@@std@@@2@XZ 10012db0 f i range.obj
 0001:00011db0       ??$forward@AAV?$_Tree_const_iterator@V?$_Tree_val@U?$_Tree_simple_types@U?$pair@PAVxf_t@xlslib_core@@UborderedXft@2@@std@@@std@@@std@@@std@@@std@@YAAAV?$_Tree_const_iterator@V?$_Tree_val@U?$_Tree_simple_types@U?$pair@PAVxf_t@xlslib_core@@UborderedXft@2@@std@@@std@@@std@@@0@AAV10@@Z 10012db0 f i range.obj
 0001:00011db0       ??$forward@V?$_Tree_const_iterator@V?$_Tree_val@U?$_Tree_simple_types@PAVcell_t@xlslib_core@@@std@@@std@@@std@@@std@@YA$$QAV?$_Tree_const_iterator@V?$_Tree_val@U?$_Tree_simple_types@PAVcell_t@xlslib_core@@@std@@@std@@@0@AAV10@@Z 10012db0 f i sheetrec.obj
 0001:00011db0       ?_Getal@?$_List_alloc@U?$_List_base_types@PAV?$basic_string@DU?$char_traits@D@std@@V?$allocator@D@2@@std@@V?$allocator@PAV?$basic_string@DU?$char_traits@D@std@@V?$allocator@D@2@@std@@@2@@std@@@std@@QAEAAU?$_Wrap_alloc@V?$allocator@U?$_List_node@PAV?$basic_string@DU?$char_traits@D@std@@V?$allocator@D@2@@std@@PAX@std@@@std@@@2@XZ 10012db0 f i olefs.obj
 0001:00011db0       ??0?$_Wrap_alloc@V?$allocator@PAVboundsheet_t@xlslib_core@@@std@@@std@@QAE@XZ 10012db0 f i globalrec.obj
 0001:00011db0       ??$_Unfancy@PAVfont_t@xlslib_core@@@std@@YAPAPAVfont_t@xlslib_core@@PAPAV12@@Z 10012db0 f i globalrec.obj
 0001:00011db0       ?_Get_second@?$_Compressed_pair@U?$_Wrap_alloc@V?$allocator@U?$_List_node@PAV?$basic_string@DU?$char_traits@D@std@@V?$allocator@D@2@@std@@PAX@std@@@std@@@std@@V?$_List_val@U?$_List_simple_types@PAV?$basic_string@DU?$char_traits@D@std@@V?$allocator@D@2@@std@@@std@@@2@$00@std@@QBEABV?$_List_val@U?$_List_simple_types@PAV?$basic_string@DU?$char_traits@D@std@@V?$allocator@D@2@@std@@@std@@@2@XZ 10012db0 f i olefs.obj
 0001:00011db0       ?_Get_second@?$_Compressed_pair@VxfSorter@xlslib_core@@V?$_Compressed_pair@U?$_Wrap_alloc@V?$allocator@U?$_Tree_node@U?$pair@PAVxf_t@xlslib_core@@UborderedXft@2@@std@@PAX@std@@@std@@@std@@V?$_Tree_val@U?$_Tree_simple_types@U?$pair@PAVxf_t@xlslib_core@@UborderedXft@2@@std@@@std@@@2@$00@std@@$00@std@@QAEAAV?$_Compressed_pair@U?$_Wrap_alloc@V?$allocator@U?$_Tree_node@U?$pair@PAVxf_t@xlslib_core@@UborderedXft@2@@std@@PAX@std@@@std@@@std@@V?$_Tree_val@U?$_Tree_simple_types@U?$pair@PAVxf_t@xlslib_core@@UborderedXft@2@@std@@@std@@@2@$00@2@XZ 10012db0 f i range.obj
 0001:00011db0       ??$_Ptr_move_cat@Urowblocksize_t@xlslib_core@@U12@@std@@YA?AU_Trivially_copyable_ptr_iterator_tag@0@ABQAUrowblocksize_t@xlslib_core@@0@Z 10012db0 f i sheetrec.obj
 0001:00011db0       ??$_Unchecked@PAVCUnitStore@xlslib_core@@@std@@YAPAVCUnitStore@xlslib_core@@PAV12@@Z 10012db0 f i datast.obj
 0001:00011db0       ??$_Ptr_move_cat@PAVxf_t@xlslib_core@@PAV12@@std@@YA?AU_Really_trivial_ptr_iterator_tag@0@ABQAPAVxf_t@xlslib_core@@0@Z 10012db0 f i globalrec.obj
 0001:00011db0       ?pointer_to@?$pointer_traits@PBD@std@@SAPBDABD@Z 10012db0 f i globalrec.obj
 0001:00011db0       ??$forward@AAUrowblocksize_t@xlslib_core@@@std@@YAAAUrowblocksize_t@xlslib_core@@AAU12@@Z 10012db0 f i sheetrec.obj
 0001:00011db0       ?_Getal@?$_Vector_alloc@U?$_Vec_base_types@PAUHyperLink@xlslib_core@@V?$allocator@PAUHyperLink@xlslib_core@@@std@@@std@@@std@@QAEAAU?$_Wrap_alloc@V?$allocator@PAUHyperLink@xlslib_core@@@std@@@2@XZ 10012db0 f i sheetrec.obj
 0001:00011db0       ?_Get_second@?$_Compressed_pair@U?$_Wrap_alloc@V?$allocator@V?$basic_string@DU?$char_traits@D@std@@V?$allocator@D@2@@std@@@std@@@std@@V?$_Vector_val@U?$_Simple_types@V?$basic_string@DU?$char_traits@D@std@@V?$allocator@D@2@@std@@@std@@@2@$00@std@@QBEABV?$_Vector_val@U?$_Simple_types@V?$basic_string@DU?$char_traits@D@std@@V?$allocator@D@2@@std@@@std@@@2@XZ 10012db0 f i cbridge.obj
 0001:00011db0       ?_Getal@?$_String_alloc@U?$_String_base_types@DV?$allocator@D@std@@@std@@@std@@QAEAAU?$_Wrap_alloc@V?$allocator@D@std@@@2@XZ 10012db0 f i assert_assist.obj
 0001:00011db0       ??$forward@ABVinsertsort2@xlslib_core@@@std@@YAABVinsertsort2@xlslib_core@@ABV12@@Z 10012db0 f i HPSF.obj
 0001:00011db0       ?_Getal@?$_Vector_alloc@U?$_Vec_base_types@NV?$allocator@N@std@@@std@@@std@@QBEABU?$_Wrap_alloc@V?$allocator@N@std@@@2@XZ 10012db0 f i cbridge.obj
 0001:00011db0       ??$forward@AAPAUstyle_t@xlslib_core@@@std@@YAAAPAUstyle_t@xlslib_core@@AAPAU12@@Z 10012db0 f i globalrec.obj
 0001:00011db0       ??$forward@ABQAVCUnit@xlslib_core@@@std@@YAABQAVCUnit@xlslib_core@@ABQAV12@@Z 10012db0 f i datast.obj
 0001:00011db0       ?_Kfn@?$_Tset_traits@PAVrowheight_t@xlslib_core@@Vrowheightsort@2@V?$allocator@PAVrowheight_t@xlslib_core@@@std@@$0A@@std@@SAABQAVrowheight_t@xlslib_core@@ABQAV34@@Z 10012db0 f i sheetrec.obj
 0001:00011db0       ?_Kfn@?$_Tset_traits@U?$pair@PAVxf_t@xlslib_core@@UborderedXft@2@@std@@VxfSorter@xlslib_core@@V?$allocator@U?$pair@PAVxf_t@xlslib_core@@UborderedXft@2@@std@@@2@$0A@@std@@SAABU?$pair@PAVxf_t@xlslib_core@@UborderedXft@2@@2@ABU32@@Z 10012db0 f i range.obj
 0001:00011db0       ??$addressof@QAVrange_t@xlslib_core@@@std@@YAPBQAVrange_t@xlslib_core@@ABQAV12@@Z 10012db0 f i sheetrec.obj
 0001:00011db0       ?_Get_second@?$_Compressed_pair@U?$_Wrap_alloc@V?$allocator@PAVrange_t@xlslib_core@@@std@@@std@@V?$_Vector_val@U?$_Simple_types@PAVrange_t@xlslib_core@@@std@@@2@$00@std@@QAEAAV?$_Vector_val@U?$_Simple_types@PAVrange_t@xlslib_core@@@std@@@2@XZ 10012db0 f i sheetrec.obj
 0001:00011db0       ?_Getcomp@?$_Tree_comp_alloc@V?$_Tset_traits@PAUcolinfo_t@xlslib_core@@Vcolinfosort@2@V?$allocator@PAUcolinfo_t@xlslib_core@@@std@@$0A@@std@@@std@@QBEABVcolinfosort@xlslib_core@@XZ 10012db0 f i sheetrec.obj
 0001:00011db0       ??$_Unfancy@_W@std@@YAPA_WPA_W@Z 10012db0 f i cbridge.obj
 0001:00011db0       ??$forward@AAPAU?$_Tree_node@PAUcolinfo_t@xlslib_core@@PAX@std@@@std@@YAAAPAU?$_Tree_node@PAUcolinfo_t@xlslib_core@@PAX@0@AAPAU10@@Z 10012db0 f i sheetrec.obj
 0001:00011db0       ??0?$allocator@PAUstyle_t@xlslib_core@@@std@@QAE@XZ 10012db0 f i globalrec.obj
 0001:00011db0       ?_Getcomp@?$_Tree_comp_alloc@V?$_Tset_traits@PAVcell_t@xlslib_core@@Vinsertsort@2@V?$allocator@PAVcell_t@xlslib_core@@@std@@$0A@@std@@@std@@QBEABVinsertsort@xlslib_core@@XZ 10012db0 f i sheetrec.obj
 0001:00011db0       ??$forward@AAPAVformat_t@xlslib_core@@@std@@YAAAPAVformat_t@xlslib_core@@AAPAV12@@Z 10012db0 f i globalrec.obj
 0001:00011db0       ?_Myhead@?$_Tree_comp_alloc@V?$_Tset_traits@U?$pair@PAVxf_t@xlslib_core@@UborderedXft@2@@std@@VxfSorter@xlslib_core@@V?$allocator@U?$pair@PAVxf_t@xlslib_core@@UborderedXft@2@@std@@@2@$0A@@std@@@std@@QAEAAPAU?$_Tree_node@U?$pair@PAVxf_t@xlslib_core@@UborderedXft@2@@std@@PAX@2@XZ 10012db0 f i range.obj
 0001:00011db0       ??$addressof@PAU?$_List_node@PAV?$basic_string@DU?$char_traits@D@std@@V?$allocator@D@2@@std@@PAX@std@@@std@@YAPAPAU?$_List_node@PAV?$basic_string@DU?$char_traits@D@std@@V?$allocator@D@2@@std@@PAX@0@AAPAU10@@Z 10012db0 f i olefs.obj
 0001:00011db0       ?_Getal@?$_Vector_alloc@U?$_Vec_base_types@PAUDataValidation@xlslib_core@@V?$allocator@PAUDataValidation@xlslib_core@@@std@@@std@@@std@@QAEAAU?$_Wrap_alloc@V?$allocator@PAUDataValidation@xlslib_core@@@std@@@2@XZ 10012db0 f i sheetrec.obj
 0001:00011db0       ?_Getal@?$_Vector_alloc@U?$_Vec_base_types@PAVworksheet@xlslib_core@@V?$allocator@PAVworksheet@xlslib_core@@@std@@@std@@@std@@QBEABU?$_Wrap_alloc@V?$allocator@PAVworksheet@xlslib_core@@@std@@@2@XZ 10012db0 f i workbook.obj
 0001:00011db0       ??$_Unchecked@PAPAVformula_t@xlslib_core@@@std@@YAPAPAVformula_t@xlslib_core@@PAPAV12@@Z 10012db0 f i sheetrec.obj
 0001:00011db0       ?_Get_data@?$_Vector_alloc@U?$_Vec_base_types@PAVCUnit@xlslib_core@@V?$allocator@PAVCUnit@xlslib_core@@@std@@@std@@@std@@QBEABV?$_Vector_val@U?$_Simple_types@PAVCUnit@xlslib_core@@@std@@@2@XZ 10012db0 f i datast.obj
 0001:00011db0       ??$forward@ABVxfSorter@xlslib_core@@@std@@YAABVxfSorter@xlslib_core@@ABV12@@Z 10012db0 f i range.obj
 0001:00011db0       ??$addressof@I@std@@YAPAIAAI@Z 10012db0 f i sheetrec.obj
 0001:00011db0       ?_Get_first@?$_Compressed_pair@U?$_Wrap_alloc@V?$allocator@PAVxf_t@xlslib_core@@@std@@@std@@V?$_Vector_val@U?$_Simple_types@PAVxf_t@xlslib_core@@@std@@@2@$00@std@@QBEABU?$_Wrap_alloc@V?$allocator@PAVxf_t@xlslib_core@@@std@@@2@XZ 10012db0 f i globalrec.obj
 0001:00011db0       ??$forward@AAPAVfont_t@xlslib_core@@@std@@YAAAPAVfont_t@xlslib_core@@AAPAV12@@Z 10012db0 f i globalrec.obj
 0001:00011db0       ??$forward@ABQAVxf_t@xlslib_core@@@std@@YAABQAVxf_t@xlslib_core@@ABQAV12@@Z 10012db0 f i globalrec.obj
 0001:00011db0       ??$_Ptr_move_cat@PAVrange_t@xlslib_core@@PAV12@@std@@YA?AU_Really_trivial_ptr_iterator_tag@0@ABQAPAVrange_t@xlslib_core@@0@Z 10012db0 f i sheetrec.obj
 0001:00011db0       ?_Get_first@?$_Compressed_pair@U?$_Wrap_alloc@V?$allocator@Urowblocksize_t@xlslib_core@@@std@@@std@@V?$_Vector_val@U?$_Simple_types@Urowblocksize_t@xlslib_core@@@std@@@2@$00@std@@QAEAAU?$_Wrap_alloc@V?$allocator@Urowblocksize_t@xlslib_core@@@std@@@2@XZ 10012db0 f i sheetrec.obj
 0001:00011db0       ?_Get_first@?$_Compressed_pair@U?$_Wrap_alloc@V?$allocator@PAVCUnit@xlslib_core@@@std@@@std@@V?$_Vector_val@U?$_Simple_types@PAVCUnit@xlslib_core@@@std@@@2@$00@std@@QAEAAU?$_Wrap_alloc@V?$allocator@PAVCUnit@xlslib_core@@@std@@@2@XZ 10012db0 f i datast.obj
 0001:00011db0       ??0?$allocator@PBVlabel_t@xlslib_core@@@std@@QAE@XZ 10012db0 f i globalrec.obj
 0001:00011db0       ??$addressof@$$CBV?$basic_string@DU?$char_traits@D@std@@V?$allocator@D@2@@std@@@std@@YAPBV?$basic_string@DU?$char_traits@D@std@@V?$allocator@D@2@@0@ABV10@@Z 10012db0 f i cbridge.obj
 0001:00011db0       ??$addressof@QAVxf_t@xlslib_core@@@std@@YAPBQAVxf_t@xlslib_core@@ABQAV12@@Z 10012db0 f i globalrec.obj
 0001:00011db0       ?_Left@?$_Tree_val@U?$_Tree_simple_types@PAUcolinfo_t@xlslib_core@@@std@@@std@@SAAAPAU?$_Tree_node@PAUcolinfo_t@xlslib_core@@PAX@2@PAU32@@Z 10012db0 f i sheetrec.obj
 0001:00011db0       ?_Get_data@?$_Vector_alloc@U?$_Vec_base_types@V?$basic_string@_WU?$char_traits@_W@std@@V?$allocator@_W@2@@std@@V?$allocator@V?$basic_string@_WU?$char_traits@_W@std@@V?$allocator@_W@2@@std@@@2@@std@@@std@@QBEABV?$_Vector_val@U?$_Simple_types@V?$basic_string@_WU?$char_traits@_W@std@@V?$allocator@_W@2@@std@@@std@@@2@XZ 10012db0 f i cbridge.obj
 0001:00011db0       ?_Get_data@?$_List_alloc@U?$_List_base_types@PAV?$basic_string@DU?$char_traits@D@std@@V?$allocator@D@2@@std@@V?$allocator@PAV?$basic_string@DU?$char_traits@D@std@@V?$allocator@D@2@@std@@@2@@std@@@std@@QBEABV?$_List_val@U?$_List_simple_types@PAV?$basic_string@DU?$char_traits@D@std@@V?$allocator@D@2@@std@@@std@@@2@XZ 10012db0 f i olefs.obj
 0001:00011db0       ?_Myhead@?$_Tree_comp_alloc@V?$_Tset_traits@PAVcell_t@xlslib_core@@Vinsertsort@2@V?$allocator@PAVcell_t@xlslib_core@@@std@@$0A@@std@@@std@@QAEAAPAU?$_Tree_node@PAVcell_t@xlslib_core@@PAX@2@XZ 10012db0 f i sheetrec.obj
 0001:00011db0       ??$_Unfancy@PAVCOleProp@xlslib_core@@@std@@YAPAPAVCOleProp@xlslib_core@@PAPAV12@@Z 10012db0 f i olefs.obj
 0001:00011db0       ?_Get_first@?$_Compressed_pair@U?$_Wrap_alloc@V?$allocator@PAUHyperLink@xlslib_core@@@std@@@std@@V?$_Vector_val@U?$_Simple_types@PAUHyperLink@xlslib_core@@@std@@@2@$00@std@@QBEABU?$_Wrap_alloc@V?$allocator@PAUHyperLink@xlslib_core@@@std@@@2@XZ 10012db0 f i sheetrec.obj
 0001:00011db0       ??$forward@V?$_Tree_const_iterator@V?$_Tree_val@U?$_Tree_simple_types@PAUcolinfo_t@xlslib_core@@@std@@@std@@@std@@@std@@YA$$QAV?$_Tree_const_iterator@V?$_Tree_val@U?$_Tree_simple_types@PAUcolinfo_t@xlslib_core@@@std@@@std@@@0@AAV10@@Z 10012db0 f i sheetrec.obj
 0001:00011db0       ?select_on_container_copy_construction@?$allocator_traits@V?$allocator@D@std@@@std@@SA?AV?$allocator@D@2@ABV32@@Z 10012db0 f i assert_assist.obj
 0001:00011db0       ?pointer_to@?$pointer_traits@PAD@std@@SAPADAAD@Z 10012db0 f i binfile.obj
 0001:00011db0       ?_Get_first@?$_Compressed_pair@U?$_Wrap_alloc@V?$allocator@PAVfont_t@xlslib_core@@@std@@@std@@V?$_Vector_val@U?$_Simple_types@PAVfont_t@xlslib_core@@@std@@@2@$00@std@@QAEAAU?$_Wrap_alloc@V?$allocator@PAVfont_t@xlslib_core@@@std@@@2@XZ 10012db0 f i globalrec.obj
 0001:00011db0       ?_Get_data@?$_Vector_alloc@U?$_Vec_base_types@NV?$allocator@N@std@@@std@@@std@@QBEABV?$_Vector_val@U?$_Simple_types@N@std@@@2@XZ 10012db0 f i cbridge.obj
 0001:00011db0       ?_Myfirst@?$_Vector_alloc@U?$_Vec_base_types@PAVxf_t@xlslib_core@@V?$allocator@PAVxf_t@xlslib_core@@@std@@@std@@@std@@QAEAAPAPAVxf_t@xlslib_core@@XZ 10012db0 f i globalrec.obj
 0001:00011db0       ?_Get_data@?$_Vector_alloc@U?$_Vec_base_types@PAVCOleProp@xlslib_core@@V?$allocator@PAVCOleProp@xlslib_core@@@std@@@std@@@std@@QAEAAV?$_Vector_val@U?$_Simple_types@PAVCOleProp@xlslib_core@@@std@@@2@XZ 10012db0 f i oledoc.obj
 0001:00011db0       ?_Myfirst@?$_Vector_alloc@U?$_Vec_base_types@PBVlabel_t@xlslib_core@@V?$allocator@PBVlabel_t@xlslib_core@@@std@@@std@@@std@@QBEABQAPBVlabel_t@xlslib_core@@XZ 10012db0 f i datast.obj
 0001:00011db0       ?_Get_second@?$_Compressed_pair@VxfSorter@xlslib_core@@V?$_Compressed_pair@U?$_Wrap_alloc@V?$allocator@U?$_Tree_node@U?$pair@PAVxf_t@xlslib_core@@UborderedXft@2@@std@@PAX@std@@@std@@@std@@V?$_Tree_val@U?$_Tree_simple_types@U?$pair@PAVxf_t@xlslib_core@@UborderedXft@2@@std@@@std@@@2@$00@std@@$00@std@@QBEABV?$_Compressed_pair@U?$_Wrap_alloc@V?$allocator@U?$_Tree_node@U?$pair@PAVxf_t@xlslib_core@@UborderedXft@2@@std@@PAX@std@@@std@@@std@@V?$_Tree_val@U?$_Tree_simple_types@U?$pair@PAVxf_t@xlslib_core@@UborderedXft@2@@std@@@std@@@2@$00@2@XZ 10012db0 f i range.obj
 0001:00011db0       ?_Getal@?$_Vector_alloc@U?$_Vec_base_types@PAVCOleProp@xlslib_core@@V?$allocator@PAVCOleProp@xlslib_core@@@std@@@std@@@std@@QBEABU?$_Wrap_alloc@V?$allocator@PAVCOleProp@xlslib_core@@@std@@@2@XZ 10012db0 f i olefs.obj
 0001:00011db0       ??$forward@ABU?$pair@PAVxf_t@xlslib_core@@UborderedXft@2@@std@@@std@@YAABU?$pair@PAVxf_t@xlslib_core@@UborderedXft@2@@0@ABU10@@Z 10012db0 f i range.obj
 0001:00011db0       ?_Myfirst@?$_Vector_alloc@U?$_Vec_base_types@PAVworksheet@xlslib_core@@V?$allocator@PAVworksheet@xlslib_core@@@std@@@std@@@std@@QBEABQAPAVworksheet@xlslib_core@@XZ 10012db0 f i workbook.obj
 0001:00011db0       ?_Get_data@?$_Vector_alloc@U?$_Vec_base_types@Urowblocksize_t@xlslib_core@@V?$allocator@Urowblocksize_t@xlslib_core@@@std@@@std@@@std@@QBEABV?$_Vector_val@U?$_Simple_types@Urowblocksize_t@xlslib_core@@@std@@@2@XZ 10012db0 f i sheetrec.obj
 0001:00011db0       ??$forward@ABQAV?$basic_string@DU?$char_traits@D@std@@V?$allocator@D@2@@std@@@std@@YAABQAV?$basic_string@DU?$char_traits@D@std@@V?$allocator@D@2@@0@ABQAV10@@Z 10012db0 f i olefs.obj
 0001:00011db0       ??$addressof@$$CBD@std@@YAPBDABD@Z 10012db0 f i globalrec.obj
 0001:00011db0       ?_Get_data@?$_Vector_alloc@U?$_Vec_base_types@PAVrange_t@xlslib_core@@V?$allocator@PAVrange_t@xlslib_core@@@std@@@std@@@std@@QBEABV?$_Vector_val@U?$_Simple_types@PAVrange_t@xlslib_core@@@std@@@2@XZ 10012db0 f i sheetrec.obj
 0001:00011db0       ?_Get_second@?$_Compressed_pair@U?$_Wrap_alloc@V?$allocator@U?$_Tree_node@PAVcell_t@xlslib_core@@PAX@std@@@std@@@std@@V?$_Tree_val@U?$_Tree_simple_types@PAVcell_t@xlslib_core@@@std@@@2@$00@std@@QBEABV?$_Tree_val@U?$_Tree_simple_types@PAVcell_t@xlslib_core@@@std@@@2@XZ 10012db0 f i sheetrec.obj
 0001:00011db0       ??$addressof@$$CBV?$basic_string@_WU?$char_traits@_W@std@@V?$allocator@_W@2@@std@@@std@@YAPBV?$basic_string@_WU?$char_traits@_W@std@@V?$allocator@_W@2@@0@ABV10@@Z 10012db0 f i cbridge.obj
 0001:00011db0       ??0?$allocator@PAVformat_t@xlslib_core@@@std@@QAE@XZ 10012db0 f i globalrec.obj
 0001:00011db0       ??$_Unfancy@PAVworksheet@xlslib_core@@@std@@YAPAPAVworksheet@xlslib_core@@PAPAV12@@Z 10012db0 f i workbook.obj
 0001:00011db0       ?_Myfirst@?$_Vector_alloc@U?$_Vec_base_types@VCUnitStore@xlslib_core@@V?$allocator@VCUnitStore@xlslib_core@@@std@@@std@@@std@@QAEAAPAVCUnitStore@xlslib_core@@XZ 10012db0 f i datast.obj
 0001:00011db0       ?_Get_data@?$_Vector_alloc@U?$_Vec_base_types@PAVrange_t@xlslib_core@@V?$allocator@PAVrange_t@xlslib_core@@@std@@@std@@@std@@QAEAAV?$_Vector_val@U?$_Simple_types@PAVrange_t@xlslib_core@@@std@@@2@XZ 10012db0 f i sheetrec.obj
 0001:00011db0       ?_Getal@?$_Vector_alloc@U?$_Vec_base_types@PAVxf_t@xlslib_core@@V?$allocator@PAVxf_t@xlslib_core@@@std@@@std@@@std@@QBEABU?$_Wrap_alloc@V?$allocator@PAVxf_t@xlslib_core@@@std@@@2@XZ 10012db0 f i globalrec.obj
 0001:00011db0       ?_Get_second@?$_Compressed_pair@U?$_Wrap_alloc@V?$allocator@I@std@@@std@@V?$_Vector_val@U?$_Simple_types@I@std@@@2@$00@std@@QBEABV?$_Vector_val@U?$_Simple_types@I@std@@@2@XZ 10012db0 f i sheetrec.obj
 0001:00011db0       ??$forward@AAV?$_Tree_const_iterator@V?$_Tree_val@U?$_Tree_simple_types@PAVHPSFitem@xlslib_core@@@std@@@std@@@std@@@std@@YAAAV?$_Tree_const_iterator@V?$_Tree_val@U?$_Tree_simple_types@PAVHPSFitem@xlslib_core@@@std@@@std@@@0@AAV10@@Z 10012db0 f i HPSF.obj
 0001:00011db0       ?_Myfirst@?$_Vector_alloc@U?$_Vec_base_types@PAVboundsheet_t@xlslib_core@@V?$allocator@PAVboundsheet_t@xlslib_core@@@std@@@std@@@std@@QAEAAPAPAVboundsheet_t@xlslib_core@@XZ 10012db0 f i globalrec.obj
 0001:00011db0       ??0?$allocator@V?$basic_string@_WU?$char_traits@_W@std@@V?$allocator@_W@2@@std@@@std@@QAE@XZ 10012db0 f i cbridge.obj
 0001:00011db0       ??$move@AAU?$_Wrap_alloc@V?$allocator@_W@std@@@std@@@std@@YA$$QAU?$_Wrap_alloc@V?$allocator@_W@std@@@0@AAU10@@Z 10012db0 f i cbridge.obj
 0001:00011db0       ?_Myfirst@?$_Vector_alloc@U?$_Vec_base_types@PAUstyle_t@xlslib_core@@V?$allocator@PAUstyle_t@xlslib_core@@@std@@@std@@@std@@QBEABQAPAUstyle_t@xlslib_core@@XZ 10012db0 f i globalrec.obj
 0001:00011db0       ?_Getal@?$_String_alloc@U?$_String_base_types@_SV?$allocator@_S@std@@@std@@@std@@QAEAAU?$_Wrap_alloc@V?$allocator@_S@std@@@2@XZ 10012db0 f i datast.obj
 0001:00011db0       ??$move@AAUrowblocksize_t@xlslib_core@@@std@@YA$$QAUrowblocksize_t@xlslib_core@@AAU12@@Z 10012db0 f i sheetrec.obj
 0001:00011db0       ?select_on_container_copy_construction@?$allocator_traits@V?$allocator@_S@std@@@std@@SA?AV?$allocator@_S@2@ABV32@@Z 10012db0 f i datast.obj
 0001:00011db0       ??$_Unchecked@PAPAVCOleProp@xlslib_core@@@std@@YAPAPAVCOleProp@xlslib_core@@PAPAV12@@Z 10012db0 f i olefs.obj
 0001:00011db0       ??$_Ptr_move_cat@PAVworksheet@xlslib_core@@PAV12@@std@@YA?AU_Really_trivial_ptr_iterator_tag@0@ABQAPAVworksheet@xlslib_core@@0@Z 10012db0 f i workbook.obj
 0001:00011db0       ?_Get_second@?$_Compressed_pair@U?$_Wrap_alloc@V?$allocator@PAVformula_t@xlslib_core@@@std@@@std@@V?$_Vector_val@U?$_Simple_types@PAVformula_t@xlslib_core@@@std@@@2@$00@std@@QAEAAV?$_Vector_val@U?$_Simple_types@PAVformula_t@xlslib_core@@@std@@@2@XZ 10012db0 f i sheetrec.obj
 0001:00011db0       ?_Get_second@?$_Compressed_pair@U?$_Wrap_alloc@V?$allocator@U?$_Tree_node@U?$pair@PAVxf_t@xlslib_core@@UborderedXft@2@@std@@PAX@std@@@std@@@std@@V?$_Tree_val@U?$_Tree_simple_types@U?$pair@PAVxf_t@xlslib_core@@UborderedXft@2@@std@@@std@@@2@$00@std@@QBEABV?$_Tree_val@U?$_Tree_simple_types@U?$pair@PAVxf_t@xlslib_core@@UborderedXft@2@@std@@@std@@@2@XZ 10012db0 f i range.obj
 0001:00011db0       ?_Myfirst@?$_Vector_alloc@U?$_Vec_base_types@PAUHyperLink@xlslib_core@@V?$allocator@PAUHyperLink@xlslib_core@@@std@@@std@@@std@@QBEABQAPAUHyperLink@xlslib_core@@XZ 10012db0 f i sheetrec.obj
 0001:00011db0       ?_Get_first@?$_Compressed_pair@U?$_Wrap_alloc@V?$allocator@V?$basic_string@_WU?$char_traits@_W@std@@V?$allocator@_W@2@@std@@@std@@@std@@V?$_Vector_val@U?$_Simple_types@V?$basic_string@_WU?$char_traits@_W@std@@V?$allocator@_W@2@@std@@@std@@@2@$00@std@@QAEAAU?$_Wrap_alloc@V?$allocator@V?$basic_string@_WU?$char_traits@_W@std@@V?$allocator@_W@2@@std@@@std@@@2@XZ 10012db0 f i cbridge.obj
 0001:00011db0       ??$_Ptr_move_cat@PAUHyperLink@xlslib_core@@PAU12@@std@@YA?AU_Really_trivial_ptr_iterator_tag@0@ABQAPAUHyperLink@xlslib_core@@0@Z 10012db0 f i sheetrec.obj
 0001:00011db0       ?_Bx@?$_String_alloc@U?$_String_base_types@_WV?$allocator@_W@std@@@std@@@std@@QAEAAT_Bxty@?$_String_val@U?$_Simple_types@_W@std@@@2@XZ 10012db0 f i cbridge.obj
 0001:00011db0       ?_Get_second@?$_Compressed_pair@U?$_Wrap_alloc@V?$allocator@U?$_Tree_node@PAUcolinfo_t@xlslib_core@@PAX@std@@@std@@@std@@V?$_Tree_val@U?$_Tree_simple_types@PAUcolinfo_t@xlslib_core@@@std@@@2@$00@std@@QAEAAV?$_Tree_val@U?$_Tree_simple_types@PAUcolinfo_t@xlslib_core@@@std@@@2@XZ 10012db0 f i sheetrec.obj
 0001:00011db0       ?_Get_second@?$_Compressed_pair@U?$_Wrap_alloc@V?$allocator@PAUstyle_t@xlslib_core@@@std@@@std@@V?$_Vector_val@U?$_Simple_types@PAUstyle_t@xlslib_core@@@std@@@2@$00@std@@QAEAAV?$_Vector_val@U?$_Simple_types@PAUstyle_t@xlslib_core@@@std@@@2@XZ 10012db0 f i globalrec.obj
 0001:00011db0       ??$_Unfancy@I@std@@YAPAIPAI@Z 10012db0 f i sheetrec.obj
 0001:00011db0       ?_Get_second@?$_Compressed_pair@U?$_Wrap_alloc@V?$allocator@PAVboundsheet_t@xlslib_core@@@std@@@std@@V?$_Vector_val@U?$_Simple_types@PAVboundsheet_t@xlslib_core@@@std@@@2@$00@std@@QBEABV?$_Vector_val@U?$_Simple_types@PAVboundsheet_t@xlslib_core@@@std@@@2@XZ 10012db0 f i datast.obj
 0001:00011db0       ?_Get_first@?$_Compressed_pair@U?$_Wrap_alloc@V?$allocator@N@std@@@std@@V?$_Vector_val@U?$_Simple_types@N@std@@@2@$00@std@@QAEAAU?$_Wrap_alloc@V?$allocator@N@std@@@2@XZ 10012db0 f i cbridge.obj
 0001:00011db0       ??0?$allocator@V?$basic_string@DU?$char_traits@D@std@@V?$allocator@D@2@@std@@@std@@QAE@XZ 10012db0 f i cbridge.obj
 0001:00011db0       ?_Get_data@?$_Vector_alloc@U?$_Vec_base_types@PAVworksheet@xlslib_core@@V?$allocator@PAVworksheet@xlslib_core@@@std@@@std@@@std@@QBEABV?$_Vector_val@U?$_Simple_types@PAVworksheet@xlslib_core@@@std@@@2@XZ 10012db0 f i workbook.obj
 0001:00011db0       ??0?$_Wrap_alloc@V?$allocator@PAVrange_t@xlslib_core@@@std@@@std@@QAE@XZ 10012db0 f i sheetrec.obj
 0001:00011db0       ?_Get_first@?$_Compressed_pair@U?$_Wrap_alloc@V?$allocator@_W@std@@@std@@V?$_String_val@U?$_Simple_types@_W@std@@@2@$00@std@@QBEABU?$_Wrap_alloc@V?$allocator@_W@std@@@2@XZ 10012db0 f i cbridge.obj
 0001:00011db0       ??$move@AAPAVCOleProp@xlslib_core@@@std@@YA$$QAPAVCOleProp@xlslib_core@@AAPAV12@@Z 10012db0 f i olefs.obj
 0001:00011db0       ??$addressof@PAVHPSFitem@xlslib_core@@@std@@YAPAPAVHPSFitem@xlslib_core@@AAPAV12@@Z 10012db0 f i HPSF.obj
 0001:00011db0       ?_Myfirst@?$_Vector_alloc@U?$_Vec_base_types@NV?$allocator@N@std@@@std@@@std@@QAEAAPANXZ 10012db0 f i cbridge.obj
 0001:00011db0       ??$addressof@PAU?$_Tree_node@U?$pair@PAVxf_t@xlslib_core@@UborderedXft@2@@std@@PAX@std@@@std@@YAPAPAU?$_Tree_node@U?$pair@PAVxf_t@xlslib_core@@UborderedXft@2@@std@@PAX@0@AAPAU10@@Z 10012db0 f i range.obj
 0001:00011db0       ?_Get_first@?$_Compressed_pair@U?$_Wrap_alloc@V?$allocator@PAVCOleProp@xlslib_core@@@std@@@std@@V?$_Vector_val@U?$_Simple_types@PAVCOleProp@xlslib_core@@@std@@@2@$00@std@@QBEABU?$_Wrap_alloc@V?$allocator@PAVCOleProp@xlslib_core@@@std@@@2@XZ 10012db0 f i olefs.obj
 0001:00011db0       ??$forward@ABQAVfont_t@xlslib_core@@@std@@YAABQAVfont_t@xlslib_core@@ABQAV12@@Z 10012db0 f i globalrec.obj
 0001:00011db0       ??$addressof@QAVworksheet@xlslib_core@@@std@@YAPBQAVworksheet@xlslib_core@@ABQAV12@@Z 10012db0 f i workbook.obj
 0001:00011db0       ??0?$_Wrap_alloc@V?$allocator@D@std@@@std@@QAE@XZ 10012db0 f i assert_assist.obj
 0001:00011db0       ?_Myfirst@?$_Vector_alloc@U?$_Vec_base_types@PAVrange_t@xlslib_core@@V?$allocator@PAVrange_t@xlslib_core@@@std@@@std@@@std@@QBEABQAPAVrange_t@xlslib_core@@XZ 10012db0 f i sheetrec.obj
 0001:00011db0       ?_Getcomp@?$_Tree_comp_alloc@V?$_Tset_traits@PAVrowheight_t@xlslib_core@@Vrowheightsort@2@V?$allocator@PAVrowheight_t@xlslib_core@@@std@@$0A@@std@@@std@@QBEABVrowheightsort@xlslib_core@@XZ 10012db0 f i sheetrec.obj
 0001:00011db0       ?_Get_second@?$_Compressed_pair@U?$_Wrap_alloc@V?$allocator@PAVworksheet@xlslib_core@@@std@@@std@@V?$_Vector_val@U?$_Simple_types@PAVworksheet@xlslib_core@@@std@@@2@$00@std@@QBEABV?$_Vector_val@U?$_Simple_types@PAVworksheet@xlslib_core@@@std@@@2@XZ 10012db0 f i workbook.obj
 0001:00011db0       ??$addressof@PAU?$_Tree_node@PAVcell_t@xlslib_core@@PAX@std@@@std@@YAPAPAU?$_Tree_node@PAVcell_t@xlslib_core@@PAX@0@AAPAU10@@Z 10012db0 f i sheetrec.obj
 0001:00011db0       ??$_Unfancy@VCUnitStore@xlslib_core@@@std@@YAPAVCUnitStore@xlslib_core@@PAV12@@Z 10012db0 f i datast.obj
 0001:00011db0       ?_Get_first@?$_Compressed_pair@U?$_Wrap_alloc@V?$allocator@PAUDataValidation@xlslib_core@@@std@@@std@@V?$_Vector_val@U?$_Simple_types@PAUDataValidation@xlslib_core@@@std@@@2@$00@std@@QBEABU?$_Wrap_alloc@V?$allocator@PAUDataValidation@xlslib_core@@@std@@@2@XZ 10012db0 f i sheetrec.obj
 0001:00011db0       ??$forward@U?$_Wrap_alloc@V?$allocator@_S@std@@@std@@@std@@YA$$QAU?$_Wrap_alloc@V?$allocator@_S@std@@@0@AAU10@@Z 10012db0 f i datast.obj
 0001:00011db0       ??$forward@AAN@std@@YAAANAAN@Z 10012db0 f i cbridge.obj
 0001:00011db0       ?_Myfirst@?$_Vector_alloc@U?$_Vec_base_types@PAVformula_t@xlslib_core@@V?$allocator@PAVformula_t@xlslib_core@@@std@@@std@@@std@@QAEAAPAPAVformula_t@xlslib_core@@XZ 10012db0 f i sheetrec.obj
 0001:00011db0       ??$forward@ABN@std@@YAABNABN@Z 10012db0 f i cbridge.obj
 0001:00011db0       ?_Get_second@?$_Compressed_pair@U?$_Wrap_alloc@V?$allocator@N@std@@@std@@V?$_Vector_val@U?$_Simple_types@N@std@@@2@$00@std@@QBEABV?$_Vector_val@U?$_Simple_types@N@std@@@2@XZ 10012db0 f i cbridge.obj
 0001:00011db0       ?_Getal@?$_Vector_alloc@U?$_Vec_base_types@PAUstyle_t@xlslib_core@@V?$allocator@PAUstyle_t@xlslib_core@@@std@@@std@@@std@@QBEABU?$_Wrap_alloc@V?$allocator@PAUstyle_t@xlslib_core@@@std@@@2@XZ 10012db0 f i globalrec.obj
 0001:00011db0       ?_Get_data@?$_Vector_alloc@U?$_Vec_base_types@PAVformat_t@xlslib_core@@V?$allocator@PAVformat_t@xlslib_core@@@std@@@std@@@std@@QAEAAV?$_Vector_val@U?$_Simple_types@PAVformat_t@xlslib_core@@@std@@@2@XZ 10012db0 f i globalrec.obj
 0001:00011db0       ??0?$allocator@U?$_Tree_node@PAUcolinfo_t@xlslib_core@@PAX@std@@@std@@QAE@XZ 10012db0 f i sheetrec.obj
 0001:00011db0       ??0?$allocator@U?$_Tree_node@U?$pair@PAVxf_t@xlslib_core@@UborderedXft@2@@std@@PAX@std@@@std@@QAE@XZ 10012db0 f i range.obj
 0001:00011db0       ??0?$_Wrap_alloc@V?$allocator@_W@std@@@std@@QAE@XZ 10012db0 f i cbridge.obj
 0001:00011db0       ?_Get_second@?$_Compressed_pair@U?$_Wrap_alloc@V?$allocator@V?$basic_string@_WU?$char_traits@_W@std@@V?$allocator@_W@2@@std@@@std@@@std@@V?$_Vector_val@U?$_Simple_types@V?$basic_string@_WU?$char_traits@_W@std@@V?$allocator@_W@2@@std@@@std@@@2@$00@std@@QBEABV?$_Vector_val@U?$_Simple_types@V?$basic_string@_WU?$char_traits@_W@std@@V?$allocator@_W@2@@std@@@std@@@2@XZ 10012db0 f i cbridge.obj
 0001:00011db0       ??$addressof@PAU?$_Tree_node@PAUcolinfo_t@xlslib_core@@PAX@std@@@std@@YAPAPAU?$_Tree_node@PAUcolinfo_t@xlslib_core@@PAX@0@AAPAU10@@Z 10012db0 f i sheetrec.obj
 0001:00011db0       ?_Get_second@?$_Compressed_pair@U?$_Wrap_alloc@V?$allocator@U?$_Tree_node@PAVHPSFitem@xlslib_core@@PAX@std@@@std@@@std@@V?$_Tree_val@U?$_Tree_simple_types@PAVHPSFitem@xlslib_core@@@std@@@2@$00@std@@QBEABV?$_Tree_val@U?$_Tree_simple_types@PAVHPSFitem@xlslib_core@@@std@@@2@XZ 10012db0 f i HPSF.obj
 0001:00011db0       ?_Myfirst@?$_Vector_alloc@U?$_Vec_base_types@PAVCOleProp@xlslib_core@@V?$allocator@PAVCOleProp@xlslib_core@@@std@@@std@@@std@@QAEAAPAPAVCOleProp@xlslib_core@@XZ 10012db0 f i oledoc.obj
 0001:00011db0       ??$addressof@_S@std@@YAPA_SAA_S@Z 10012db0 f i sheetrec.obj
 0001:00011db0       ?_Getal@?$_Vector_alloc@U?$_Vec_base_types@PAVboundsheet_t@xlslib_core@@V?$allocator@PAVboundsheet_t@xlslib_core@@@std@@@std@@@std@@QAEAAU?$_Wrap_alloc@V?$allocator@PAVboundsheet_t@xlslib_core@@@std@@@2@XZ 10012db0 f i globalrec.obj
 0001:00011db0       ??0_Bxty@?$_String_val@U?$_Simple_types@_S@std@@@std@@QAE@XZ 10012db0 f i datast.obj
 0001:00011db0       ?_Left@?$_Tree_val@U?$_Tree_simple_types@PAVHPSFitem@xlslib_core@@@std@@@std@@SAAAPAU?$_Tree_node@PAVHPSFitem@xlslib_core@@PAX@2@PAU32@@Z 10012db0 f i HPSF.obj
 0001:00011db0       ??0?$_Wrap_alloc@V?$allocator@U?$_Tree_node@PAVrowheight_t@xlslib_core@@PAX@std@@@std@@@std@@QAE@XZ 10012db0 f i sheetrec.obj
 0001:00011db0       ?_Get_second@?$_Compressed_pair@U?$_Wrap_alloc@V?$allocator@PAVworksheet@xlslib_core@@@std@@@std@@V?$_Vector_val@U?$_Simple_types@PAVworksheet@xlslib_core@@@std@@@2@$00@std@@QAEAAV?$_Vector_val@U?$_Simple_types@PAVworksheet@xlslib_core@@@std@@@2@XZ 10012db0 f i workbook.obj
 0001:00011db0       ?_Get_second@?$_Compressed_pair@U?$_Wrap_alloc@V?$allocator@V?$basic_string@DU?$char_traits@D@std@@V?$allocator@D@2@@std@@@std@@@std@@V?$_Vector_val@U?$_Simple_types@V?$basic_string@DU?$char_traits@D@std@@V?$allocator@D@2@@std@@@std@@@2@$00@std@@QAEAAV?$_Vector_val@U?$_Simple_types@V?$basic_string@DU?$char_traits@D@std@@V?$allocator@D@2@@std@@@std@@@2@XZ 10012db0 f i cbridge.obj
 0001:00011db0       ??$forward@ABQAVboundsheet_t@xlslib_core@@@std@@YAABQAVboundsheet_t@xlslib_core@@ABQAV12@@Z 10012db0 f i globalrec.obj
 0001:00011db0       ?_Get_first@?$_Compressed_pair@U?$_Wrap_alloc@V?$allocator@PAVCOleProp@xlslib_core@@@std@@@std@@V?$_Vector_val@U?$_Simple_types@PAVCOleProp@xlslib_core@@@std@@@2@$00@std@@QAEAAU?$_Wrap_alloc@V?$allocator@PAVCOleProp@xlslib_core@@@std@@@2@XZ 10012db0 f i oledoc.obj
 0001:00011db0       ?_Myfirst@?$_Vector_alloc@U?$_Vec_base_types@V?$basic_string@_WU?$char_traits@_W@std@@V?$allocator@_W@2@@std@@V?$allocator@V?$basic_string@_WU?$char_traits@_W@std@@V?$allocator@_W@2@@std@@@2@@std@@@std@@QAEAAPAV?$basic_string@_WU?$char_traits@_W@std@@V?$allocator@_W@2@@2@XZ 10012db0 f i cbridge.obj
 0001:00011db0       ?_Get_second@?$_Compressed_pair@U?$_Wrap_alloc@V?$allocator@PBVlabel_t@xlslib_core@@@std@@@std@@V?$_Vector_val@U?$_Simple_types@PBVlabel_t@xlslib_core@@@std@@@2@$00@std@@QBEABV?$_Vector_val@U?$_Simple_types@PBVlabel_t@xlslib_core@@@std@@@2@XZ 10012db0 f i datast.obj
 0001:00011db0       ?_Getcomp@?$_Tree_comp_alloc@V?$_Tset_traits@PAVrowheight_t@xlslib_core@@Vrowheightsort@2@V?$allocator@PAVrowheight_t@xlslib_core@@@std@@$0A@@std@@@std@@QAEAAVrowheightsort@xlslib_core@@XZ 10012db0 f i sheetrec.obj
 0001:00011db0       ??0?$allocator@PAVxf_t@xlslib_core@@@std@@QAE@XZ 10012db0 f i globalrec.obj
 0001:00011db0       ?_Myhead@?$_Tree_comp_alloc@V?$_Tset_traits@U?$pair@PAVxf_t@xlslib_core@@UborderedXft@2@@std@@VxfSorter@xlslib_core@@V?$allocator@U?$pair@PAVxf_t@xlslib_core@@UborderedXft@2@@std@@@2@$0A@@std@@@std@@QBEABQAU?$_Tree_node@U?$pair@PAVxf_t@xlslib_core@@UborderedXft@2@@std@@PAX@2@XZ 10012db0 f i range.obj
 0001:00011db0       ?_Getal@?$_Vector_alloc@U?$_Vec_base_types@V?$basic_string@DU?$char_traits@D@std@@V?$allocator@D@2@@std@@V?$allocator@V?$basic_string@DU?$char_traits@D@std@@V?$allocator@D@2@@std@@@2@@std@@@std@@QAEAAU?$_Wrap_alloc@V?$allocator@V?$basic_string@DU?$char_traits@D@std@@V?$allocator@D@2@@std@@@std@@@2@XZ 10012db0 f i cbridge.obj
 0001:00011db0       ?_Get_data@?$_Vector_alloc@U?$_Vec_base_types@PAUstyle_t@xlslib_core@@V?$allocator@PAUstyle_t@xlslib_core@@@std@@@std@@@std@@QAEAAV?$_Vector_val@U?$_Simple_types@PAUstyle_t@xlslib_core@@@std@@@2@XZ 10012db0 f i globalrec.obj
 0001:00011db0       ?_Get_data@?$_Vector_alloc@U?$_Vec_base_types@PAVfont_t@xlslib_core@@V?$allocator@PAVfont_t@xlslib_core@@@std@@@std@@@std@@QBEABV?$_Vector_val@U?$_Simple_types@PAVfont_t@xlslib_core@@@std@@@2@XZ 10012db0 f i globalrec.obj
 0001:00011db0       ??$_Unchecked@PAPAVformat_t@xlslib_core@@@std@@YAPAPAVformat_t@xlslib_core@@PAPAV12@@Z 10012db0 f i globalrec.obj
 0001:00011db0       ?_Getal@?$_Vector_alloc@U?$_Vec_base_types@PAVfont_t@xlslib_core@@V?$allocator@PAVfont_t@xlslib_core@@@std@@@std@@@std@@QBEABU?$_Wrap_alloc@V?$allocator@PAVfont_t@xlslib_core@@@std@@@2@XZ 10012db0 f i globalrec.obj
 0001:00011db0       ??$forward@AAPAVxf_t@xlslib_core@@@std@@YAAAPAVxf_t@xlslib_core@@AAPAV12@@Z 10012db0 f i globalrec.obj
 0001:00011db0       ??$forward@V?$_Tree_const_iterator@V?$_Tree_val@U?$_Tree_simple_types@PAVrowheight_t@xlslib_core@@@std@@@std@@@std@@@std@@YA$$QAV?$_Tree_const_iterator@V?$_Tree_val@U?$_Tree_simple_types@PAVrowheight_t@xlslib_core@@@std@@@std@@@0@AAV10@@Z 10012db0 f i sheetrec.obj
 0001:00011db0       ??$forward@AAPAVformula_t@xlslib_core@@@std@@YAAAPAVformula_t@xlslib_core@@AAPAV12@@Z 10012db0 f i sheetrec.obj
 0001:00011db0       ?_Left@?$_Tree_val@U?$_Tree_simple_types@U?$pair@PAVxf_t@xlslib_core@@UborderedXft@2@@std@@@std@@@std@@SAAAPAU?$_Tree_node@U?$pair@PAVxf_t@xlslib_core@@UborderedXft@2@@std@@PAX@2@PAU32@@Z 10012db0 f i range.obj
 0001:00011db0       ?_Myhead@?$_List_alloc@U?$_List_base_types@PAV?$basic_string@DU?$char_traits@D@std@@V?$allocator@D@2@@std@@V?$allocator@PAV?$basic_string@DU?$char_traits@D@std@@V?$allocator@D@2@@std@@@2@@std@@@std@@QAEAAPAU?$_List_node@PAV?$basic_string@DU?$char_traits@D@std@@V?$allocator@D@2@@std@@PAX@2@XZ 10012db0 f i olefs.obj
 0001:00011db0       ?_Left@?$_Tree_comp_alloc@V?$_Tset_traits@PAVHPSFitem@xlslib_core@@Vinsertsort2@2@V?$allocator@PAVHPSFitem@xlslib_core@@@std@@$0A@@std@@@std@@SAAAPAU?$_Tree_node@PAVHPSFitem@xlslib_core@@PAX@2@PAU32@@Z 10012db0 f i HPSF.obj
 0001:00011db0       ??$forward@ABV?$allocator@D@std@@@std@@YAABV?$allocator@D@0@ABV10@@Z 10012db0 f i olefs.obj
 0001:00011db0       ??$forward@ABQAVformula_t@xlslib_core@@@std@@YAABQAVformula_t@xlslib_core@@ABQAV12@@Z 10012db0 f i sheetrec.obj
 0001:00011db0       ?_Myfirst@?$_Vector_alloc@U?$_Vec_base_types@PAUDataValidation@xlslib_core@@V?$allocator@PAUDataValidation@xlslib_core@@@std@@@std@@@std@@QAEAAPAPAUDataValidation@xlslib_core@@XZ 10012db0 f i sheetrec.obj
 0001:00011db0       ?_Getal@?$_Vector_alloc@U?$_Vec_base_types@PAVxf_t@xlslib_core@@V?$allocator@PAVxf_t@xlslib_core@@@std@@@std@@@std@@QAEAAU?$_Wrap_alloc@V?$allocator@PAVxf_t@xlslib_core@@@std@@@2@XZ 10012db0 f i globalrec.obj
 0001:00011db0       ?_Get_first@?$_Compressed_pair@U?$_Wrap_alloc@V?$allocator@U?$_Tree_node@PAVHPSFitem@xlslib_core@@PAX@std@@@std@@@std@@V?$_Tree_val@U?$_Tree_simple_types@PAVHPSFitem@xlslib_core@@@std@@@2@$00@std@@QAEAAU?$_Wrap_alloc@V?$allocator@U?$_Tree_node@PAVHPSFitem@xlslib_core@@PAX@std@@@std@@@2@XZ 10012db0 f i HPSF.obj
 0001:00011db0       ?_Get_first@?$_Compressed_pair@Vcolinfosort@xlslib_core@@V?$_Compressed_pair@U?$_Wrap_alloc@V?$allocator@U?$_Tree_node@PAUcolinfo_t@xlslib_core@@PAX@std@@@std@@@std@@V?$_Tree_val@U?$_Tree_simple_types@PAUcolinfo_t@xlslib_core@@@std@@@2@$00@std@@$00@std@@QAEAAVcolinfosort@xlslib_core@@XZ 10012db0 f i sheetrec.obj
 0001:00011db0       ?_Get_first@?$_Compressed_pair@U?$_Wrap_alloc@V?$allocator@U?$_Tree_node@U?$pair@PAVxf_t@xlslib_core@@UborderedXft@2@@std@@PAX@std@@@std@@@std@@V?$_Tree_val@U?$_Tree_simple_types@U?$pair@PAVxf_t@xlslib_core@@UborderedXft@2@@std@@@std@@@2@$00@std@@QAEAAU?$_Wrap_alloc@V?$allocator@U?$_Tree_node@U?$pair@PAVxf_t@xlslib_core@@UborderedXft@2@@std@@PAX@std@@@std@@@2@XZ 10012db0 f i range.obj
 0001:00011db0       ?_Get_data@?$_Vector_alloc@U?$_Vec_base_types@PAVxf_t@xlslib_core@@V?$allocator@PAVxf_t@xlslib_core@@@std@@@std@@@std@@QBEABV?$_Vector_val@U?$_Simple_types@PAVxf_t@xlslib_core@@@std@@@2@XZ 10012db0 f i globalrec.obj
 0001:00011db0       ?_Get_first@?$_Compressed_pair@U?$_Wrap_alloc@V?$allocator@PAVfont_t@xlslib_core@@@std@@@std@@V?$_Vector_val@U?$_Simple_types@PAVfont_t@xlslib_core@@@std@@@2@$00@std@@QBEABU?$_Wrap_alloc@V?$allocator@PAVfont_t@xlslib_core@@@std@@@2@XZ 10012db0 f i globalrec.obj
 0001:00011db0       ?_Get_second@?$_Compressed_pair@U?$_Wrap_alloc@V?$allocator@PAVCOleProp@xlslib_core@@@std@@@std@@V?$_Vector_val@U?$_Simple_types@PAVCOleProp@xlslib_core@@@std@@@2@$00@std@@QBEABV?$_Vector_val@U?$_Simple_types@PAVCOleProp@xlslib_core@@@std@@@2@XZ 10012db0 f i olefs.obj
 0001:00011db0       ??$_Unfancy@PAVxf_t@xlslib_core@@@std@@YAPAPAVxf_t@xlslib_core@@PAPAV12@@Z 10012db0 f i globalrec.obj
 0001:00011db0       ??$addressof@$$CBUrowblocksize_t@xlslib_core@@@std@@YAPBUrowblocksize_t@xlslib_core@@ABU12@@Z 10012db0 f i sheetrec.obj
 0001:00011db0       ??$addressof@QAVboundsheet_t@xlslib_core@@@std@@YAPBQAVboundsheet_t@xlslib_core@@ABQAV12@@Z 10012db0 f i globalrec.obj
 0001:00011db0       ?_Get_first@?$_Compressed_pair@U?$_Wrap_alloc@V?$allocator@U?$_Tree_node@U?$pair@PAVxf_t@xlslib_core@@UborderedXft@2@@std@@PAX@std@@@std@@@std@@V?$_Tree_val@U?$_Tree_simple_types@U?$pair@PAVxf_t@xlslib_core@@UborderedXft@2@@std@@@std@@@2@$00@std@@QBEABU?$_Wrap_alloc@V?$allocator@U?$_Tree_node@U?$pair@PAVxf_t@xlslib_core@@UborderedXft@2@@std@@PAX@std@@@std@@@2@XZ 10012db0 f i range.obj
 0001:00011db0       ??$forward@V?$_Tree_const_iterator@V?$_Tree_val@U?$_Tree_simple_types@U?$pair@PAVxf_t@xlslib_core@@UborderedXft@2@@std@@@std@@@std@@@std@@@std@@YA$$QAV?$_Tree_const_iterator@V?$_Tree_val@U?$_Tree_simple_types@U?$pair@PAVxf_t@xlslib_core@@UborderedXft@2@@std@@@std@@@std@@@0@AAV10@@Z 10012db0 f i range.obj
 0001:00011db0       ??0?$_Wrap_alloc@V?$allocator@PAVformula_t@xlslib_core@@@std@@@std@@QAE@XZ 10012db0 f i sheetrec.obj
 0001:00011db0       ??$forward@ABV?$basic_string@_WU?$char_traits@_W@std@@V?$allocator@_W@2@@std@@@std@@YAABV?$basic_string@_WU?$char_traits@_W@std@@V?$allocator@_W@2@@0@ABV10@@Z 10012db0 f i cbridge.obj
 0001:00011db0       ?_Myfirst@?$_Vector_alloc@U?$_Vec_base_types@Urowblocksize_t@xlslib_core@@V?$allocator@Urowblocksize_t@xlslib_core@@@std@@@std@@@std@@QBEABQAUrowblocksize_t@xlslib_core@@XZ 10012db0 f i sheetrec.obj
 0001:00011db0       ?_Get_data@?$_Vector_alloc@U?$_Vec_base_types@PAVfont_t@xlslib_core@@V?$allocator@PAVfont_t@xlslib_core@@@std@@@std@@@std@@QAEAAV?$_Vector_val@U?$_Simple_types@PAVfont_t@xlslib_core@@@std@@@2@XZ 10012db0 f i globalrec.obj
 0001:00011db0       ??$_Unchecked@PAPAVCUnit@xlslib_core@@@std@@YAPAPAVCUnit@xlslib_core@@PAPAV12@@Z 10012db0 f i datast.obj
 0001:00011db0       ??$forward@ABQAUstyle_t@xlslib_core@@@std@@YAABQAUstyle_t@xlslib_core@@ABQAU12@@Z 10012db0 f i globalrec.obj
 0001:00011db0       ??0?$_Wrap_alloc@V?$allocator@PAVformat_t@xlslib_core@@@std@@@std@@QAE@XZ 10012db0 f i globalrec.obj
 0001:00011db0       ??$_Unfancy@PAUDataValidation@xlslib_core@@@std@@YAPAPAUDataValidation@xlslib_core@@PAPAU12@@Z 10012db0 f i sheetrec.obj
 0001:00011db0       ??0?$allocator@PAVfont_t@xlslib_core@@@std@@QAE@XZ 10012db0 f i globalrec.obj
 0001:00011db0       ??$_Unfancy@N@std@@YAPANPAN@Z 10012db0 f i cbridge.obj
 0001:00011db0       ??0?$allocator@I@std@@QAE@XZ 10012db0 f i sheetrec.obj
 0001:00011db0       ?_Get_first@?$_Compressed_pair@U?$_Wrap_alloc@V?$allocator@PAVxf_t@xlslib_core@@@std@@@std@@V?$_Vector_val@U?$_Simple_types@PAVxf_t@xlslib_core@@@std@@@2@$00@std@@QAEAAU?$_Wrap_alloc@V?$allocator@PAVxf_t@xlslib_core@@@std@@@2@XZ 10012db0 f i globalrec.obj
 0001:00011db0       ??$forward@V?$allocator@D@std@@@std@@YA$$QAV?$allocator@D@0@AAV10@@Z 10012db0 f i assert_assist.obj
 0001:00011db0       ??$forward@ABQAUHyperLink@xlslib_core@@@std@@YAABQAUHyperLink@xlslib_core@@ABQAU12@@Z 10012db0 f i sheetrec.obj
 0001:00011db0       ?_Getal@?$_Vector_alloc@U?$_Vec_base_types@VCUnitStore@xlslib_core@@V?$allocator@VCUnitStore@xlslib_core@@@std@@@std@@@std@@QAEAAU?$_Wrap_alloc@V?$allocator@VCUnitStore@xlslib_core@@@std@@@2@XZ 10012db0 f i datast.obj
 0001:00011db0       ??0?$_Wrap_alloc@V?$allocator@PAVCUnit@xlslib_core@@@std@@@std@@QAE@XZ 10012db0 f i datast.obj
 0001:00011db0       ??$_Unfancy@Urowblocksize_t@xlslib_core@@@std@@YAPAUrowblocksize_t@xlslib_core@@PAU12@@Z 10012db0 f i sheetrec.obj
 0001:00011db0       ??$forward@I@std@@YA$$QAIAAI@Z 10012db0 f i sheetrec.obj
 0001:00011db0       ?_Get_second@?$_Compressed_pair@U?$_Wrap_alloc@V?$allocator@PAVfont_t@xlslib_core@@@std@@@std@@V?$_Vector_val@U?$_Simple_types@PAVfont_t@xlslib_core@@@std@@@2@$00@std@@QBEABV?$_Vector_val@U?$_Simple_types@PAVfont_t@xlslib_core@@@std@@@2@XZ 10012db0 f i globalrec.obj
 0001:00011db0       ??$forward@AAPAVrange@xlslib_core@@@std@@YAAAPAVrange@xlslib_core@@AAPAV12@@Z 10012db0 f i sheetrec.obj
 0001:00011db0       ?_Getal@?$_Vector_alloc@U?$_Vec_base_types@PAVformat_t@xlslib_core@@V?$allocator@PAVformat_t@xlslib_core@@@std@@@std@@@std@@QBEABU?$_Wrap_alloc@V?$allocator@PAVformat_t@xlslib_core@@@std@@@2@XZ 10012db0 f i globalrec.obj
 0001:00011db0       ?_Left@?$_Tree_comp_alloc@V?$_Tset_traits@PAVrowheight_t@xlslib_core@@Vrowheightsort@2@V?$allocator@PAVrowheight_t@xlslib_core@@@std@@$0A@@std@@@std@@SAAAPAU?$_Tree_node@PAVrowheight_t@xlslib_core@@PAX@2@PAU32@@Z 10012db0 f i sheetrec.obj
 0001:00011db0       ??$_Ptr_move_cat@PAVformat_t@xlslib_core@@PAV12@@std@@YA?AU_Really_trivial_ptr_iterator_tag@0@ABQAPAVformat_t@xlslib_core@@0@Z 10012db0 f i globalrec.obj
 0001:00011db0       ?_Getal@?$_Vector_alloc@U?$_Vec_base_types@Urowblocksize_t@xlslib_core@@V?$allocator@Urowblocksize_t@xlslib_core@@@std@@@std@@@std@@QBEABU?$_Wrap_alloc@V?$allocator@Urowblocksize_t@xlslib_core@@@std@@@2@XZ 10012db0 f i sheetrec.obj
 0001:00011db0       ??$_Ptr_move_cat@PAUDataValidation@xlslib_core@@PAU12@@std@@YA?AU_Really_trivial_ptr_iterator_tag@0@ABQAPAUDataValidation@xlslib_core@@0@Z 10012db0 f i sheetrec.obj
 0001:00011db0       ?_Get_data@?$_Tree_comp_alloc@V?$_Tset_traits@PAUcolinfo_t@xlslib_core@@Vcolinfosort@2@V?$allocator@PAUcolinfo_t@xlslib_core@@@std@@$0A@@std@@@std@@QAEAAV?$_Tree_val@U?$_Tree_simple_types@PAUcolinfo_t@xlslib_core@@@std@@@2@XZ 10012db0 f i sheetrec.obj
 0001:00011db0       ??$forward@AAPAVCOleProp@xlslib_core@@@std@@YAAAPAVCOleProp@xlslib_core@@AAPAV12@@Z 10012db0 f i olefs.obj
 0001:00011db0       ??$_Unchecked@PAPAVxf_t@xlslib_core@@@std@@YAPAPAVxf_t@xlslib_core@@PAPAV12@@Z 10012db0 f i globalrec.obj
 0001:00011db0       ??0?$_Wrap_alloc@V?$allocator@U?$_List_node@PAV?$basic_string@DU?$char_traits@D@std@@V?$allocator@D@2@@std@@PAX@std@@@std@@@std@@QAE@XZ 10012db0 f i olefs.obj
 0001:00011db0       ??0?$_Wrap_alloc@V?$allocator@PAVrange@xlslib_core@@@std@@@std@@QAE@XZ 10012db0 f i sheetrec.obj
 0001:00011db0       ??$forward@AAUborderedXft@xlslib_core@@@std@@YAAAUborderedXft@xlslib_core@@AAU12@@Z 10012db0 f i range.obj
 0001:00011db0       ??$forward@AAV?$basic_string@_WU?$char_traits@_W@std@@V?$allocator@_W@2@@std@@@std@@YAAAV?$basic_string@_WU?$char_traits@_W@std@@V?$allocator@_W@2@@0@AAV10@@Z 10012db0 f i cbridge.obj
 0001:00011db0       ?_Get_first@?$_Compressed_pair@Vrowheightsort@xlslib_core@@V?$_Compressed_pair@U?$_Wrap_alloc@V?$allocator@U?$_Tree_node@PAVrowheight_t@xlslib_core@@PAX@std@@@std@@@std@@V?$_Tree_val@U?$_Tree_simple_types@PAVrowheight_t@xlslib_core@@@std@@@2@$00@std@@$00@std@@QBEABVrowheightsort@xlslib_core@@XZ 10012db0 f i sheetrec.obj
 0001:00011db0       ?_Get_data@?$_Vector_alloc@U?$_Vec_base_types@NV?$allocator@N@std@@@std@@@std@@QAEAAV?$_Vector_val@U?$_Simple_types@N@std@@@2@XZ 10012db0 f i cbridge.obj
 0001:00011db0       ?_Get_data@?$_Vector_alloc@U?$_Vec_base_types@PAUstyle_t@xlslib_core@@V?$allocator@PAUstyle_t@xlslib_core@@@std@@@std@@@std@@QBEABV?$_Vector_val@U?$_Simple_types@PAUstyle_t@xlslib_core@@@std@@@2@XZ 10012db0 f i globalrec.obj
 0001:00011db0       ??$forward@AAPAU?$_Tree_node@PAVcell_t@xlslib_core@@PAX@std@@@std@@YAAAPAU?$_Tree_node@PAVcell_t@xlslib_core@@PAX@0@AAPAU10@@Z 10012db0 f i sheetrec.obj
 0001:00011db0       ??$_Unfancy@PAVCUnit@xlslib_core@@@std@@YAPAPAVCUnit@xlslib_core@@PAPAV12@@Z 10012db0 f i datast.obj
 0001:00011db0       ?_Get_first@?$_Compressed_pair@U?$_Wrap_alloc@V?$allocator@PAVrange_t@xlslib_core@@@std@@@std@@V?$_Vector_val@U?$_Simple_types@PAVrange_t@xlslib_core@@@std@@@2@$00@std@@QAEAAU?$_Wrap_alloc@V?$allocator@PAVrange_t@xlslib_core@@@std@@@2@XZ 10012db0 f i sheetrec.obj
 0001:00011db0       ?_Get_data@?$_Vector_alloc@U?$_Vec_base_types@IV?$allocator@I@std@@@std@@@std@@QAEAAV?$_Vector_val@U?$_Simple_types@I@std@@@2@XZ 10012db0 f i sheetrec.obj
 0001:00011db0       ??$forward@AAPAD@std@@YAAAPADAAPAD@Z 10012db0 f i assert_assist.obj
 0001:00011db0       ??$_Unchecked@PAN@std@@YAPANPAN@Z 10012db0 f i cbridge.obj
 0001:00011db0       ?_Getcomp@?$_Tree_comp_alloc@V?$_Tset_traits@U?$pair@PAVxf_t@xlslib_core@@UborderedXft@2@@std@@VxfSorter@xlslib_core@@V?$allocator@U?$pair@PAVxf_t@xlslib_core@@UborderedXft@2@@std@@@2@$0A@@std@@@std@@QAEAAVxfSorter@xlslib_core@@XZ 10012db0 f i range.obj
 0001:00011db0       ?_Myfirst@?$_Vector_alloc@U?$_Vec_base_types@PAVrange_t@xlslib_core@@V?$allocator@PAVrange_t@xlslib_core@@@std@@@std@@@std@@QAEAAPAPAVrange_t@xlslib_core@@XZ 10012db0 f i sheetrec.obj
 0001:00011db0       ?_Myfirst@?$_Vector_alloc@U?$_Vec_base_types@NV?$allocator@N@std@@@std@@@std@@QBEABQANXZ 10012db0 f i cbridge.obj
 0001:00011db0       ?_Getal@?$_Tree_comp_alloc@V?$_Tset_traits@PAVHPSFitem@xlslib_core@@Vinsertsort2@2@V?$allocator@PAVHPSFitem@xlslib_core@@@std@@$0A@@std@@@std@@QBEABU?$_Wrap_alloc@V?$allocator@U?$_Tree_node@PAVHPSFitem@xlslib_core@@PAX@std@@@std@@@2@XZ 10012db0 f i HPSF.obj
 0001:00011db0       ?_Getal@?$_Tree_comp_alloc@V?$_Tset_traits@U?$pair@PAVxf_t@xlslib_core@@UborderedXft@2@@std@@VxfSorter@xlslib_core@@V?$allocator@U?$pair@PAVxf_t@xlslib_core@@UborderedXft@2@@std@@@2@$0A@@std@@@std@@QBEABU?$_Wrap_alloc@V?$allocator@U?$_Tree_node@U?$pair@PAVxf_t@xlslib_core@@UborderedXft@2@@std@@PAX@std@@@std@@@2@XZ 10012db0 f i range.obj
 0001:00011db0       ?_Myfirst@?$_Vector_alloc@U?$_Vec_base_types@PAUHyperLink@xlslib_core@@V?$allocator@PAUHyperLink@xlslib_core@@@std@@@std@@@std@@QAEAAPAPAUHyperLink@xlslib_core@@XZ 10012db0 f i sheetrec.obj
 0001:00011db0       ??$addressof@$$CBN@std@@YAPBNABN@Z 10012db0 f i cbridge.obj
 0001:00011db0       ??$_Unfancy@V?$basic_string@_WU?$char_traits@_W@std@@V?$allocator@_W@2@@std@@@std@@YAPAV?$basic_string@_WU?$char_traits@_W@std@@V?$allocator@_W@2@@0@PAV10@@Z 10012db0 f i cbridge.obj
 0001:00011db0       ?_Get_second@?$_Compressed_pair@U?$_Wrap_alloc@V?$allocator@PAVxf_t@xlslib_core@@@std@@@std@@V?$_Vector_val@U?$_Simple_types@PAVxf_t@xlslib_core@@@std@@@2@$00@std@@QAEAAV?$_Vector_val@U?$_Simple_types@PAVxf_t@xlslib_core@@@std@@@2@XZ 10012db0 f i globalrec.obj
 0001:00011db0       ??$forward@AAPAUDataValidation@xlslib_core@@@std@@YAAAPAUDataValidation@xlslib_core@@AAPAU12@@Z 10012db0 f i sheetrec.obj
 0001:00011db0       ?_Get_first@?$_Compressed_pair@U?$_Wrap_alloc@V?$allocator@V?$basic_string@_WU?$char_traits@_W@std@@V?$allocator@_W@2@@std@@@std@@@std@@V?$_Vector_val@U?$_Simple_types@V?$basic_string@_WU?$char_traits@_W@std@@V?$allocator@_W@2@@std@@@std@@@2@$00@std@@QBEABU?$_Wrap_alloc@V?$allocator@V?$basic_string@_WU?$char_traits@_W@std@@V?$allocator@_W@2@@std@@@std@@@2@XZ 10012db0 f i cbridge.obj
 0001:00011db0       ??$addressof@QAVCOleProp@xlslib_core@@@std@@YAPBQAVCOleProp@xlslib_core@@ABQAV12@@Z 10012db0 f i olefs.obj
 0001:00011db0       ??$forward@U?$pair@PAVxf_t@xlslib_core@@UborderedXft@2@@std@@@std@@YA$$QAU?$pair@PAVxf_t@xlslib_core@@UborderedXft@2@@0@AAU10@@Z 10012db0 f i range.obj
 0001:00011db0       ?_Get_first@?$_Compressed_pair@U?$_Wrap_alloc@V?$allocator@U?$_Tree_node@PAVcell_t@xlslib_core@@PAX@std@@@std@@@std@@V?$_Tree_val@U?$_Tree_simple_types@PAVcell_t@xlslib_core@@@std@@@2@$00@std@@QBEABU?$_Wrap_alloc@V?$allocator@U?$_Tree_node@PAVcell_t@xlslib_core@@PAX@std@@@std@@@2@XZ 10012db0 f i sheetrec.obj
 0001:00011db0       ?_Get_first@?$_Compressed_pair@U?$_Wrap_alloc@V?$allocator@U?$_Tree_node@PAVHPSFitem@xlslib_core@@PAX@std@@@std@@@std@@V?$_Tree_val@U?$_Tree_simple_types@PAVHPSFitem@xlslib_core@@@std@@@2@$00@std@@QBEABU?$_Wrap_alloc@V?$allocator@U?$_Tree_node@PAVHPSFitem@xlslib_core@@PAX@std@@@std@@@2@XZ 10012db0 f i HPSF.obj
 0001:00011db0       ??$forward@V?$basic_string@DU?$char_traits@D@std@@V?$allocator@D@2@@std@@@std@@YA$$QAV?$basic_string@DU?$char_traits@D@std@@V?$allocator@D@2@@0@AAV10@@Z 10012db0 f i assert_assist.obj
 0001:00011db0       ?_Get_first@?$_Compressed_pair@U?$_Wrap_alloc@V?$allocator@U?$_List_node@PAV?$basic_string@DU?$char_traits@D@std@@V?$allocator@D@2@@std@@PAX@std@@@std@@@std@@V?$_List_val@U?$_List_simple_types@PAV?$basic_string@DU?$char_traits@D@std@@V?$allocator@D@2@@std@@@std@@@2@$00@std@@QAEAAU?$_Wrap_alloc@V?$allocator@U?$_List_node@PAV?$basic_string@DU?$char_traits@D@std@@V?$allocator@D@2@@std@@PAX@std@@@std@@@2@XZ 10012db0 f i olefs.obj
 0001:00011db0       ?_Getal@?$_Tree_comp_alloc@V?$_Tset_traits@PAVrowheight_t@xlslib_core@@Vrowheightsort@2@V?$allocator@PAVrowheight_t@xlslib_core@@@std@@$0A@@std@@@std@@QAEAAU?$_Wrap_alloc@V?$allocator@U?$_Tree_node@PAVrowheight_t@xlslib_core@@PAX@std@@@std@@@2@XZ 10012db0 f i sheetrec.obj
 0001:00011db0       ?_Myfirst@?$_Vector_alloc@U?$_Vec_base_types@PAVrange@xlslib_core@@V?$allocator@PAVrange@xlslib_core@@@std@@@std@@@std@@QAEAAPAPAVrange@xlslib_core@@XZ 10012db0 f i sheetrec.obj
 0001:00011db0       ??$forward@ABVcolinfosort@xlslib_core@@@std@@YAABVcolinfosort@xlslib_core@@ABV12@@Z 10012db0 f i sheetrec.obj
 0001:00011db0       ?_Get_first@?$_Compressed_pair@U?$_Wrap_alloc@V?$allocator@U?$_Tree_node@PAUcolinfo_t@xlslib_core@@PAX@std@@@std@@@std@@V?$_Tree_val@U?$_Tree_simple_types@PAUcolinfo_t@xlslib_core@@@std@@@2@$00@std@@QAEAAU?$_Wrap_alloc@V?$allocator@U?$_Tree_node@PAUcolinfo_t@xlslib_core@@PAX@std@@@std@@@2@XZ 10012db0 f i sheetrec.obj
 0001:00011db0       ??$_Unchecked@PAUrowblocksize_t@xlslib_core@@@std@@YAPAUrowblocksize_t@xlslib_core@@PAU12@@Z 10012db0 f i sheetrec.obj
 0001:00011db0       ?_Bx@?$_String_alloc@U?$_String_base_types@DV?$allocator@D@std@@@std@@@std@@QAEAAT_Bxty@?$_String_val@U?$_Simple_types@D@std@@@2@XZ 10012db0 f i assert_assist.obj
 0001:00011db0       ?_Getal@?$_Tree_comp_alloc@V?$_Tset_traits@PAUcolinfo_t@xlslib_core@@Vcolinfosort@2@V?$allocator@PAUcolinfo_t@xlslib_core@@@std@@$0A@@std@@@std@@QAEAAU?$_Wrap_alloc@V?$allocator@U?$_Tree_node@PAUcolinfo_t@xlslib_core@@PAX@std@@@std@@@2@XZ 10012db0 f i sheetrec.obj
 0001:00011db0       ?_Getal@?$_Vector_alloc@U?$_Vec_base_types@NV?$allocator@N@std@@@std@@@std@@QAEAAU?$_Wrap_alloc@V?$allocator@N@std@@@2@XZ 10012db0 f i cbridge.obj
 0001:00011db0       ?_Get_second@?$_Compressed_pair@U?$_Wrap_alloc@V?$allocator@PAVformat_t@xlslib_core@@@std@@@std@@V?$_Vector_val@U?$_Simple_types@PAVformat_t@xlslib_core@@@std@@@2@$00@std@@QAEAAV?$_Vector_val@U?$_Simple_types@PAVformat_t@xlslib_core@@@std@@@2@XZ 10012db0 f i globalrec.obj
 0001:00011db0       ?_Get_data@?$_Vector_alloc@U?$_Vec_base_types@PAVxf_t@xlslib_core@@V?$allocator@PAVxf_t@xlslib_core@@@std@@@std@@@std@@QAEAAV?$_Vector_val@U?$_Simple_types@PAVxf_t@xlslib_core@@@std@@@2@XZ 10012db0 f i globalrec.obj
 0001:00011db0       ?_Get_first@?$_Compressed_pair@U?$_Wrap_alloc@V?$allocator@_S@std@@@std@@V?$_String_val@U?$_Simple_types@_S@std@@@2@$00@std@@QAEAAU?$_Wrap_alloc@V?$allocator@_S@std@@@2@XZ 10012db0 f i datast.obj
 0001:00011db0       ??$addressof@PA_W@std@@YAPAPA_WAAPA_W@Z 10012db0 f i cbridge.obj
 0001:00011db0       ??$_Unchecked@PAI@std@@YAPAIPAI@Z 10012db0 f i sheetrec.obj
 0001:00011db0       ??$_Unfancy@PAVrange_t@xlslib_core@@@std@@YAPAPAVrange_t@xlslib_core@@PAPAV12@@Z 10012db0 f i sheetrec.obj
 0001:00011db0       ??0?$allocator@_W@std@@QAE@XZ 10012db0 f i cbridge.obj
 0001:00011db0       ?_Getal@?$_Vector_alloc@U?$_Vec_base_types@PAVworksheet@xlslib_core@@V?$allocator@PAVworksheet@xlslib_core@@@std@@@std@@@std@@QAEAAU?$_Wrap_alloc@V?$allocator@PAVworksheet@xlslib_core@@@std@@@2@XZ 10012db0 f i workbook.obj
 0001:00011db0       ??$addressof@QAUHyperLink@xlslib_core@@@std@@YAPBQAUHyperLink@xlslib_core@@ABQAU12@@Z 10012db0 f i sheetrec.obj
 0001:00011db0       ??$forward@U_Zero_then_variadic_args_t@std@@@std@@YA$$QAU_Zero_then_variadic_args_t@0@AAU10@@Z 10012db0 f i HPSF.obj
 0001:00011db0       ?_Get_data@?$_Tree_comp_alloc@V?$_Tset_traits@PAVHPSFitem@xlslib_core@@Vinsertsort2@2@V?$allocator@PAVHPSFitem@xlslib_core@@@std@@$0A@@std@@@std@@QAEAAV?$_Tree_val@U?$_Tree_simple_types@PAVHPSFitem@xlslib_core@@@std@@@2@XZ 10012db0 f i HPSF.obj
 0001:00011db0       ??$_Unfancy@PAUHyperLink@xlslib_core@@@std@@YAPAPAUHyperLink@xlslib_core@@PAPAU12@@Z 10012db0 f i sheetrec.obj
 0001:00011db0       ??$addressof@PA_S@std@@YAPAPA_SAAPA_S@Z 10012db0 f i datast.obj
 0001:00011db0       ?_Get_first@?$_Compressed_pair@Vinsertsort2@xlslib_core@@V?$_Compressed_pair@U?$_Wrap_alloc@V?$allocator@U?$_Tree_node@PAVHPSFitem@xlslib_core@@PAX@std@@@std@@@std@@V?$_Tree_val@U?$_Tree_simple_types@PAVHPSFitem@xlslib_core@@@std@@@2@$00@std@@$00@std@@QBEABVinsertsort2@xlslib_core@@XZ 10012db0 f i HPSF.obj
 0001:00011db0       ?_Myfirst@?$_Vector_alloc@U?$_Vec_base_types@V?$basic_string@DU?$char_traits@D@std@@V?$allocator@D@2@@std@@V?$allocator@V?$basic_string@DU?$char_traits@D@std@@V?$allocator@D@2@@std@@@2@@std@@@std@@QBEABQAV?$basic_string@DU?$char_traits@D@std@@V?$allocator@D@2@@2@XZ 10012db0 f i cbridge.obj
 0001:00011db0       ?_Get_second@?$_Compressed_pair@U?$_Wrap_alloc@V?$allocator@PAVCUnit@xlslib_core@@@std@@@std@@V?$_Vector_val@U?$_Simple_types@PAVCUnit@xlslib_core@@@std@@@2@$00@std@@QBEABV?$_Vector_val@U?$_Simple_types@PAVCUnit@xlslib_core@@@std@@@2@XZ 10012db0 f i datast.obj
 0001:00011db0       ?_Get_second@?$_Compressed_pair@U?$_Wrap_alloc@V?$allocator@U?$_Tree_node@U?$pair@PAVxf_t@xlslib_core@@UborderedXft@2@@std@@PAX@std@@@std@@@std@@V?$_Tree_val@U?$_Tree_simple_types@U?$pair@PAVxf_t@xlslib_core@@UborderedXft@2@@std@@@std@@@2@$00@std@@QAEAAV?$_Tree_val@U?$_Tree_simple_types@U?$pair@PAVxf_t@xlslib_core@@UborderedXft@2@@std@@@std@@@2@XZ 10012db0 f i range.obj
 0001:00011db0       ?_Get_first@?$_Compressed_pair@U?$_Wrap_alloc@V?$allocator@PAVboundsheet_t@xlslib_core@@@std@@@std@@V?$_Vector_val@U?$_Simple_types@PAVboundsheet_t@xlslib_core@@@std@@@2@$00@std@@QAEAAU?$_Wrap_alloc@V?$allocator@PAVboundsheet_t@xlslib_core@@@std@@@2@XZ 10012db0 f i globalrec.obj
 0001:00011db0       ?_Getal@?$_Vector_alloc@U?$_Vec_base_types@IV?$allocator@I@std@@@std@@@std@@QAEAAU?$_Wrap_alloc@V?$allocator@I@std@@@2@XZ 10012db0 f i sheetrec.obj
 0001:00011db0       ??0?$_Wrap_alloc@V?$allocator@V?$basic_string@DU?$char_traits@D@std@@V?$allocator@D@2@@std@@@std@@@std@@QAE@XZ 10012db0 f i cbridge.obj
 0001:00011db0       ?_Get_second@?$_Compressed_pair@U?$_Wrap_alloc@V?$allocator@PAVboundsheet_t@xlslib_core@@@std@@@std@@V?$_Vector_val@U?$_Simple_types@PAVboundsheet_t@xlslib_core@@@std@@@2@$00@std@@QAEAAV?$_Vector_val@U?$_Simple_types@PAVboundsheet_t@xlslib_core@@@std@@@2@XZ 10012db0 f i globalrec.obj
 0001:00011db0       ?_Get_first@?$_Compressed_pair@U?$_Wrap_alloc@V?$allocator@PAVformula_t@xlslib_core@@@std@@@std@@V?$_Vector_val@U?$_Simple_types@PAVformula_t@xlslib_core@@@std@@@2@$00@std@@QBEABU?$_Wrap_alloc@V?$allocator@PAVformula_t@xlslib_core@@@std@@@2@XZ 10012db0 f i sheetrec.obj
 0001:00011db0       ?_Get_data@?$_String_alloc@U?$_String_base_types@_WV?$allocator@_W@std@@@std@@@std@@QBEABV?$_String_val@U?$_Simple_types@_W@std@@@2@XZ 10012db0 f i cbridge.obj
 0001:00011db0       ?_Get_data@?$_Tree_comp_alloc@V?$_Tset_traits@PAVHPSFitem@xlslib_core@@Vinsertsort2@2@V?$allocator@PAVHPSFitem@xlslib_core@@@std@@$0A@@std@@@std@@QBEABV?$_Tree_val@U?$_Tree_simple_types@PAVHPSFitem@xlslib_core@@@std@@@2@XZ 10012db0 f i HPSF.obj
 0001:00011db0       ?_Getal@?$_Vector_alloc@U?$_Vec_base_types@PBVlabel_t@xlslib_core@@V?$allocator@PBVlabel_t@xlslib_core@@@std@@@std@@@std@@QAEAAU?$_Wrap_alloc@V?$allocator@PBVlabel_t@xlslib_core@@@std@@@2@XZ 10012db0 f i globalrec.obj
 0001:00011db0       ?_Get_second@?$_Compressed_pair@U?$_Wrap_alloc@V?$allocator@PAUHyperLink@xlslib_core@@@std@@@std@@V?$_Vector_val@U?$_Simple_types@PAUHyperLink@xlslib_core@@@std@@@2@$00@std@@QAEAAV?$_Vector_val@U?$_Simple_types@PAUHyperLink@xlslib_core@@@std@@@2@XZ 10012db0 f i sheetrec.obj
 0001:00011db0       ?_Get_second@?$_Compressed_pair@U?$_Wrap_alloc@V?$allocator@PAUHyperLink@xlslib_core@@@std@@@std@@V?$_Vector_val@U?$_Simple_types@PAUHyperLink@xlslib_core@@@std@@@2@$00@std@@QBEABV?$_Vector_val@U?$_Simple_types@PAUHyperLink@xlslib_core@@@std@@@2@XZ 10012db0 f i sheetrec.obj
 0001:00011db0       ??0?$allocator@U?$_Tree_node@PAVrowheight_t@xlslib_core@@PAX@std@@@std@@QAE@XZ 10012db0 f i sheetrec.obj
 0001:00011db0       ??0_Bxty@?$_String_val@U?$_Simple_types@_W@std@@@std@@QAE@XZ 10012db0 f i cbridge.obj
 0001:00011db0       ?_Get_second@?$_Compressed_pair@Vinsertsort@xlslib_core@@V?$_Compressed_pair@U?$_Wrap_alloc@V?$allocator@U?$_Tree_node@PAVcell_t@xlslib_core@@PAX@std@@@std@@@std@@V?$_Tree_val@U?$_Tree_simple_types@PAVcell_t@xlslib_core@@@std@@@2@$00@std@@$00@std@@QAEAAV?$_Compressed_pair@U?$_Wrap_alloc@V?$allocator@U?$_Tree_node@PAVcell_t@xlslib_core@@PAX@std@@@std@@@std@@V?$_Tree_val@U?$_Tree_simple_types@PAVcell_t@xlslib_core@@@std@@@2@$00@2@XZ 10012db0 f i sheetrec.obj
 0001:00011db0       ??$move@AAU?$_Wrap_alloc@V?$allocator@D@std@@@std@@@std@@YA$$QAU?$_Wrap_alloc@V?$allocator@D@std@@@0@AAU10@@Z 10012db0 f i assert_assist.obj
 0001:00011db0       ?_Get_data@?$_Vector_alloc@U?$_Vec_base_types@V?$basic_string@DU?$char_traits@D@std@@V?$allocator@D@2@@std@@V?$allocator@V?$basic_string@DU?$char_traits@D@std@@V?$allocator@D@2@@std@@@2@@std@@@std@@QBEABV?$_Vector_val@U?$_Simple_types@V?$basic_string@DU?$char_traits@D@std@@V?$allocator@D@2@@std@@@std@@@2@XZ 10012db0 f i cbridge.obj
 0001:00011db0       ??0?$allocator@PAVrange_t@xlslib_core@@@std@@QAE@XZ 10012db0 f i sheetrec.obj
 0001:00011db0       ?_Getal@?$_Tree_comp_alloc@V?$_Tset_traits@PAVHPSFitem@xlslib_core@@Vinsertsort2@2@V?$allocator@PAVHPSFitem@xlslib_core@@@std@@$0A@@std@@@std@@QAEAAU?$_Wrap_alloc@V?$allocator@U?$_Tree_node@PAVHPSFitem@xlslib_core@@PAX@std@@@std@@@2@XZ 10012db0 f i HPSF.obj
 0001:00011db0       ?_Get_second@?$_Compressed_pair@U?$_Wrap_alloc@V?$allocator@PAVformat_t@xlslib_core@@@std@@@std@@V?$_Vector_val@U?$_Simple_types@PAVformat_t@xlslib_core@@@std@@@2@$00@std@@QBEABV?$_Vector_val@U?$_Simple_types@PAVformat_t@xlslib_core@@@std@@@2@XZ 10012db0 f i globalrec.obj
 0001:00011db0       ?_Myfirst@?$_Vector_alloc@U?$_Vec_base_types@PBVlabel_t@xlslib_core@@V?$allocator@PBVlabel_t@xlslib_core@@@std@@@std@@@std@@QAEAAPAPBVlabel_t@xlslib_core@@XZ 10012db0 f i globalrec.obj
 0001:00011db0       ?_Myhead@?$_Tree_comp_alloc@V?$_Tset_traits@PAUcolinfo_t@xlslib_core@@Vcolinfosort@2@V?$allocator@PAUcolinfo_t@xlslib_core@@@std@@$0A@@std@@@std@@QBEABQAU?$_Tree_node@PAUcolinfo_t@xlslib_core@@PAX@2@XZ 10012db0 f i sheetrec.obj
 0001:00011db0       ?_Get_data@?$_String_alloc@U?$_String_base_types@_WV?$allocator@_W@std@@@std@@@std@@QAEAAV?$_String_val@U?$_Simple_types@_W@std@@@2@XZ 10012db0 f i cbridge.obj
 0001:00011db0       ?_Get_first@?$_Compressed_pair@VxfSorter@xlslib_core@@V?$_Compressed_pair@U?$_Wrap_alloc@V?$allocator@U?$_Tree_node@U?$pair@PAVxf_t@xlslib_core@@UborderedXft@2@@std@@PAX@std@@@std@@@std@@V?$_Tree_val@U?$_Tree_simple_types@U?$pair@PAVxf_t@xlslib_core@@UborderedXft@2@@std@@@std@@@2@$00@std@@$00@std@@QAEAAVxfSorter@xlslib_core@@XZ 10012db0 f i range.obj
 0001:00011db0       ??$addressof@PBVlabel_t@xlslib_core@@@std@@YAPAPBVlabel_t@xlslib_core@@AAPBV12@@Z 10012db0 f i globalrec.obj
 0001:00011db0       ?_Getal@?$_Vector_alloc@U?$_Vec_base_types@PAVCUnit@xlslib_core@@V?$allocator@PAVCUnit@xlslib_core@@@std@@@std@@@std@@QAEAAU?$_Wrap_alloc@V?$allocator@PAVCUnit@xlslib_core@@@std@@@2@XZ 10012db0 f i datast.obj
 0001:00011db0       ?_Get_data@?$_Tree_comp_alloc@V?$_Tset_traits@PAVrowheight_t@xlslib_core@@Vrowheightsort@2@V?$allocator@PAVrowheight_t@xlslib_core@@@std@@$0A@@std@@@std@@QAEAAV?$_Tree_val@U?$_Tree_simple_types@PAVrowheight_t@xlslib_core@@@std@@@2@XZ 10012db0 f i sheetrec.obj
 0001:00011db0       ?_Myhead@?$_Tree_comp_alloc@V?$_Tset_traits@PAVrowheight_t@xlslib_core@@Vrowheightsort@2@V?$allocator@PAVrowheight_t@xlslib_core@@@std@@$0A@@std@@@std@@QAEAAPAU?$_Tree_node@PAVrowheight_t@xlslib_core@@PAX@2@XZ 10012db0 f i sheetrec.obj
 0001:00011db0       ?_Get_second@?$_Compressed_pair@Vinsertsort2@xlslib_core@@V?$_Compressed_pair@U?$_Wrap_alloc@V?$allocator@U?$_Tree_node@PAVHPSFitem@xlslib_core@@PAX@std@@@std@@@std@@V?$_Tree_val@U?$_Tree_simple_types@PAVHPSFitem@xlslib_core@@@std@@@2@$00@std@@$00@std@@QAEAAV?$_Compressed_pair@U?$_Wrap_alloc@V?$allocator@U?$_Tree_node@PAVHPSFitem@xlslib_core@@PAX@std@@@std@@@std@@V?$_Tree_val@U?$_Tree_simple_types@PAVHPSFitem@xlslib_core@@@std@@@2@$00@2@XZ 10012db0 f i HPSF.obj
 0001:00011db0       ??$_Unchecked@PAPAUDataValidation@xlslib_core@@@std@@YAPAPAUDataValidation@xlslib_core@@PAPAU12@@Z 10012db0 f i sheetrec.obj
 0001:00011db0       ?_Get_second@?$_Compressed_pair@U?$_Wrap_alloc@V?$allocator@U?$_Tree_node@PAVrowheight_t@xlslib_core@@PAX@std@@@std@@@std@@V?$_Tree_val@U?$_Tree_simple_types@PAVrowheight_t@xlslib_core@@@std@@@2@$00@std@@QBEABV?$_Tree_val@U?$_Tree_simple_types@PAVrowheight_t@xlslib_core@@@std@@@2@XZ 10012db0 f i sheetrec.obj
 0001:00011db0       ?pointer_to@?$pointer_traits@PAVCUnitStore@xlslib_core@@@std@@SAPAVCUnitStore@xlslib_core@@AAV34@@Z 10012db0 f i datast.obj
 0001:00011db0       ?_Myfirst@?$_Vector_alloc@U?$_Vec_base_types@PAVfont_t@xlslib_core@@V?$allocator@PAVfont_t@xlslib_core@@@std@@@std@@@std@@QBEABQAPAVfont_t@xlslib_core@@XZ 10012db0 f i globalrec.obj
 0001:00011db0       ?_Get_second@?$_Compressed_pair@U?$_Wrap_alloc@V?$allocator@_W@std@@@std@@V?$_String_val@U?$_Simple_types@_W@std@@@2@$00@std@@QBEABV?$_String_val@U?$_Simple_types@_W@std@@@2@XZ 10012db0 f i cbridge.obj
 0001:00011db0       ??$forward@AAPAVworksheet@xlslib_core@@@std@@YAAAPAVworksheet@xlslib_core@@AAPAV12@@Z 10012db0 f i workbook.obj
 0001:00011db0       ?_Get_second@?$_Compressed_pair@U?$_Wrap_alloc@V?$allocator@I@std@@@std@@V?$_Vector_val@U?$_Simple_types@I@std@@@2@$00@std@@QAEAAV?$_Vector_val@U?$_Simple_types@I@std@@@2@XZ 10012db0 f i sheetrec.obj
 0001:00011db0       ?_Get_first@?$_Compressed_pair@U?$_Wrap_alloc@V?$allocator@U?$_Tree_node@PAVrowheight_t@xlslib_core@@PAX@std@@@std@@@std@@V?$_Tree_val@U?$_Tree_simple_types@PAVrowheight_t@xlslib_core@@@std@@@2@$00@std@@QAEAAU?$_Wrap_alloc@V?$allocator@U?$_Tree_node@PAVrowheight_t@xlslib_core@@PAX@std@@@std@@@2@XZ 10012db0 f i sheetrec.obj
 0001:00011db0       ??$addressof@QAVrange@xlslib_core@@@std@@YAPBQAVrange@xlslib_core@@ABQAV12@@Z 10012db0 f i sheetrec.obj
 0001:00011db0       ?select_on_container_copy_construction@?$allocator_traits@V?$allocator@_W@std@@@std@@SA?AV?$allocator@_W@2@ABV32@@Z 10012db0 f i cbridge.obj
 0001:00011db0       ??0?$_Wrap_alloc@V?$allocator@Urowblocksize_t@xlslib_core@@@std@@@std@@QAE@XZ 10012db0 f i sheetrec.obj
 0001:00011db0       ??0?$_Wrap_alloc@V?$allocator@PAUHyperLink@xlslib_core@@@std@@@std@@QAE@XZ 10012db0 f i sheetrec.obj
 0001:00011db0       ??0?$_Wrap_alloc@V?$allocator@V?$basic_string@_WU?$char_traits@_W@std@@V?$allocator@_W@2@@std@@@std@@@std@@QAE@XZ 10012db0 f i cbridge.obj
 0001:00011db0       ?_Get_data@?$_Vector_alloc@U?$_Vec_base_types@V?$basic_string@_WU?$char_traits@_W@std@@V?$allocator@_W@2@@std@@V?$allocator@V?$basic_string@_WU?$char_traits@_W@std@@V?$allocator@_W@2@@std@@@2@@std@@@std@@QAEAAV?$_Vector_val@U?$_Simple_types@V?$basic_string@_WU?$char_traits@_W@std@@V?$allocator@_W@2@@std@@@std@@@2@XZ 10012db0 f i cbridge.obj
 0001:00011db0       ??0?$allocator@_S@std@@QAE@XZ 10012db0 f i format.obj
 0001:00011db0       ??0?$allocator@PAVrange@xlslib_core@@@std@@QAE@XZ 10012db0 f i sheetrec.obj
 0001:00011db0       ?_Myfirst@?$_Vector_alloc@U?$_Vec_base_types@PAVCOleProp@xlslib_core@@V?$allocator@PAVCOleProp@xlslib_core@@@std@@@std@@@std@@QBEABQAPAVCOleProp@xlslib_core@@XZ 10012db0 f i olefs.obj
 0001:00011db0       ?underlying_stream@str_stream@@QBEAAV?$basic_stringstream@DU?$char_traits@D@std@@V?$allocator@D@2@@std@@XZ 10012db0 f i assert_assist.obj
 0001:00011db0       ?_Myfirst@?$_Vector_alloc@U?$_Vec_base_types@V?$basic_string@DU?$char_traits@D@std@@V?$allocator@D@2@@std@@V?$allocator@V?$basic_string@DU?$char_traits@D@std@@V?$allocator@D@2@@std@@@2@@std@@@std@@QAEAAPAV?$basic_string@DU?$char_traits@D@std@@V?$allocator@D@2@@2@XZ 10012db0 f i cbridge.obj
 0001:00011db0       ??$_Unchecked@PAPAVrange@xlslib_core@@@std@@YAPAPAVrange@xlslib_core@@PAPAV12@@Z 10012db0 f i sheetrec.obj
 0001:00011db0       ??$_Ptr_move_cat@PAVformula_t@xlslib_core@@PAV12@@std@@YA?AU_Really_trivial_ptr_iterator_tag@0@ABQAPAVformula_t@xlslib_core@@0@Z 10012db0 f i sheetrec.obj
 0001:00011db0       ?_Get_first@?$_Compressed_pair@U?$_Wrap_alloc@V?$allocator@PAUstyle_t@xlslib_core@@@std@@@std@@V?$_Vector_val@U?$_Simple_types@PAUstyle_t@xlslib_core@@@std@@@2@$00@std@@QBEABU?$_Wrap_alloc@V?$allocator@PAUstyle_t@xlslib_core@@@std@@@2@XZ 10012db0 f i globalrec.obj
 0001:00011db0       ?_Getal@?$_Vector_alloc@U?$_Vec_base_types@IV?$allocator@I@std@@@std@@@std@@QBEABU?$_Wrap_alloc@V?$allocator@I@std@@@2@XZ 10012db0 f i sheetrec.obj
 0001:00011db0       ?_Get_data@?$_Tree_comp_alloc@V?$_Tset_traits@PAVcell_t@xlslib_core@@Vinsertsort@2@V?$allocator@PAVcell_t@xlslib_core@@@std@@$0A@@std@@@std@@QAEAAV?$_Tree_val@U?$_Tree_simple_types@PAVcell_t@xlslib_core@@@std@@@2@XZ 10012db0 f i sheetrec.obj
 0001:00011db0       ?_Get_first@?$_Compressed_pair@U?$_Wrap_alloc@V?$allocator@N@std@@@std@@V?$_Vector_val@U?$_Simple_types@N@std@@@2@$00@std@@QBEABU?$_Wrap_alloc@V?$allocator@N@std@@@2@XZ 10012db0 f i cbridge.obj
 0001:00011db0       ?_Getal@?$_Vector_alloc@U?$_Vec_base_types@PAVrange_t@xlslib_core@@V?$allocator@PAVrange_t@xlslib_core@@@std@@@std@@@std@@QAEAAU?$_Wrap_alloc@V?$allocator@PAVrange_t@xlslib_core@@@std@@@2@XZ 10012db0 f i sheetrec.obj
 0001:00011db0       ?_Get_second@?$_Compressed_pair@Vinsertsort@xlslib_core@@V?$_Compressed_pair@U?$_Wrap_alloc@V?$allocator@U?$_Tree_node@PAVcell_t@xlslib_core@@PAX@std@@@std@@@std@@V?$_Tree_val@U?$_Tree_simple_types@PAVcell_t@xlslib_core@@@std@@@2@$00@std@@$00@std@@QBEABV?$_Compressed_pair@U?$_Wrap_alloc@V?$allocator@U?$_Tree_node@PAVcell_t@xlslib_core@@PAX@std@@@std@@@std@@V?$_Tree_val@U?$_Tree_simple_types@PAVcell_t@xlslib_core@@@std@@@2@$00@2@XZ 10012db0 f i sheetrec.obj
 0001:00011db0       ?_Get_data@?$_Vector_alloc@U?$_Vec_base_types@PAVCUnit@xlslib_core@@V?$allocator@PAVCUnit@xlslib_core@@@std@@@std@@@std@@QAEAAV?$_Vector_val@U?$_Simple_types@PAVCUnit@xlslib_core@@@std@@@2@XZ 10012db0 f i datast.obj
 0001:00011db0       ?_Get_first@?$_Compressed_pair@U?$_Wrap_alloc@V?$allocator@V?$basic_string@DU?$char_traits@D@std@@V?$allocator@D@2@@std@@@std@@@std@@V?$_Vector_val@U?$_Simple_types@V?$basic_string@DU?$char_traits@D@std@@V?$allocator@D@2@@std@@@std@@@2@$00@std@@QBEABU?$_Wrap_alloc@V?$allocator@V?$basic_string@DU?$char_traits@D@std@@V?$allocator@D@2@@std@@@std@@@2@XZ 10012db0 f i cbridge.obj
 0001:00011db0       ?_Get_data@?$_String_alloc@U?$_String_base_types@_SV?$allocator@_S@std@@@std@@@std@@QAEAAV?$_String_val@U?$_Simple_types@_S@std@@@2@XZ 10012db0 f i datast.obj
 0001:00011db0       ??0?$allocator@PAVboundsheet_t@xlslib_core@@@std@@QAE@XZ 10012db0 f i globalrec.obj
 0001:00011db0       ??$_Ptr_move_cat@PAUstyle_t@xlslib_core@@PAU12@@std@@YA?AU_Really_trivial_ptr_iterator_tag@0@ABQAPAUstyle_t@xlslib_core@@0@Z 10012db0 f i globalrec.obj
 0001:00011db0       ?_Get_first@?$_Compressed_pair@Vinsertsort2@xlslib_core@@V?$_Compressed_pair@U?$_Wrap_alloc@V?$allocator@U?$_Tree_node@PAVHPSFitem@xlslib_core@@PAX@std@@@std@@@std@@V?$_Tree_val@U?$_Tree_simple_types@PAVHPSFitem@xlslib_core@@@std@@@2@$00@std@@$00@std@@QAEAAVinsertsort2@xlslib_core@@XZ 10012db0 f i HPSF.obj
 0001:00011db0       ??$forward@AAPAVrange_t@xlslib_core@@@std@@YAAAPAVrange_t@xlslib_core@@AAPAV12@@Z 10012db0 f i sheetrec.obj
 0001:00011db0       ?_Get_data@?$_Vector_alloc@U?$_Vec_base_types@PAUHyperLink@xlslib_core@@V?$allocator@PAUHyperLink@xlslib_core@@@std@@@std@@@std@@QBEABV?$_Vector_val@U?$_Simple_types@PAUHyperLink@xlslib_core@@@std@@@2@XZ 10012db0 f i sheetrec.obj
 0001:00011db0       ??$_Ptr_move_cat@PAVrange@xlslib_core@@PAV12@@std@@YA?AU_Really_trivial_ptr_iterator_tag@0@ABQAPAVrange@xlslib_core@@0@Z 10012db0 f i sheetrec.obj
 0001:00011db0       ??$forward@ABQAVrowheight_t@xlslib_core@@@std@@YAABQAVrowheight_t@xlslib_core@@ABQAV12@@Z 10012db0 f i sheetrec.obj
 0001:00011db0       ??$_Ptr_move_cat@II@std@@YA?AU_Really_trivial_ptr_iterator_tag@0@ABQAI0@Z 10012db0 f i sheetrec.obj
 0001:00011db0       ??$_Ptr_move_cat@PAVCUnit@xlslib_core@@PAV12@@std@@YA?AU_Really_trivial_ptr_iterator_tag@0@ABQAPAVCUnit@xlslib_core@@0@Z 10012db0 f i datast.obj
 0001:00011db0       ??$forward@ABVrowheightsort@xlslib_core@@@std@@YAABVrowheightsort@xlslib_core@@ABV12@@Z 10012db0 f i sheetrec.obj
 0001:00011db0       ?_Nextnode@?$_List_alloc@U?$_List_base_types@PAV?$basic_string@DU?$char_traits@D@std@@V?$allocator@D@2@@std@@V?$allocator@PAV?$basic_string@DU?$char_traits@D@std@@V?$allocator@D@2@@std@@@2@@std@@@std@@SAAAPAU?$_List_node@PAV?$basic_string@DU?$char_traits@D@std@@V?$allocator@D@2@@std@@PAX@2@PAU32@@Z 10012db0 f i olefs.obj
 0001:00011db0       ??$forward@AAV?$_Tree_const_iterator@V?$_Tree_val@U?$_Tree_simple_types@PAVcell_t@xlslib_core@@@std@@@std@@@std@@@std@@YAAAV?$_Tree_const_iterator@V?$_Tree_val@U?$_Tree_simple_types@PAVcell_t@xlslib_core@@@std@@@std@@@0@AAV10@@Z 10012db0 f i sheetrec.obj
 0001:00011db0       ?_Get_first@?$_Compressed_pair@U?$_Wrap_alloc@V?$allocator@D@std@@@std@@V?$_String_val@U?$_Simple_types@D@std@@@2@$00@std@@QAEAAU?$_Wrap_alloc@V?$allocator@D@std@@@2@XZ 10012db0 f i assert_assist.obj
 0001:00011db0       ?_Get_second@?$_Compressed_pair@U?$_Wrap_alloc@V?$allocator@PAVCUnit@xlslib_core@@@std@@@std@@V?$_Vector_val@U?$_Simple_types@PAVCUnit@xlslib_core@@@std@@@2@$00@std@@QAEAAV?$_Vector_val@U?$_Simple_types@PAVCUnit@xlslib_core@@@std@@@2@XZ 10012db0 f i datast.obj
 0001:00011db0       ?_Myfirst@?$_Vector_alloc@U?$_Vec_base_types@PAVformat_t@xlslib_core@@V?$allocator@PAVformat_t@xlslib_core@@@std@@@std@@@std@@QBEABQAPAVformat_t@xlslib_core@@XZ 10012db0 f i globalrec.obj
 0001:00011db0       ??$addressof@QAVCUnit@xlslib_core@@@std@@YAPBQAVCUnit@xlslib_core@@ABQAV12@@Z 10012db0 f i datast.obj
 0001:00011db0       ??$_Unfancy@D@std@@YAPADPAD@Z 10012db0 f i assert_assist.obj
 0001:00011db0       ?_Myfirst@?$_Vector_alloc@U?$_Vec_base_types@IV?$allocator@I@std@@@std@@@std@@QBEABQAIXZ 10012db0 f i sheetrec.obj
 0001:00011db0       ?_Myfirst@?$_Vector_alloc@U?$_Vec_base_types@PAVboundsheet_t@xlslib_core@@V?$allocator@PAVboundsheet_t@xlslib_core@@@std@@@std@@@std@@QBEABQAPAVboundsheet_t@xlslib_core@@XZ 10012db0 f i datast.obj
 0001:00011db0       ?_Get_second@?$_Compressed_pair@U?$_Wrap_alloc@V?$allocator@VCUnitStore@xlslib_core@@@std@@@std@@V?$_Vector_val@U?$_Simple_types@VCUnitStore@xlslib_core@@@std@@@2@$00@std@@QBEABV?$_Vector_val@U?$_Simple_types@VCUnitStore@xlslib_core@@@std@@@2@XZ 10012db0 f i datast.obj
 0001:00011db0       ?_Get_data@?$_Vector_alloc@U?$_Vec_base_types@Urowblocksize_t@xlslib_core@@V?$allocator@Urowblocksize_t@xlslib_core@@@std@@@std@@@std@@QAEAAV?$_Vector_val@U?$_Simple_types@Urowblocksize_t@xlslib_core@@@std@@@2@XZ 10012db0 f i sheetrec.obj
 0001:00011db0       ??0?$allocator@PAUDataValidation@xlslib_core@@@std@@QAE@XZ 10012db0 f i sheetrec.obj
 0001:00011db0       ?_Myfirst@?$_Vector_alloc@U?$_Vec_base_types@PAVworksheet@xlslib_core@@V?$allocator@PAVworksheet@xlslib_core@@@std@@@std@@@std@@QAEAAPAPAVworksheet@xlslib_core@@XZ 10012db0 f i workbook.obj
 0001:00011db0       ?_Myfirst@?$_Vector_alloc@U?$_Vec_base_types@IV?$allocator@I@std@@@std@@@std@@QAEAAPAIXZ 10012db0 f i sheetrec.obj
 0001:00011db0       ?_Get_data@?$_String_alloc@U?$_String_base_types@DV?$allocator@D@std@@@std@@@std@@QBEABV?$_String_val@U?$_Simple_types@D@std@@@2@XZ 10012db0 f i assert_assist.obj
 0001:00011db0       ??0?$_Wrap_alloc@V?$allocator@I@std@@@std@@QAE@XZ 10012db0 f i sheetrec.obj
 0001:00011db0       ?_Get_second@?$_Compressed_pair@U?$_Wrap_alloc@V?$allocator@PAUstyle_t@xlslib_core@@@std@@@std@@V?$_Vector_val@U?$_Simple_types@PAUstyle_t@xlslib_core@@@std@@@2@$00@std@@QBEABV?$_Vector_val@U?$_Simple_types@PAUstyle_t@xlslib_core@@@std@@@2@XZ 10012db0 f i globalrec.obj
 0001:00011db0       ?_Myfirst@?$_Vector_alloc@U?$_Vec_base_types@PAVformat_t@xlslib_core@@V?$allocator@PAVformat_t@xlslib_core@@@std@@@std@@@std@@QAEAAPAPAVformat_t@xlslib_core@@XZ 10012db0 f i globalrec.obj
 0001:00011db0       ?_Get_data@?$_Tree_comp_alloc@V?$_Tset_traits@PAVrowheight_t@xlslib_core@@Vrowheightsort@2@V?$allocator@PAVrowheight_t@xlslib_core@@@std@@$0A@@std@@@std@@QBEABV?$_Tree_val@U?$_Tree_simple_types@PAVrowheight_t@xlslib_core@@@std@@@2@XZ 10012db0 f i sheetrec.obj
 0001:00011db0       ??0?$_Wrap_alloc@V?$allocator@PAUstyle_t@xlslib_core@@@std@@@std@@QAE@XZ 10012db0 f i globalrec.obj
 0001:00011db0       ?_Get_second@?$_Compressed_pair@U?$_Wrap_alloc@V?$allocator@_W@std@@@std@@V?$_String_val@U?$_Simple_types@_W@std@@@2@$00@std@@QAEAAV?$_String_val@U?$_Simple_types@_W@std@@@2@XZ 10012db0 f i cbridge.obj
 0001:00011db0       ??$addressof@QAVfont_t@xlslib_core@@@std@@YAPBQAVfont_t@xlslib_core@@ABQAV12@@Z 10012db0 f i globalrec.obj
 0001:00011db0       ??$forward@AAPA_S@std@@YAAAPA_SAAPA_S@Z 10012db0 f i datast.obj
 0001:00011db0       ?_Getal@?$_Tree_comp_alloc@V?$_Tset_traits@PAVrowheight_t@xlslib_core@@Vrowheightsort@2@V?$allocator@PAVrowheight_t@xlslib_core@@@std@@$0A@@std@@@std@@QBEABU?$_Wrap_alloc@V?$allocator@U?$_Tree_node@PAVrowheight_t@xlslib_core@@PAX@std@@@std@@@2@XZ 10012db0 f i sheetrec.obj
 0001:00011db0       ??$_Unfancy@PAUstyle_t@xlslib_core@@@std@@YAPAPAUstyle_t@xlslib_core@@PAPAU12@@Z 10012db0 f i globalrec.obj
 0001:00011db0       ?_Get_data@?$_Vector_alloc@U?$_Vec_base_types@PAVformula_t@xlslib_core@@V?$allocator@PAVformula_t@xlslib_core@@@std@@@std@@@std@@QAEAAV?$_Vector_val@U?$_Simple_types@PAVformula_t@xlslib_core@@@std@@@2@XZ 10012db0 f i sheetrec.obj
 0001:00011db0       ?_Get_data@?$_Vector_alloc@U?$_Vec_base_types@PBVlabel_t@xlslib_core@@V?$allocator@PBVlabel_t@xlslib_core@@@std@@@std@@@std@@QBEABV?$_Vector_val@U?$_Simple_types@PBVlabel_t@xlslib_core@@@std@@@2@XZ 10012db0 f i datast.obj
 0001:00011db0       ?_Get_data@?$_Tree_comp_alloc@V?$_Tset_traits@PAVcell_t@xlslib_core@@Vinsertsort@2@V?$allocator@PAVcell_t@xlslib_core@@@std@@$0A@@std@@@std@@QBEABV?$_Tree_val@U?$_Tree_simple_types@PAVcell_t@xlslib_core@@@std@@@2@XZ 10012db0 f i sheetrec.obj
 0001:00011db0       ?_Get_second@?$_Compressed_pair@U?$_Wrap_alloc@V?$allocator@PAVrange_t@xlslib_core@@@std@@@std@@V?$_Vector_val@U?$_Simple_types@PAVrange_t@xlslib_core@@@std@@@2@$00@std@@QBEABV?$_Vector_val@U?$_Simple_types@PAVrange_t@xlslib_core@@@std@@@2@XZ 10012db0 f i sheetrec.obj
 0001:00011db0       ?_Get_first@?$_Compressed_pair@U?$_Wrap_alloc@V?$allocator@U?$_Tree_node@PAUcolinfo_t@xlslib_core@@PAX@std@@@std@@@std@@V?$_Tree_val@U?$_Tree_simple_types@PAUcolinfo_t@xlslib_core@@@std@@@2@$00@std@@QBEABU?$_Wrap_alloc@V?$allocator@U?$_Tree_node@PAUcolinfo_t@xlslib_core@@PAX@std@@@std@@@2@XZ 10012db0 f i sheetrec.obj
 0001:00011db0       ??$_Unchecked@PAV?$basic_string@DU?$char_traits@D@std@@V?$allocator@D@2@@std@@@std@@YAPAV?$basic_string@DU?$char_traits@D@std@@V?$allocator@D@2@@0@PAV10@@Z 10012db0 f i cbridge.obj
 0001:00011db0       ?_Myfirst@?$_Vector_alloc@U?$_Vec_base_types@PAVxf_t@xlslib_core@@V?$allocator@PAVxf_t@xlslib_core@@@std@@@std@@@std@@QBEABQAPAVxf_t@xlslib_core@@XZ 10012db0 f i globalrec.obj
 0001:00011db0       ?_Get_first@?$_Compressed_pair@U?$_Wrap_alloc@V?$allocator@PAVrange@xlslib_core@@@std@@@std@@V?$_Vector_val@U?$_Simple_types@PAVrange@xlslib_core@@@std@@@2@$00@std@@QAEAAU?$_Wrap_alloc@V?$allocator@PAVrange@xlslib_core@@@std@@@2@XZ 10012db0 f i sheetrec.obj
 0001:00011db0       ?_Get_second@?$_Compressed_pair@Vrowheightsort@xlslib_core@@V?$_Compressed_pair@U?$_Wrap_alloc@V?$allocator@U?$_Tree_node@PAVrowheight_t@xlslib_core@@PAX@std@@@std@@@std@@V?$_Tree_val@U?$_Tree_simple_types@PAVrowheight_t@xlslib_core@@@std@@@2@$00@std@@$00@std@@QAEAAV?$_Compressed_pair@U?$_Wrap_alloc@V?$allocator@U?$_Tree_node@PAVrowheight_t@xlslib_core@@PAX@std@@@std@@@std@@V?$_Tree_val@U?$_Tree_simple_types@PAVrowheight_t@xlslib_core@@@std@@@2@$00@2@XZ 10012db0 f i sheetrec.obj
 0001:00011db0       ?_Get_second@?$_Compressed_pair@Vrowheightsort@xlslib_core@@V?$_Compressed_pair@U?$_Wrap_alloc@V?$allocator@U?$_Tree_node@PAVrowheight_t@xlslib_core@@PAX@std@@@std@@@std@@V?$_Tree_val@U?$_Tree_simple_types@PAVrowheight_t@xlslib_core@@@std@@@2@$00@std@@$00@std@@QBEABV?$_Compressed_pair@U?$_Wrap_alloc@V?$allocator@U?$_Tree_node@PAVrowheight_t@xlslib_core@@PAX@std@@@std@@@std@@V?$_Tree_val@U?$_Tree_simple_types@PAVrowheight_t@xlslib_core@@@std@@@2@$00@2@XZ 10012db0 f i sheetrec.obj
 0001:00011db0       ?_Get_data@?$_Vector_alloc@U?$_Vec_base_types@IV?$allocator@I@std@@@std@@@std@@QBEABV?$_Vector_val@U?$_Simple_types@I@std@@@2@XZ 10012db0 f i sheetrec.obj
 0001:00011db0       ?_Get_first@?$_Compressed_pair@Vinsertsort@xlslib_core@@V?$_Compressed_pair@U?$_Wrap_alloc@V?$allocator@U?$_Tree_node@PAVcell_t@xlslib_core@@PAX@std@@@std@@@std@@V?$_Tree_val@U?$_Tree_simple_types@PAVcell_t@xlslib_core@@@std@@@2@$00@std@@$00@std@@QAEAAVinsertsort@xlslib_core@@XZ 10012db0 f i sheetrec.obj
 0001:00011db0       ?_Myfirst@?$_Vector_alloc@U?$_Vec_base_types@PAVrange@xlslib_core@@V?$allocator@PAVrange@xlslib_core@@@std@@@std@@@std@@QBEABQAPAVrange@xlslib_core@@XZ 10012db0 f i sheetrec.obj
 0001:00011db0       ??0?$_Wrap_alloc@V?$allocator@U?$_Tree_node@PAVcell_t@xlslib_core@@PAX@std@@@std@@@std@@QAE@XZ 10012db0 f i sheetrec.obj
 0001:00011db0       ??0?$allocator@PAVworksheet@xlslib_core@@@std@@QAE@XZ 10012db0 f i workbook.obj
 0001:00011db0       ?_Get_first@?$_Compressed_pair@Vcolinfosort@xlslib_core@@V?$_Compressed_pair@U?$_Wrap_alloc@V?$allocator@U?$_Tree_node@PAUcolinfo_t@xlslib_core@@PAX@std@@@std@@@std@@V?$_Tree_val@U?$_Tree_simple_types@PAUcolinfo_t@xlslib_core@@@std@@@2@$00@std@@$00@std@@QBEABVcolinfosort@xlslib_core@@XZ 10012db0 f i sheetrec.obj
 0001:00011db0       ??0?$allocator@N@std@@QAE@XZ 10012db0 f i cbridge.obj
 0001:00011db0       ??$_Unchecked@PAPBVlabel_t@xlslib_core@@@std@@YAPAPBVlabel_t@xlslib_core@@PAPBV12@@Z 10012db0 f i globalrec.obj
 0001:00011db0       ?_Left@?$_Tree_comp_alloc@V?$_Tset_traits@U?$pair@PAVxf_t@xlslib_core@@UborderedXft@2@@std@@VxfSorter@xlslib_core@@V?$allocator@U?$pair@PAVxf_t@xlslib_core@@UborderedXft@2@@std@@@2@$0A@@std@@@std@@SAAAPAU?$_Tree_node@U?$pair@PAVxf_t@xlslib_core@@UborderedXft@2@@std@@PAX@2@PAU32@@Z 10012db0 f i range.obj
 0001:00011db0       ?_Get_data@?$_Vector_alloc@U?$_Vec_base_types@V?$basic_string@DU?$char_traits@D@std@@V?$allocator@D@2@@std@@V?$allocator@V?$basic_string@DU?$char_traits@D@std@@V?$allocator@D@2@@std@@@2@@std@@@std@@QAEAAV?$_Vector_val@U?$_Simple_types@V?$basic_string@DU?$char_traits@D@std@@V?$allocator@D@2@@std@@@std@@@2@XZ 10012db0 f i cbridge.obj
 0001:00011db0       ?_Get_second@?$_Compressed_pair@U?$_Wrap_alloc@V?$allocator@U?$_Tree_node@PAVcell_t@xlslib_core@@PAX@std@@@std@@@std@@V?$_Tree_val@U?$_Tree_simple_types@PAVcell_t@xlslib_core@@@std@@@2@$00@std@@QAEAAV?$_Tree_val@U?$_Tree_simple_types@PAVcell_t@xlslib_core@@@std@@@2@XZ 10012db0 f i sheetrec.obj
 0001:00011db0       ?_Getal@?$_Tree_comp_alloc@V?$_Tset_traits@PAUcolinfo_t@xlslib_core@@Vcolinfosort@2@V?$allocator@PAUcolinfo_t@xlslib_core@@@std@@$0A@@std@@@std@@QBEABU?$_Wrap_alloc@V?$allocator@U?$_Tree_node@PAUcolinfo_t@xlslib_core@@PAX@std@@@std@@@2@XZ 10012db0 f i sheetrec.obj
 0001:00011db0       ??$forward@V?$_Tree_const_iterator@V?$_Tree_val@U?$_Tree_simple_types@PAVHPSFitem@xlslib_core@@@std@@@std@@@std@@@std@@YA$$QAV?$_Tree_const_iterator@V?$_Tree_val@U?$_Tree_simple_types@PAVHPSFitem@xlslib_core@@@std@@@std@@@0@AAV10@@Z 10012db0 f i HPSF.obj
 0001:00011db0       ??$_Ptr_move_cat@PAVfont_t@xlslib_core@@PAV12@@std@@YA?AU_Really_trivial_ptr_iterator_tag@0@ABQAPAVfont_t@xlslib_core@@0@Z 10012db0 f i globalrec.obj
 0001:00011db0       ??$_Ptr_move_cat@PAVCOleProp@xlslib_core@@PAV12@@std@@YA?AU_Really_trivial_ptr_iterator_tag@0@ABQAPAVCOleProp@xlslib_core@@0@Z 10012db0 f i olefs.obj
 0001:00011db0       ??$_Unfancy@PAVrange@xlslib_core@@@std@@YAPAPAVrange@xlslib_core@@PAPAV12@@Z 10012db0 f i sheetrec.obj
 0001:00011db0       ?_Get_data@?$_Vector_alloc@U?$_Vec_base_types@PAVformula_t@xlslib_core@@V?$allocator@PAVformula_t@xlslib_core@@@std@@@std@@@std@@QBEABV?$_Vector_val@U?$_Simple_types@PAVformula_t@xlslib_core@@@std@@@2@XZ 10012db0 f i sheetrec.obj
 0001:00011db0       ?_Get_data@?$_Vector_alloc@U?$_Vec_base_types@PBVlabel_t@xlslib_core@@V?$allocator@PBVlabel_t@xlslib_core@@@std@@@std@@@std@@QAEAAV?$_Vector_val@U?$_Simple_types@PBVlabel_t@xlslib_core@@@std@@@2@XZ 10012db0 f i globalrec.obj
 0001:00011db0       ??$addressof@VCUnitStore@xlslib_core@@@std@@YAPAVCUnitStore@xlslib_core@@AAV12@@Z 10012db0 f i datast.obj
 0001:00011db0       ?_Get_data@?$_Vector_alloc@U?$_Vec_base_types@PAVboundsheet_t@xlslib_core@@V?$allocator@PAVboundsheet_t@xlslib_core@@@std@@@std@@@std@@QBEABV?$_Vector_val@U?$_Simple_types@PAVboundsheet_t@xlslib_core@@@std@@@2@XZ 10012db0 f i datast.obj
 0001:00011db0       ?_Get_data@?$_Vector_alloc@U?$_Vec_base_types@PAUHyperLink@xlslib_core@@V?$allocator@PAUHyperLink@xlslib_core@@@std@@@std@@@std@@QAEAAV?$_Vector_val@U?$_Simple_types@PAUHyperLink@xlslib_core@@@std@@@2@XZ 10012db0 f i sheetrec.obj
 0001:00011db0       ?_Get_second@?$_Compressed_pair@U?$_Wrap_alloc@V?$allocator@U?$_Tree_node@PAUcolinfo_t@xlslib_core@@PAX@std@@@std@@@std@@V?$_Tree_val@U?$_Tree_simple_types@PAUcolinfo_t@xlslib_core@@@std@@@2@$00@std@@QBEABV?$_Tree_val@U?$_Tree_simple_types@PAUcolinfo_t@xlslib_core@@@std@@@2@XZ 10012db0 f i sheetrec.obj
 0001:00011db0       ??$addressof@PAD@std@@YAPAPADAAPAD@Z 10012db0 f i assert_assist.obj
 0001:00011db0       ??$forward@V?$allocator@_W@std@@@std@@YA$$QAV?$allocator@_W@0@AAV10@@Z 10012db0 f i cbridge.obj
 0001:00011dc0       ??Bstr_stream@@QBE?AV?$basic_string@DU?$char_traits@D@std@@V?$allocator@D@2@@std@@XZ 10012dc0 f i assert_assist.obj
 0001:00011de0       ??_D?$basic_stringstream@DU?$char_traits@D@std@@V?$allocator@D@2@@std@@QAEXXZ 10012de0 f i assert_assist.obj
 0001:00011de0       ??1str_stream@@QAE@XZ      10012de0 f i assert_assist.obj
 0001:00011f50       ??0?$_Compressed_pair@U?$_Wrap_alloc@V?$allocator@D@std@@@std@@V?$_String_val@U?$_Simple_types@D@std@@@2@$00@std@@QAE@ABV01@@Z 10012f50 f i assert_assist.obj
 0001:00011f50       ??0?$_String_alloc@U?$_String_base_types@DV?$allocator@D@std@@@std@@@std@@QAE@ABV01@@Z 10012f50 f i assert_assist.obj
 0001:00011f80       ?_Orphan_all@?$_Vector_alloc@U?$_Vec_base_types@Urowblocksize_t@xlslib_core@@V?$allocator@Urowblocksize_t@xlslib_core@@@std@@@std@@@std@@QAEXXZ 10012f80 f i sheetrec.obj
 0001:00011f80       ??3@YAXPAX0@Z              10012f80 f i cbridge.obj
 0001:00011f80       ??$_Destroy_range@V?$allocator@PAVCOleProp@xlslib_core@@@std@@PAPAVCOleProp@xlslib_core@@@std@@YAXPAPAVCOleProp@xlslib_core@@0AAU?$_Wrap_alloc@V?$allocator@PAVCOleProp@xlslib_core@@@std@@@0@@Z 10012f80 f i oledoc.obj
 0001:00011f80       ??1?$_String_val@U?$_Simple_types@D@std@@@std@@QAE@XZ 10012f80 f i assert_assist.obj
 0001:00011f80       ??$destroy@PAVcell_t@xlslib_core@@@?$allocator_traits@V?$allocator@U?$_Tree_node@PAVcell_t@xlslib_core@@PAX@std@@@std@@@std@@SAXAAV?$allocator@U?$_Tree_node@PAVcell_t@xlslib_core@@PAX@std@@@1@PAPAVcell_t@xlslib_core@@@Z 10012f80 f i sheetrec.obj
 0001:00011f80       ??$_Destroy_range@V?$allocator@PAVformula_t@xlslib_core@@@std@@PAPAVformula_t@xlslib_core@@@std@@YAXPAPAVformula_t@xlslib_core@@0AAU?$_Wrap_alloc@V?$allocator@PAVformula_t@xlslib_core@@@std@@@0@@Z 10012f80 f i sheetrec.obj
 0001:00011f80       ??$destroy@PAVxf_t@xlslib_core@@@?$allocator_traits@V?$allocator@PAVxf_t@xlslib_core@@@std@@@std@@SAXAAV?$allocator@PAVxf_t@xlslib_core@@@1@PAPAVxf_t@xlslib_core@@@Z 10012f80 f i globalrec.obj
 0001:00011f80       ?_Orphan_all@?$_Vector_alloc@U?$_Vec_base_types@PAVCOleProp@xlslib_core@@V?$allocator@PAVCOleProp@xlslib_core@@@std@@@std@@@std@@QAEXXZ 10012f80 f i oledoc.obj
 0001:00011f80       ??$_Destroy_range@V?$allocator@Urowblocksize_t@xlslib_core@@@std@@PAUrowblocksize_t@xlslib_core@@@std@@YAXPAUrowblocksize_t@xlslib_core@@0AAU?$_Wrap_alloc@V?$allocator@Urowblocksize_t@xlslib_core@@@std@@@0@@Z 10012f80 f i sheetrec.obj
 0001:00011f80       ??$_Destroy_range@V?$allocator@PAUDataValidation@xlslib_core@@@std@@PAPAUDataValidation@xlslib_core@@@std@@YAXPAPAUDataValidation@xlslib_core@@0AAU?$_Wrap_alloc@V?$allocator@PAUDataValidation@xlslib_core@@@std@@@0@@Z 10012f80 f i sheetrec.obj
 0001:00011f80       ??$_Pocca@U?$_Wrap_alloc@V?$allocator@_S@std@@@std@@@std@@YAXAAU?$_Wrap_alloc@V?$allocator@_S@std@@@0@ABU10@U?$integral_constant@_N$0A@@0@@Z 10012f80 f i formula_estimate.obj
 0001:00011f80       ?_Orphan_all@?$_Vector_alloc@U?$_Vec_base_types@V?$basic_string@_WU?$char_traits@_W@std@@V?$allocator@_W@2@@std@@V?$allocator@V?$basic_string@_WU?$char_traits@_W@std@@V?$allocator@_W@2@@std@@@2@@std@@@std@@QAEXXZ 10012f80 f i cbridge.obj
 0001:00011f80       ??$__vcrt_va_start_verify_argument_type@QBD@@YAXXZ 10012f80 f i legacy_stdio_definitions:legacy_stdio_definitions.obj
 0001:00011f80       ??$_Pocma@U?$_Wrap_alloc@V?$allocator@D@std@@@std@@@std@@YAXAAU?$_Wrap_alloc@V?$allocator@D@std@@@0@0U?$integral_constant@_N$00@0@@Z 10012f80 f i olefs.obj
 0001:00011f80       ??1_Bxty@?$_String_val@U?$_Simple_types@_W@std@@@std@@QAE@XZ 10012f80 f i cbridge.obj
 0001:00011f80       ?_Orphan_all@?$_Vector_alloc@U?$_Vec_base_types@PAUDataValidation@xlslib_core@@V?$allocator@PAUDataValidation@xlslib_core@@@std@@@std@@@std@@QAEXXZ 10012f80 f i sheetrec.obj
 0001:00011f80       ??$__vcrt_va_start_verify_argument_type@PB_W@@YAXXZ 10012f80 f i legacy_stdio_definitions:legacy_stdio_definitions.obj
 0001:00011f80       ??$_Pocma@U?$_Wrap_alloc@V?$allocator@D@std@@@std@@@std@@YAXAAU?$_Wrap_alloc@V?$allocator@D@std@@@0@0@Z 10012f80 f i olefs.obj
 0001:00011f80       ??$_Destroy_range@V?$allocator@PBVlabel_t@xlslib_core@@@std@@PAPBVlabel_t@xlslib_core@@@std@@YAXPAPBVlabel_t@xlslib_core@@0AAU?$_Wrap_alloc@V?$allocator@PBVlabel_t@xlslib_core@@@std@@@0@@Z 10012f80 f i globalrec.obj
 0001:00011f80       ??$_Destroy_range1@V?$allocator@PAVfont_t@xlslib_core@@@std@@PAPAVfont_t@xlslib_core@@@std@@YAXPAPAVfont_t@xlslib_core@@0AAU?$_Wrap_alloc@V?$allocator@PAVfont_t@xlslib_core@@@std@@@0@U?$integral_constant@_N$00@0@@Z 10012f80 f i globalrec.obj
 0001:00011f80       ?_Orphan_all@?$_Vector_alloc@U?$_Vec_base_types@V?$basic_string@DU?$char_traits@D@std@@V?$allocator@D@2@@std@@V?$allocator@V?$basic_string@DU?$char_traits@D@std@@V?$allocator@D@2@@std@@@2@@std@@@std@@QAEXXZ 10012f80 f i cbridge.obj
 0001:00011f80       ?_Orphan_all@?$_Vector_alloc@U?$_Vec_base_types@PAUHyperLink@xlslib_core@@V?$allocator@PAUHyperLink@xlslib_core@@@std@@@std@@@std@@QAEXXZ 10012f80 f i sheetrec.obj
 0001:00011f80       ??$_Destroy_range1@V?$allocator@PAUDataValidation@xlslib_core@@@std@@PAPAUDataValidation@xlslib_core@@@std@@YAXPAPAUDataValidation@xlslib_core@@0AAU?$_Wrap_alloc@V?$allocator@PAUDataValidation@xlslib_core@@@std@@@0@U?$integral_constant@_N$00@0@@Z 10012f80 f i sheetrec.obj
 0001:00011f80       ?_Orphan_all@?$_Vector_alloc@U?$_Vec_base_types@PAVboundsheet_t@xlslib_core@@V?$allocator@PAVboundsheet_t@xlslib_core@@@std@@@std@@@std@@QAEXXZ 10012f80 f i globalrec.obj
 0001:00011f80       ??1?$_String_alloc@U?$_String_base_types@DV?$allocator@D@std@@@std@@@std@@QAE@XZ 10012f80 f i assert_assist.obj
 0001:00011f80       ?_Orphan_all@?$_Vector_alloc@U?$_Vec_base_types@PAVfont_t@xlslib_core@@V?$allocator@PAVfont_t@xlslib_core@@@std@@@std@@@std@@QAEXXZ 10012f80 f i globalrec.obj
 0001:00011f80       ??$_Destroy_range@V?$allocator@N@std@@PAN@std@@YAXPAN0AAU?$_Wrap_alloc@V?$allocator@N@std@@@0@@Z 10012f80 f i cbridge.obj
 0001:00011f80       ??$_Destroy_range@V?$allocator@I@std@@PAI@std@@YAXPAI0AAU?$_Wrap_alloc@V?$allocator@I@std@@@0@@Z 10012f80 f i sheetrec.obj
 0001:00011f80       ??$_Destroy_range1@V?$allocator@PAUHyperLink@xlslib_core@@@std@@PAPAUHyperLink@xlslib_core@@@std@@YAXPAPAUHyperLink@xlslib_core@@0AAU?$_Wrap_alloc@V?$allocator@PAUHyperLink@xlslib_core@@@std@@@0@U?$integral_constant@_N$00@0@@Z 10012f80 f i sheetrec.obj
 0001:00011f80       ??$_Destroy_range1@V?$allocator@PAVCUnit@xlslib_core@@@std@@PAPAVCUnit@xlslib_core@@@std@@YAXPAPAVCUnit@xlslib_core@@0AAU?$_Wrap_alloc@V?$allocator@PAVCUnit@xlslib_core@@@std@@@0@U?$integral_constant@_N$00@0@@Z 10012f80 f i datast.obj
 0001:00011f80       ??1_Bxty@?$_String_val@U?$_Simple_types@_S@std@@@std@@QAE@XZ 10012f80 f i datast.obj
 0001:00011f80       ??$_Destroy_range1@V?$allocator@PAVCOleProp@xlslib_core@@@std@@PAPAVCOleProp@xlslib_core@@@std@@YAXPAPAVCOleProp@xlslib_core@@0AAU?$_Wrap_alloc@V?$allocator@PAVCOleProp@xlslib_core@@@std@@@0@U?$integral_constant@_N$00@0@@Z 10012f80 f i oledoc.obj
 0001:00011f80       ?_Orphan_all@?$_Vector_alloc@U?$_Vec_base_types@PAVformula_t@xlslib_core@@V?$allocator@PAVformula_t@xlslib_core@@@std@@@std@@@std@@QAEXXZ 10012f80 f i sheetrec.obj
 0001:00011f80       ??1?$_Compressed_pair@U?$_Wrap_alloc@V?$allocator@_S@std@@@std@@V?$_String_val@U?$_Simple_types@_S@std@@@2@$00@std@@QAE@XZ 10012f80 f i datast.obj
 0001:00011f80       ??$_Destroy_range1@V?$allocator@Urowblocksize_t@xlslib_core@@@std@@PAUrowblocksize_t@xlslib_core@@@std@@YAXPAUrowblocksize_t@xlslib_core@@0AAU?$_Wrap_alloc@V?$allocator@Urowblocksize_t@xlslib_core@@@std@@@0@U?$integral_constant@_N$00@0@@Z 10012f80 f i sheetrec.obj
 0001:00011f80       ??$destroy@PAU?$_Tree_node@PAVHPSFitem@xlslib_core@@PAX@std@@@?$allocator_traits@V?$allocator@U?$_Tree_node@PAVHPSFitem@xlslib_core@@PAX@std@@@std@@@std@@SAXAAV?$allocator@U?$_Tree_node@PAVHPSFitem@xlslib_core@@PAX@std@@@1@PAPAU?$_Tree_node@PAVHPSFitem@xlslib_core@@PAX@1@@Z 10012f80 f i HPSF.obj
 0001:00011f80       ??$destroy@U?$pair@PAVxf_t@xlslib_core@@UborderedXft@2@@std@@@?$allocator_traits@V?$allocator@U?$_Tree_node@U?$pair@PAVxf_t@xlslib_core@@UborderedXft@2@@std@@PAX@std@@@std@@@std@@SAXAAV?$allocator@U?$_Tree_node@U?$pair@PAVxf_t@xlslib_core@@UborderedXft@2@@std@@PAX@std@@@1@PAU?$pair@PAVxf_t@xlslib_core@@UborderedXft@2@@1@@Z 10012f80 f i range.obj
 0001:00011f80       ??$_Destroy_range@V?$allocator@PAVrange@xlslib_core@@@std@@PAPAVrange@xlslib_core@@@std@@YAXPAPAVrange@xlslib_core@@0AAU?$_Wrap_alloc@V?$allocator@PAVrange@xlslib_core@@@std@@@0@@Z 10012f80 f i sheetrec.obj
 0001:00011f80       ??$_Destroy_range1@V?$allocator@I@std@@PAI@std@@YAXPAI0AAU?$_Wrap_alloc@V?$allocator@I@std@@@0@U?$integral_constant@_N$00@0@@Z 10012f80 f i sheetrec.obj
 0001:00011f80       ??$destroy@PAU?$_Tree_node@PAVrowheight_t@xlslib_core@@PAX@std@@@?$allocator_traits@V?$allocator@U?$_Tree_node@PAVrowheight_t@xlslib_core@@PAX@std@@@std@@@std@@SAXAAV?$allocator@U?$_Tree_node@PAVrowheight_t@xlslib_core@@PAX@std@@@1@PAPAU?$_Tree_node@PAVrowheight_t@xlslib_core@@PAX@1@@Z 10012f80 f i sheetrec.obj
 0001:00011f80       ??$destroy@PA_W@?$allocator_traits@V?$allocator@_W@std@@@std@@SAXAAV?$allocator@_W@1@PAPA_W@Z 10012f80 f i cbridge.obj
 0001:00011f80       ??$_Destroy_range1@V?$allocator@PAVboundsheet_t@xlslib_core@@@std@@PAPAVboundsheet_t@xlslib_core@@@std@@YAXPAPAVboundsheet_t@xlslib_core@@0AAU?$_Wrap_alloc@V?$allocator@PAVboundsheet_t@xlslib_core@@@std@@@0@U?$integral_constant@_N$00@0@@Z 10012f80 f i globalrec.obj
 0001:00011f80       ?_Orphan_all@?$_Vector_alloc@U?$_Vec_base_types@PAVformat_t@xlslib_core@@V?$allocator@PAVformat_t@xlslib_core@@@std@@@std@@@std@@QAEXXZ 10012f80 f i globalrec.obj
 0001:00011f80       ??$_Destroy_range@V?$allocator@PAUHyperLink@xlslib_core@@@std@@PAPAUHyperLink@xlslib_core@@@std@@YAXPAPAUHyperLink@xlslib_core@@0AAU?$_Wrap_alloc@V?$allocator@PAUHyperLink@xlslib_core@@@std@@@0@@Z 10012f80 f i sheetrec.obj
 0001:00011f80       ??$destroy@PAV?$basic_string@DU?$char_traits@D@std@@V?$allocator@D@2@@std@@@?$allocator_traits@V?$allocator@U?$_List_node@PAV?$basic_string@DU?$char_traits@D@std@@V?$allocator@D@2@@std@@PAX@std@@@std@@@std@@SAXAAV?$allocator@U?$_List_node@PAV?$basic_string@DU?$char_traits@D@std@@V?$allocator@D@2@@std@@PAX@std@@@1@PAPAV?$basic_string@DU?$char_traits@D@std@@V?$allocator@D@2@@1@@Z 10012f80 f i olefs.obj
 0001:00011f80       ??$_Destroy_range1@V?$allocator@PAVworksheet@xlslib_core@@@std@@PAPAVworksheet@xlslib_core@@@std@@YAXPAPAVworksheet@xlslib_core@@0AAU?$_Wrap_alloc@V?$allocator@PAVworksheet@xlslib_core@@@std@@@0@U?$integral_constant@_N$00@0@@Z 10012f80 f i workbook.obj
 0001:00011f80       ??$__vcrt_va_start_verify_argument_type@QAU__crt_locale_pointers@@@@YAXXZ 10012f80 f i legacy_stdio_definitions:legacy_stdio_definitions.obj
 0001:00011f80       ??$_Destroy_range@V?$allocator@PAVboundsheet_t@xlslib_core@@@std@@PAPAVboundsheet_t@xlslib_core@@@std@@YAXPAPAVboundsheet_t@xlslib_core@@0AAU?$_Wrap_alloc@V?$allocator@PAVboundsheet_t@xlslib_core@@@std@@@0@@Z 10012f80 f i globalrec.obj
 0001:00011f80       ?_Orphan_all@?$_Vector_alloc@U?$_Vec_base_types@PAUstyle_t@xlslib_core@@V?$allocator@PAUstyle_t@xlslib_core@@@std@@@std@@@std@@QAEXXZ 10012f80 f i globalrec.obj
 0001:00011f80       ?_Orphan_all@?$_Vector_alloc@U?$_Vec_base_types@NV?$allocator@N@std@@@std@@@std@@QAEXXZ 10012f80 f i cbridge.obj
 0001:00011f80       ??$destroy@PAU?$_Tree_node@PAVcell_t@xlslib_core@@PAX@std@@@?$allocator_traits@V?$allocator@U?$_Tree_node@PAVcell_t@xlslib_core@@PAX@std@@@std@@@std@@SAXAAV?$allocator@U?$_Tree_node@PAVcell_t@xlslib_core@@PAX@std@@@1@PAPAU?$_Tree_node@PAVcell_t@xlslib_core@@PAX@1@@Z 10012f80 f i sheetrec.obj
 0001:00011f80       ??$_Destroy_range1@V?$allocator@PAUstyle_t@xlslib_core@@@std@@PAPAUstyle_t@xlslib_core@@@std@@YAXPAPAUstyle_t@xlslib_core@@0AAU?$_Wrap_alloc@V?$allocator@PAUstyle_t@xlslib_core@@@std@@@0@U?$integral_constant@_N$00@0@@Z 10012f80 f i globalrec.obj
 0001:00011f80       ??$_Destroy_range1@V?$allocator@PAVrange@xlslib_core@@@std@@PAPAVrange@xlslib_core@@@std@@YAXPAPAVrange@xlslib_core@@0AAU?$_Wrap_alloc@V?$allocator@PAVrange@xlslib_core@@@std@@@0@U?$integral_constant@_N$00@0@@Z 10012f80 f i sheetrec.obj
 0001:00011f80       ??1?$_Compressed_pair@U?$_Wrap_alloc@V?$allocator@D@std@@@std@@V?$_String_val@U?$_Simple_types@D@std@@@2@$00@std@@QAE@XZ 10012f80 f i assert_assist.obj
 0001:00011f80       ??$destroy@PAVrowheight_t@xlslib_core@@@?$allocator_traits@V?$allocator@U?$_Tree_node@PAVrowheight_t@xlslib_core@@PAX@std@@@std@@@std@@SAXAAV?$allocator@U?$_Tree_node@PAVrowheight_t@xlslib_core@@PAX@std@@@1@PAPAVrowheight_t@xlslib_core@@@Z 10012f80 f i sheetrec.obj
 0001:00011f80       ??$destroy@PAU?$_Tree_node@U?$pair@PAVxf_t@xlslib_core@@UborderedXft@2@@std@@PAX@std@@@?$allocator_traits@V?$allocator@U?$_Tree_node@U?$pair@PAVxf_t@xlslib_core@@UborderedXft@2@@std@@PAX@std@@@std@@@std@@SAXAAV?$allocator@U?$_Tree_node@U?$pair@PAVxf_t@xlslib_core@@UborderedXft@2@@std@@PAX@std@@@1@PAPAU?$_Tree_node@U?$pair@PAVxf_t@xlslib_core@@UborderedXft@2@@std@@PAX@1@@Z 10012f80 f i range.obj
 0001:00011f80       ?_Orphan_all@_Container_base0@std@@QAEXXZ 10012f80 f i cbridge.obj
 0001:00011f80       ??1?$_String_val@U?$_Simple_types@_S@std@@@std@@QAE@XZ 10012f80 f i datast.obj
 0001:00011f80       ??$destroy@PAVHPSFitem@xlslib_core@@@?$allocator_traits@V?$allocator@U?$_Tree_node@PAVHPSFitem@xlslib_core@@PAX@std@@@std@@@std@@SAXAAV?$allocator@U?$_Tree_node@PAVHPSFitem@xlslib_core@@PAX@std@@@1@PAPAVHPSFitem@xlslib_core@@@Z 10012f80 f i HPSF.obj
 0001:00011f80       ??$destroy@PAU?$_List_node@PAV?$basic_string@DU?$char_traits@D@std@@V?$allocator@D@2@@std@@PAX@std@@@?$allocator_traits@V?$allocator@U?$_List_node@PAV?$basic_string@DU?$char_traits@D@std@@V?$allocator@D@2@@std@@PAX@std@@@std@@@std@@SAXAAV?$allocator@U?$_List_node@PAV?$basic_string@DU?$char_traits@D@std@@V?$allocator@D@2@@std@@PAX@std@@@1@PAPAU?$_List_node@PAV?$basic_string@DU?$char_traits@D@std@@V?$allocator@D@2@@std@@PAX@1@@Z 10012f80 f i olefs.obj
 0001:00011f80       ??1?$_String_val@U?$_Simple_types@_W@std@@@std@@QAE@XZ 10012f80 f i cbridge.obj
 0001:00011f80       ??$__vcrt_va_start_verify_argument_type@PAU__crt_locale_pointers@@@@YAXXZ 10012f80 f i legacy_stdio_definitions:legacy_stdio_definitions.obj
 0001:00011f80       ??$_Destroy_range@V?$allocator@PAVworksheet@xlslib_core@@@std@@PAPAVworksheet@xlslib_core@@@std@@YAXPAPAVworksheet@xlslib_core@@0AAU?$_Wrap_alloc@V?$allocator@PAVworksheet@xlslib_core@@@std@@@0@@Z 10012f80 f i workbook.obj
 0001:00011f80       ??$_Destroy_range1@V?$allocator@PBVlabel_t@xlslib_core@@@std@@PAPBVlabel_t@xlslib_core@@@std@@YAXPAPBVlabel_t@xlslib_core@@0AAU?$_Wrap_alloc@V?$allocator@PBVlabel_t@xlslib_core@@@std@@@0@U?$integral_constant@_N$00@0@@Z 10012f80 f i globalrec.obj
 0001:00011f80       ??$_Destroy_range1@V?$allocator@PAVformat_t@xlslib_core@@@std@@PAPAVformat_t@xlslib_core@@@std@@YAXPAPAVformat_t@xlslib_core@@0AAU?$_Wrap_alloc@V?$allocator@PAVformat_t@xlslib_core@@@std@@@0@U?$integral_constant@_N$00@0@@Z 10012f80 f i globalrec.obj
 0001:00011f80       ??$__vcrt_va_start_verify_argument_type@QB_W@@YAXXZ 10012f80 f i legacy_stdio_definitions:legacy_stdio_definitions.obj
 0001:00011f80       ?_Orphan_all@?$_Vector_alloc@U?$_Vec_base_types@VCUnitStore@xlslib_core@@V?$allocator@VCUnitStore@xlslib_core@@@std@@@std@@@std@@QAEXXZ 10012f80 f i datast.obj
 0001:00011f80       ??1?$_String_alloc@U?$_String_base_types@_SV?$allocator@_S@std@@@std@@@std@@QAE@XZ 10012f80 f i datast.obj
 0001:00011f80       ??1?$_String_alloc@U?$_String_base_types@_WV?$allocator@_W@std@@@std@@@std@@QAE@XZ 10012f80 f i cbridge.obj
 0001:00011f80       ??$_Destroy_range1@V?$allocator@PAVrange_t@xlslib_core@@@std@@PAPAVrange_t@xlslib_core@@@std@@YAXPAPAVrange_t@xlslib_core@@0AAU?$_Wrap_alloc@V?$allocator@PAVrange_t@xlslib_core@@@std@@@0@U?$integral_constant@_N$00@0@@Z 10012f80 f i sheetrec.obj
 0001:00011f80       ?_Orphan_all@?$_Vector_alloc@U?$_Vec_base_types@IV?$allocator@I@std@@@std@@@std@@QAEXXZ 10012f80 f i sheetrec.obj
 0001:00011f80       ??$_Destroy_range@V?$allocator@PAVformat_t@xlslib_core@@@std@@PAPAVformat_t@xlslib_core@@@std@@YAXPAPAVformat_t@xlslib_core@@0AAU?$_Wrap_alloc@V?$allocator@PAVformat_t@xlslib_core@@@std@@@0@@Z 10012f80 f i globalrec.obj
 0001:00011f80       ?_Orphan_all@?$_Vector_alloc@U?$_Vec_base_types@PAVworksheet@xlslib_core@@V?$allocator@PAVworksheet@xlslib_core@@@std@@@std@@@std@@QAEXXZ 10012f80 f i workbook.obj
 0001:00011f80       ??$_Pocca@U?$_Wrap_alloc@V?$allocator@_S@std@@@std@@@std@@YAXAAU?$_Wrap_alloc@V?$allocator@_S@std@@@0@ABU10@@Z 10012f80 f i formula_estimate.obj
 0001:00011f80       ??1_Bxty@?$_String_val@U?$_Simple_types@D@std@@@std@@QAE@XZ 10012f80 f i assert_assist.obj
 0001:00011f80       ?_Orphan_all@?$_Vector_alloc@U?$_Vec_base_types@PAVCUnit@xlslib_core@@V?$allocator@PAVCUnit@xlslib_core@@@std@@@std@@@std@@QAEXXZ 10012f80 f i datast.obj
 0001:00011f80       ??$destroy@PAD@?$allocator_traits@V?$allocator@D@std@@@std@@SAXAAV?$allocator@D@1@PAPAD@Z 10012f80 f i assert_assist.obj
 0001:00011f80       ??$_Pocca@U?$_Wrap_alloc@V?$allocator@D@std@@@std@@@std@@YAXAAU?$_Wrap_alloc@V?$allocator@D@std@@@0@ABU10@U?$integral_constant@_N$0A@@0@@Z 10012f80 f i font.obj
 0001:00011f80       ??$_Destroy_range@V?$allocator@PAVxf_t@xlslib_core@@@std@@PAPAVxf_t@xlslib_core@@@std@@YAXPAPAVxf_t@xlslib_core@@0AAU?$_Wrap_alloc@V?$allocator@PAVxf_t@xlslib_core@@@std@@@0@@Z 10012f80 f i globalrec.obj
 0001:00011f80       ??$_Destroy_range1@V?$allocator@PAVxf_t@xlslib_core@@@std@@PAPAVxf_t@xlslib_core@@@std@@YAXPAPAVxf_t@xlslib_core@@0AAU?$_Wrap_alloc@V?$allocator@PAVxf_t@xlslib_core@@@std@@@0@U?$integral_constant@_N$00@0@@Z 10012f80 f i globalrec.obj
 0001:00011f80       ??$_Destroy_range1@V?$allocator@PAVformula_t@xlslib_core@@@std@@PAPAVformula_t@xlslib_core@@@std@@YAXPAPAVformula_t@xlslib_core@@0AAU?$_Wrap_alloc@V?$allocator@PAVformula_t@xlslib_core@@@std@@@0@U?$integral_constant@_N$00@0@@Z 10012f80 f i sheetrec.obj
 0001:00011f80       ??$_Destroy_range@V?$allocator@PAVCUnit@xlslib_core@@@std@@PAPAVCUnit@xlslib_core@@@std@@YAXPAPAVCUnit@xlslib_core@@0AAU?$_Wrap_alloc@V?$allocator@PAVCUnit@xlslib_core@@@std@@@0@@Z 10012f80 f i datast.obj
 0001:00011f80       ??$_Destroy_range1@V?$allocator@N@std@@PAN@std@@YAXPAN0AAU?$_Wrap_alloc@V?$allocator@N@std@@@0@U?$integral_constant@_N$00@0@@Z 10012f80 f i cbridge.obj
 0001:00011f80       ??1xf_init_t@xlslib_core@@QAE@XZ 10012f80 f i extformat.obj
 0001:00011f80       ??$_Destroy_range@V?$allocator@PAVfont_t@xlslib_core@@@std@@PAPAVfont_t@xlslib_core@@@std@@YAXPAPAVfont_t@xlslib_core@@0AAU?$_Wrap_alloc@V?$allocator@PAVfont_t@xlslib_core@@@std@@@0@@Z 10012f80 f i globalrec.obj
 0001:00011f80       ?_Orphan_all@?$_Vector_alloc@U?$_Vec_base_types@PBVlabel_t@xlslib_core@@V?$allocator@PBVlabel_t@xlslib_core@@@std@@@std@@@std@@QAEXXZ 10012f80 f i globalrec.obj
 0001:00011f80       ??$destroy@PA_S@?$allocator_traits@V?$allocator@_S@std@@@std@@SAXAAV?$allocator@_S@1@PAPA_S@Z 10012f80 f i datast.obj
 0001:00011f80       @_guard_check_icall_nop@4  10012f80 f i MSVCRT:guard_support.obj
 0001:00011f80       ??1?$_Compressed_pair@U?$_Wrap_alloc@V?$allocator@_W@std@@@std@@V?$_String_val@U?$_Simple_types@_W@std@@@2@$00@std@@QAE@XZ 10012f80 f i cbridge.obj
 0001:00011f80       ?_Orphan_all@?$_Vector_alloc@U?$_Vec_base_types@PAVrange_t@xlslib_core@@V?$allocator@PAVrange_t@xlslib_core@@@std@@@std@@@std@@QAEXXZ 10012f80 f i sheetrec.obj
 0001:00011f80       ?_Orphan_all@?$_Vector_alloc@U?$_Vec_base_types@PAVrange@xlslib_core@@V?$allocator@PAVrange@xlslib_core@@@std@@@std@@@std@@QAEXXZ 10012f80 f i sheetrec.obj
 0001:00011f80       ??$destroy@PAUcolinfo_t@xlslib_core@@@?$allocator_traits@V?$allocator@U?$_Tree_node@PAUcolinfo_t@xlslib_core@@PAX@std@@@std@@@std@@SAXAAV?$allocator@U?$_Tree_node@PAUcolinfo_t@xlslib_core@@PAX@std@@@1@PAPAUcolinfo_t@xlslib_core@@@Z 10012f80 f i sheetrec.obj
 0001:00011f80       ??$_Destroy_range@V?$allocator@PAVrange_t@xlslib_core@@@std@@PAPAVrange_t@xlslib_core@@@std@@YAXPAPAVrange_t@xlslib_core@@0AAU?$_Wrap_alloc@V?$allocator@PAVrange_t@xlslib_core@@@std@@@0@@Z 10012f80 f i sheetrec.obj
 0001:00011f80       ??$_Destroy_range@V?$allocator@PAUstyle_t@xlslib_core@@@std@@PAPAUstyle_t@xlslib_core@@@std@@YAXPAPAUstyle_t@xlslib_core@@0AAU?$_Wrap_alloc@V?$allocator@PAUstyle_t@xlslib_core@@@std@@@0@@Z 10012f80 f i globalrec.obj
 0001:00011f80       ??$_Pocca@U?$_Wrap_alloc@V?$allocator@D@std@@@std@@@std@@YAXAAU?$_Wrap_alloc@V?$allocator@D@std@@@0@ABU10@@Z 10012f80 f i font.obj
 0001:00011f80       ?_Orphan_all@?$_Vector_alloc@U?$_Vec_base_types@PAVxf_t@xlslib_core@@V?$allocator@PAVxf_t@xlslib_core@@@std@@@std@@@std@@QAEXXZ 10012f80 f i globalrec.obj
 0001:00011f80       ??$destroy@PAU?$_Tree_node@PAUcolinfo_t@xlslib_core@@PAX@std@@@?$allocator_traits@V?$allocator@U?$_Tree_node@PAUcolinfo_t@xlslib_core@@PAX@std@@@std@@@std@@SAXAAV?$allocator@U?$_Tree_node@PAUcolinfo_t@xlslib_core@@PAX@std@@@1@PAPAU?$_Tree_node@PAUcolinfo_t@xlslib_core@@PAX@1@@Z 10012f80 f i sheetrec.obj
 0001:00011fb0       _xlslib_report_failed_assertion 10012fb0 f   assert_assist.obj
 0001:00011fd0       _xlslib_register_assert_reporter 10012fd0 f   assert_assist.obj
 0001:00011fe0       ??0?$_Wrap_alloc@V?$allocator@_S@std@@@std@@QAE@$$QAU01@@Z 10012fe0 f i datast.obj
 0001:00011fe0       ??0?$_Wrap_alloc@V?$allocator@D@std@@@std@@QAE@ABU01@@Z 10012fe0 f i assert_assist.obj
 0001:00011fe0       ??0?$_Wrap_alloc@V?$allocator@D@std@@@std@@QAE@$$QAU01@@Z 10012fe0 f i assert_assist.obj
 0001:00011fe0       ??$?0U?$integral_constant@_N$00@std@@@_Any_tag@std@@QAE@$$QAU?$integral_constant@_N$00@1@@Z 10012fe0 f i cbridge.obj
 0001:00011fe0       ??$?0V?$allocator@_W@std@@@?$_Wrap_alloc@V?$allocator@_W@std@@@std@@QAE@$$QAV?$allocator@_W@1@@Z 10012fe0 f i cbridge.obj
 0001:00011fe0       ??0?$_Wrap_alloc@V?$allocator@_W@std@@@std@@QAE@$$QAU01@@Z 10012fe0 f i cbridge.obj
 0001:00011fe0       ??$?0ABV?$allocator@D@std@@@?$_Wrap_alloc@V?$allocator@D@std@@@std@@QAE@ABV?$allocator@D@1@@Z 10012fe0 f i olefs.obj
 0001:00011fe0       ??4?$_Wrap_alloc@V?$allocator@D@std@@@std@@QAEAAU01@$$QAU01@@Z 10012fe0 f i olefs.obj
 0001:00011fe0       ??0?$allocator@D@std@@QAE@ABV01@@Z 10012fe0 f i assert_assist.obj
 0001:00011fe0       ??0?$allocator@_W@std@@QAE@ABV01@@Z 10012fe0 f i cbridge.obj
 0001:00011fe0       ??0?$allocator@_S@std@@QAE@ABV01@@Z 10012fe0 f i datast.obj
 0001:00011fe0       ??$?0V?$allocator@D@std@@@?$_Wrap_alloc@V?$allocator@D@std@@@std@@QAE@$$QAV?$allocator@D@1@@Z 10012fe0 f i assert_assist.obj
 0001:00011fe0       ??$?0V?$allocator@_S@std@@@?$_Wrap_alloc@V?$allocator@_S@std@@@std@@QAE@$$QAV?$allocator@_S@1@@Z 10012fe0 f i datast.obj
 0001:00011ff0       ??1?$basic_string@DU?$char_traits@D@std@@V?$allocator@D@2@@std@@QAE@XZ 10012ff0 f i assert_assist.obj
 0001:00012030       ??0?$basic_string@DU?$char_traits@D@std@@V?$allocator@D@2@@std@@QAE@$$QAV01@@Z 10013030 f i assert_assist.obj
 0001:000120b0       ??0?$basic_string@DU?$char_traits@D@std@@V?$allocator@D@2@@std@@QAE@PBDI@Z 100130b0 f i assert_assist.obj
 0001:000120e0       ??0?$basic_string@DU?$char_traits@D@std@@V?$allocator@D@2@@std@@QAE@XZ 100130e0 f i assert_assist.obj
 0001:00012100       ??0?$basic_string@DU?$char_traits@D@std@@V?$allocator@D@2@@std@@QAE@ABV01@@Z 10013100 f i assert_assist.obj
 0001:00012130       ?str@?$basic_stringstream@DU?$char_traits@D@std@@V?$allocator@D@2@@std@@QBE?AV?$basic_string@DU?$char_traits@D@std@@V?$allocator@D@2@@2@XZ 10013130 f i assert_assist.obj
 0001:00012150       ??1?$basic_stringstream@DU?$char_traits@D@std@@V?$allocator@D@2@@std@@UAE@XZ 10013150 f i assert_assist.obj
 0001:000121a0       ??0?$basic_stringstream@DU?$char_traits@D@std@@V?$allocator@D@2@@std@@QAE@H@Z 100131a0 f i assert_assist.obj
 0001:00012260       ?seekpos@?$basic_stringbuf@DU?$char_traits@D@std@@V?$allocator@D@2@@std@@MAE?AV?$fpos@U_Mbstatet@@@2@V32@H@Z 10013260 f i assert_assist.obj
 0001:00012390       ?seekoff@?$basic_stringbuf@DU?$char_traits@D@std@@V?$allocator@D@2@@std@@MAE?AV?$fpos@U_Mbstatet@@@2@_JHH@Z 10013390 f i assert_assist.obj
 0001:00012560       ?underflow@?$basic_stringbuf@DU?$char_traits@D@std@@V?$allocator@D@2@@std@@MAEHXZ 10013560 f i assert_assist.obj
 0001:000125c0       ?pbackfail@?$basic_stringbuf@DU?$char_traits@D@std@@V?$allocator@D@2@@std@@MAEHH@Z 100135c0 f i assert_assist.obj
 0001:00012620       ?overflow@?$basic_stringbuf@DU?$char_traits@D@std@@V?$allocator@D@2@@std@@MAEHH@Z 10013620 f i assert_assist.obj
 0001:000127f0       ??1?$basic_stringbuf@DU?$char_traits@D@std@@V?$allocator@D@2@@std@@UAE@XZ 100137f0 f i assert_assist.obj
 0001:00012810       ??_E?$basic_stringstream@DU?$char_traits@D@std@@V?$allocator@D@2@@std@@UAEPAXI@Z 10013810 f i * CIL library *:* CIL module *
 0001:00012810       ??_G?$basic_stringstream@DU?$char_traits@D@std@@V?$allocator@D@2@@std@@UAEPAXI@Z 10013810 f i assert_assist.obj
 0001:00012880       ??_G?$basic_stringbuf@DU?$char_traits@D@std@@V?$allocator@D@2@@std@@UAEPAXI@Z 10013880 f i assert_assist.obj
 0001:00012880       ??_E?$basic_stringbuf@DU?$char_traits@D@std@@V?$allocator@D@2@@std@@UAEPAXI@Z 10013880 f i * CIL library *:* CIL module *
 0001:000128c0       ?select_on_container_copy_construction@?$_Wrap_alloc@V?$allocator@_S@std@@@std@@QBE?AU12@U_Nil@2@@Z 100138c0 f i datast.obj
 0001:000128c0       ?select_on_container_copy_construction@?$_Wrap_alloc@V?$allocator@D@std@@@std@@QBE?AU12@U_Nil@2@@Z 100138c0 f i assert_assist.obj
 0001:000128c0       ?select_on_container_copy_construction@?$_Wrap_alloc@V?$allocator@_W@std@@@std@@QBE?AU12@U_Nil@2@@Z 100138c0 f i cbridge.obj
 0001:000128d0       ?_Mysize@?$_String_alloc@U?$_String_base_types@_WV?$allocator@_W@std@@@std@@@std@@QBEABIXZ 100138d0 f i cbridge.obj
 0001:000128d0       ?_Myval@?$_Tree_val@U?$_Tree_simple_types@PAVcell_t@xlslib_core@@@std@@@std@@SAAAPAVcell_t@xlslib_core@@PAU?$_Tree_node@PAVcell_t@xlslib_core@@PAX@2@@Z 100138d0 f i sheetrec.obj
 0001:000128d0       ?_Myval@?$_Tree_comp_alloc@V?$_Tset_traits@PAVHPSFitem@xlslib_core@@Vinsertsort2@2@V?$allocator@PAVHPSFitem@xlslib_core@@@std@@$0A@@std@@@std@@SAAAPAVHPSFitem@xlslib_core@@PAU?$_Tree_node@PAVHPSFitem@xlslib_core@@PAX@2@@Z 100138d0 f i HPSF.obj
 0001:000128d0       ?_Mysize@?$_String_alloc@U?$_String_base_types@DV?$allocator@D@std@@@std@@@std@@QAEAAIXZ 100138d0 f i assert_assist.obj
 0001:000128d0       ?_Mysize@?$_String_alloc@U?$_String_base_types@_SV?$allocator@_S@std@@@std@@@std@@QAEAAIXZ 100138d0 f i datast.obj
 0001:000128d0       ?_Myval@?$_Tree_comp_alloc@V?$_Tset_traits@PAVrowheight_t@xlslib_core@@Vrowheightsort@2@V?$allocator@PAVrowheight_t@xlslib_core@@@std@@$0A@@std@@@std@@SAAAPAVrowheight_t@xlslib_core@@PAU?$_Tree_node@PAVrowheight_t@xlslib_core@@PAX@2@@Z 100138d0 f i sheetrec.obj
 0001:000128d0       ?_Mysize@?$_String_alloc@U?$_String_base_types@_SV?$allocator@_S@std@@@std@@@std@@QBEABIXZ 100138d0 f i datast.obj
 0001:000128d0       ?_Myval@?$_Tree_val@U?$_Tree_simple_types@PAUcolinfo_t@xlslib_core@@@std@@@std@@SAAAPAUcolinfo_t@xlslib_core@@PAU?$_Tree_node@PAUcolinfo_t@xlslib_core@@PAX@2@@Z 100138d0 f i sheetrec.obj
 0001:000128d0       ?_Myval@?$_Tree_comp_alloc@V?$_Tset_traits@PAVcell_t@xlslib_core@@Vinsertsort@2@V?$allocator@PAVcell_t@xlslib_core@@@std@@$0A@@std@@@std@@SAAAPAVcell_t@xlslib_core@@PAU?$_Tree_node@PAVcell_t@xlslib_core@@PAX@2@@Z 100138d0 f i sheetrec.obj
 0001:000128d0       ?_Myval@?$_Tree_val@U?$_Tree_simple_types@PAVrowheight_t@xlslib_core@@@std@@@std@@SAAAPAVrowheight_t@xlslib_core@@PAU?$_Tree_node@PAVrowheight_t@xlslib_core@@PAX@2@@Z 100138d0 f i sheetrec.obj
 0001:000128d0       ?_Myval@?$_Tree_val@U?$_Tree_simple_types@PAVHPSFitem@xlslib_core@@@std@@@std@@SAAAPAVHPSFitem@xlslib_core@@PAU?$_Tree_node@PAVHPSFitem@xlslib_core@@PAX@2@@Z 100138d0 f i HPSF.obj
 0001:000128d0       ?_Myval@?$_Tree_val@U?$_Tree_simple_types@U?$pair@PAVxf_t@xlslib_core@@UborderedXft@2@@std@@@std@@@std@@SAAAU?$pair@PAVxf_t@xlslib_core@@UborderedXft@2@@2@PAU?$_Tree_node@U?$pair@PAVxf_t@xlslib_core@@UborderedXft@2@@std@@PAX@2@@Z 100138d0 f i range.obj
 0001:000128d0       ?_Myval@?$_Tree_comp_alloc@V?$_Tset_traits@U?$pair@PAVxf_t@xlslib_core@@UborderedXft@2@@std@@VxfSorter@xlslib_core@@V?$allocator@U?$pair@PAVxf_t@xlslib_core@@UborderedXft@2@@std@@@2@$0A@@std@@@std@@SAAAU?$pair@PAVxf_t@xlslib_core@@UborderedXft@2@@2@PAU?$_Tree_node@U?$pair@PAVxf_t@xlslib_core@@UborderedXft@2@@std@@PAX@2@@Z 100138d0 f i range.obj
 0001:000128d0       ?_Mysize@?$_String_alloc@U?$_String_base_types@_WV?$allocator@_W@std@@@std@@@std@@QAEAAIXZ 100138d0 f i cbridge.obj
 0001:000128d0       ?_Myval@?$_Tree_comp_alloc@V?$_Tset_traits@PAUcolinfo_t@xlslib_core@@Vcolinfosort@2@V?$allocator@PAUcolinfo_t@xlslib_core@@@std@@$0A@@std@@@std@@SAAAPAUcolinfo_t@xlslib_core@@PAU?$_Tree_node@PAUcolinfo_t@xlslib_core@@PAX@2@@Z 100138d0 f i sheetrec.obj
 0001:000128d0       ?_Mysize@?$_String_alloc@U?$_String_base_types@DV?$allocator@D@std@@@std@@@std@@QBEABIXZ 100138d0 f i assert_assist.obj
 0001:000128e0       ??0?$_String_val@U?$_Simple_types@_S@std@@@std@@QAE@XZ 100138e0 f i datast.obj
 0001:000128e0       ??0?$_String_alloc@U?$_String_base_types@_WV?$allocator@_W@std@@@std@@@std@@QAE@XZ 100138e0 f i cbridge.obj
 0001:000128e0       ??0?$_String_val@U?$_Simple_types@D@std@@@std@@QAE@XZ 100138e0 f i assert_assist.obj
 0001:000128e0       ??0?$_String_alloc@U?$_String_base_types@_SV?$allocator@_S@std@@@std@@@std@@QAE@XZ 100138e0 f i format.obj
 0001:000128e0       ??0?$_String_alloc@U?$_String_base_types@DV?$allocator@D@std@@@std@@@std@@QAE@XZ 100138e0 f i assert_assist.obj
 0001:000128e0       ??0?$_String_val@U?$_Simple_types@_W@std@@@std@@QAE@XZ 100138e0 f i cbridge.obj
 0001:00012900       ?_Myptr@?$_String_alloc@U?$_String_base_types@DV?$allocator@D@std@@@std@@@std@@QBEPBDXZ 10013900 f i assert_assist.obj
 0001:00012900       ?c_str@?$basic_string@DU?$char_traits@D@std@@V?$allocator@D@2@@std@@QBEPBDXZ 10013900 f i cbridge.obj
 0001:00012900       ?_Myptr@?$_String_alloc@U?$_String_base_types@DV?$allocator@D@std@@@std@@@std@@QAEPADXZ 10013900 f i assert_assist.obj
 0001:00012900       ?_Myptr@?$_String_val@U?$_Simple_types@D@std@@@std@@QBEPBDXZ 10013900 f i assert_assist.obj
 0001:00012900       ?_Myptr@?$_String_val@U?$_Simple_types@D@std@@@std@@QAEPADXZ 10013900 f i assert_assist.obj
 0001:00012910       ?_Tidy@?$basic_string@DU?$char_traits@D@std@@V?$allocator@D@2@@std@@QAEX_NI@Z 10013910 f i assert_assist.obj
 0001:00012970       ?assign@?$basic_string@DU?$char_traits@D@std@@V?$allocator@D@2@@std@@QAEAAV12@PBDI@Z 10013970 f i assert_assist.obj
 0001:00012a70       ?assign@?$basic_string@DU?$char_traits@D@std@@V?$allocator@D@2@@std@@QAEAAV12@ABV12@II@Z 10013a70 f i assert_assist.obj
 0001:00012b90       ?_Assign_rv@?$basic_string@DU?$char_traits@D@std@@V?$allocator@D@2@@std@@QAEX$$QAV12@@Z 10013b90 f i assert_assist.obj
 0001:00012c00       ?_Tidy@?$basic_stringbuf@DU?$char_traits@D@std@@V?$allocator@D@2@@std@@IAEXXZ 10013c00 f i assert_assist.obj
 0001:00012cc0       ?str@?$basic_stringbuf@DU?$char_traits@D@std@@V?$allocator@D@2@@std@@QBE?AV?$basic_string@DU?$char_traits@D@std@@V?$allocator@D@2@@2@XZ 10013cc0 f i assert_assist.obj
 0001:00012dd0       ??0?$basic_stringbuf@DU?$char_traits@D@std@@V?$allocator@D@2@@std@@QAE@H@Z 10013dd0 f i assert_assist.obj
 0001:00012e60       ?allocate@?$_Wrap_alloc@V?$allocator@D@std@@@std@@QAEPADI@Z 10013e60 f i assert_assist.obj
 0001:00012e60       ?allocate@?$allocator@D@std@@QAEPADI@Z 10013e60 f i assert_assist.obj
 0001:00012eb0       ?deallocate@?$_Wrap_alloc@V?$allocator@D@std@@@std@@QAEXPADI@Z 10013eb0 f i assert_assist.obj
 0001:00012eb0       ?deallocate@?$allocator@D@std@@QAEXPADI@Z 10013eb0 f i assert_assist.obj
 0001:00012f00       ??B?$fpos@U_Mbstatet@@@std@@QBE_JXZ 10013f00 f i assert_assist.obj
 0001:00012f10       ??0?$fpos@U_Mbstatet@@@std@@QAE@_J@Z 10013f10 f i assert_assist.obj
 0001:00012f40       ?_Myres@?$_String_alloc@U?$_String_base_types@DV?$allocator@D@std@@@std@@@std@@QAEAAIXZ 10013f40 f i assert_assist.obj
 0001:00012f40       ?_Myres@?$_String_alloc@U?$_String_base_types@_WV?$allocator@_W@std@@@std@@@std@@QAEAAIXZ 10013f40 f i cbridge.obj
 0001:00012f40       ?_Myres@?$_String_alloc@U?$_String_base_types@_SV?$allocator@_S@std@@@std@@@std@@QAEAAIXZ 10013f40 f i datast.obj
 0001:00012f50       ?_Check_offset@?$basic_string@_SU?$char_traits@_S@std@@V?$allocator@_S@2@@std@@QBEXI@Z 10013f50 f i datast.obj
 0001:00012f50       ?_Xran@?$basic_string@DU?$char_traits@D@std@@V?$allocator@D@2@@std@@QBEXXZ 10013f50 f i assert_assist.obj
 0001:00012f50       ?_Check_offset@?$basic_string@_WU?$char_traits@_W@std@@V?$allocator@_W@2@@std@@QBEXI@Z 10013f50 f i cbridge.obj
 0001:00012f50       ?_Check_offset@?$basic_string@DU?$char_traits@D@std@@V?$allocator@D@2@@std@@QBEXI@Z 10013f50 f i assert_assist.obj
 0001:00012f50       ?_Xran@?$basic_string@_WU?$char_traits@_W@std@@V?$allocator@_W@2@@std@@QBEXXZ 10013f50 f i cbridge.obj
 0001:00012f50       ?_Xran@?$basic_string@_SU?$char_traits@_S@std@@V?$allocator@_S@2@@std@@QBEXXZ 10013f50 f i datast.obj
 0001:00012f60       ?_Xlen@?$basic_string@DU?$char_traits@D@std@@V?$allocator@D@2@@std@@QBEXXZ 10013f60 f i assert_assist.obj
 0001:00012f60       ?_Xlen@?$basic_string@_WU?$char_traits@_W@std@@V?$allocator@_W@2@@std@@QBEXXZ 10013f60 f i cbridge.obj
 0001:00012f60       ?_Xlen@?$basic_string@_SU?$char_traits@_S@std@@V?$allocator@_S@2@@std@@QBEXXZ 10013f60 f i datast.obj
 0001:00012f70       ?_Inside@?$basic_string@DU?$char_traits@D@std@@V?$allocator@D@2@@std@@QAE_NPBD@Z 10013f70 f i assert_assist.obj
 0001:00012fb0       ?_Grow@?$basic_string@DU?$char_traits@D@std@@V?$allocator@D@2@@std@@QAE_NI_N@Z 10013fb0 f i assert_assist.obj
 0001:00013060       ?_Eos@?$basic_string@DU?$char_traits@D@std@@V?$allocator@D@2@@std@@QAEXI@Z 10014060 f i assert_assist.obj
 0001:00013090       ?_Clamp_suffix_size@?$basic_string@DU?$char_traits@D@std@@V?$allocator@D@2@@std@@QBEIII@Z 10014090 f i assert_assist.obj
 0001:00013090       ?_Clamp_suffix_size@?$basic_string@_WU?$char_traits@_W@std@@V?$allocator@_W@2@@std@@QBEIII@Z 10014090 f i cbridge.obj
 0001:00013090       ?_Clamp_suffix_size@?$basic_string@_SU?$char_traits@_S@std@@V?$allocator@_S@2@@std@@QBEIII@Z 10014090 f i datast.obj
 0001:000130b0       ?erase@?$basic_string@DU?$char_traits@D@std@@V?$allocator@D@2@@std@@QAEAAV12@II@Z 100140b0 f i assert_assist.obj
 0001:00013150       ?erase@?$basic_string@DU?$char_traits@D@std@@V?$allocator@D@2@@std@@QAEAAV12@I@Z 10014150 f i assert_assist.obj
 0001:00013190       ?_Getstate@?$basic_stringbuf@DU?$char_traits@D@std@@V?$allocator@D@2@@std@@AAEHH@Z 10014190 f i assert_assist.obj
 0001:000131d0       ?_Init@?$basic_stringbuf@DU?$char_traits@D@std@@V?$allocator@D@2@@std@@IAEXPBDIH@Z 100141d0 f i assert_assist.obj
 0001:000132a0       ?_Copy@?$basic_string@DU?$char_traits@D@std@@V?$allocator@D@2@@std@@QAEXII@Z 100142a0 f i assert_assist.obj
 0001:00013430       ?max_size@?$basic_string@DU?$char_traits@D@std@@V?$allocator@D@2@@std@@QBEIXZ 10014430 f i assert_assist.obj
 0001:00013440       ?max_size@?$_Wrap_alloc@V?$allocator@D@std@@@std@@QBEIU_Nil@2@@Z 10014440 f i assert_assist.obj
 0001:00013450       ??$?6$$BY0BD@D@@YAABVstr_stream@@ABV0@AAY0BD@$$CBD@Z 10014450 f i assert_assist.obj
 0001:00013450       ??$write_to_stream@$$BY0BD@D@Private@@YAABVstr_stream@@ABV1@AAY0BD@$$CBD@Z 10014450 f i assert_assist.obj
 0001:00013470       ??$write_to_stream@PBD@Private@@YAABVstr_stream@@ABV1@ABQBD@Z 10014470 f i assert_assist.obj
 0001:00013470       ??$?6PBD@@YAABVstr_stream@@ABV0@ABQBD@Z 10014470 f i assert_assist.obj
 0001:00013490       ??$?6$$BY09D@@YAABVstr_stream@@ABV0@AAY09$$CBD@Z 10014490 f i assert_assist.obj
 0001:00013490       ??$write_to_stream@$$BY09D@Private@@YAABVstr_stream@@ABV1@AAY09$$CBD@Z 10014490 f i assert_assist.obj
 0001:000134b0       ??$?6H@@YAABVstr_stream@@ABV0@ABH@Z 100144b0 f i assert_assist.obj
 0001:000134b0       ??$write_to_stream@H@Private@@YAABVstr_stream@@ABV1@ABH@Z 100144b0 f i assert_assist.obj
 0001:000134d0       ??$write_to_stream@$$BY02D@Private@@YAABVstr_stream@@ABV1@AAY02$$CBD@Z 100144d0 f i assert_assist.obj
 0001:000134d0       ??$?6$$BY02D@@YAABVstr_stream@@ABV0@AAY02$$CBD@Z 100144d0 f i assert_assist.obj
 0001:000134f0       ??$write_to_stream@$$BY01D@Private@@YAABVstr_stream@@ABV1@AAY01$$CBD@Z 100144f0 f i assert_assist.obj
 0001:000134f0       ??$?6$$BY01D@@YAABVstr_stream@@ABV0@AAY01$$CBD@Z 100144f0 f i assert_assist.obj
 0001:00013510       ??$?6$$BY04D@@YAABVstr_stream@@ABV0@AAY04$$CBD@Z 10014510 f i assert_assist.obj
 0001:00013510       ??$write_to_stream@$$BY04D@Private@@YAABVstr_stream@@ABV1@AAY04$$CBD@Z 10014510 f i assert_assist.obj
 0001:00013530       ??$?6$$BY0BP@D@@YAABVstr_stream@@ABV0@AAY0BP@$$CBD@Z 10014530 f i assert_assist.obj
 0001:00013530       ??$write_to_stream@$$BY0BP@D@Private@@YAABVstr_stream@@ABV1@AAY0BP@$$CBD@Z 10014530 f i assert_assist.obj
 0001:00013550       ??$?0$$V@?$_Compressed_pair@U?$_Wrap_alloc@V?$allocator@_S@std@@@std@@V?$_String_val@U?$_Simple_types@_S@std@@@2@$00@std@@QAE@U_Zero_then_variadic_args_t@1@@Z 10014550 f i format.obj
 0001:00013550       ??$?0$$V@?$_Compressed_pair@U?$_Wrap_alloc@V?$allocator@_W@std@@@std@@V?$_String_val@U?$_Simple_types@_W@std@@@2@$00@std@@QAE@U_Zero_then_variadic_args_t@1@@Z 10014550 f i cbridge.obj
 0001:00013550       ??$?0U?$_Wrap_alloc@V?$allocator@D@std@@@std@@X@?$_String_alloc@U?$_String_base_types@DV?$allocator@D@std@@@std@@@std@@QAE@$$QAU?$_Wrap_alloc@V?$allocator@D@std@@@1@@Z 10014550 f i assert_assist.obj
 0001:00013550       ??$?0U?$_Wrap_alloc@V?$allocator@_W@std@@@std@@X@?$_String_alloc@U?$_String_base_types@_WV?$allocator@_W@std@@@std@@@std@@QAE@$$QAU?$_Wrap_alloc@V?$allocator@_W@std@@@1@@Z 10014550 f i cbridge.obj
 0001:00013550       ??$?0$$V@?$_Compressed_pair@U?$_Wrap_alloc@V?$allocator@D@std@@@std@@V?$_String_val@U?$_Simple_types@D@std@@@2@$00@std@@QAE@U_Zero_then_variadic_args_t@1@@Z 10014550 f i assert_assist.obj
 0001:00013550       ??$?0ABV?$allocator@D@std@@X@?$_String_alloc@U?$_String_base_types@DV?$allocator@D@std@@@std@@@std@@QAE@ABV?$allocator@D@1@@Z 10014550 f i olefs.obj
 0001:00013550       ??$?0U?$_Wrap_alloc@V?$allocator@_S@std@@@std@@X@?$_String_alloc@U?$_String_base_types@_SV?$allocator@_S@std@@@std@@@std@@QAE@$$QAU?$_Wrap_alloc@V?$allocator@_S@std@@@1@@Z 10014550 f i datast.obj
 0001:00013570       ??$destroy@PAD@?$allocator@D@std@@QAEXPAPAD@Z 10014570 f i assert_assist.obj
 0001:00013570       ?_Compat@?$_Vector_const_iterator@V?$_Vector_val@U?$_Simple_types@PAVrange@xlslib_core@@@std@@@std@@@std@@QBEXABV12@@Z 10014570 f i sheetrec.obj
 0001:00013570       ?_Compat@?$_Vector_const_iterator@V?$_Vector_val@U?$_Simple_types@PAVboundsheet_t@xlslib_core@@@std@@@std@@@std@@QBEXABV12@@Z 10014570 f i datast.obj
 0001:00013570       ?_Compat@?$_Vector_const_iterator@V?$_Vector_val@U?$_Simple_types@I@std@@@std@@@std@@QBEXABV12@@Z 10014570 f i sheetrec.obj
 0001:00013570       ?_Destroy_if_not_nil@?$_Tree@V?$_Tset_traits@U?$pair@PAVxf_t@xlslib_core@@UborderedXft@2@@std@@VxfSorter@xlslib_core@@V?$allocator@U?$pair@PAVxf_t@xlslib_core@@UborderedXft@2@@std@@@2@$0A@@std@@@std@@IAEXU_Nil@2@@Z 10014570 f i range.obj
 0001:00013570       ?_Compat@?$_Vector_const_iterator@V?$_Vector_val@U?$_Simple_types@PAVxf_t@xlslib_core@@@std@@@std@@@std@@QBEXABV12@@Z 10014570 f i globalrec.obj
 0001:00013570       ??$destroy@PAUcolinfo_t@xlslib_core@@@?$allocator@U?$_Tree_node@PAUcolinfo_t@xlslib_core@@PAX@std@@@std@@QAEXPAPAUcolinfo_t@xlslib_core@@@Z 10014570 f i sheetrec.obj
 0001:00013570       ??$destroy@PAU?$_Tree_node@U?$pair@PAVxf_t@xlslib_core@@UborderedXft@2@@std@@PAX@std@@@?$allocator@U?$_Tree_node@U?$pair@PAVxf_t@xlslib_core@@UborderedXft@2@@std@@PAX@std@@@std@@QAEXPAPAU?$_Tree_node@U?$pair@PAVxf_t@xlslib_core@@UborderedXft@2@@std@@PAX@1@@Z 10014570 f i range.obj
 0001:00013570       ??$destroy@PAVxf_t@xlslib_core@@@?$_Wrap_alloc@V?$allocator@PAVxf_t@xlslib_core@@@std@@@std@@QAEXPAPAVxf_t@xlslib_core@@@Z 10014570 f i globalrec.obj
 0001:00013570       ?_Copy_alloc@?$_String_alloc@U?$_String_base_types@DV?$allocator@D@std@@@std@@@std@@QAEXABU?$_Wrap_alloc@V?$allocator@D@std@@@2@@Z 10014570 f i font.obj
 0001:00013570       ??$destroy@PAVcell_t@xlslib_core@@@?$allocator@U?$_Tree_node@PAVcell_t@xlslib_core@@PAX@std@@@std@@QAEXPAPAVcell_t@xlslib_core@@@Z 10014570 f i sheetrec.obj
 0001:00013570       ??$destroy@PAV?$basic_string@DU?$char_traits@D@std@@V?$allocator@D@2@@std@@@?$allocator@U?$_List_node@PAV?$basic_string@DU?$char_traits@D@std@@V?$allocator@D@2@@std@@PAX@std@@@std@@QAEXPAPAV?$basic_string@DU?$char_traits@D@std@@V?$allocator@D@2@@1@@Z 10014570 f i olefs.obj
 0001:00013570       ??$destroy@PAVHPSFitem@xlslib_core@@@?$_Wrap_alloc@V?$allocator@U?$_Tree_node@PAVHPSFitem@xlslib_core@@PAX@std@@@std@@@std@@QAEXPAPAVHPSFitem@xlslib_core@@@Z 10014570 f i HPSF.obj
 0001:00013570       ?_Compat@?$_Vector_const_iterator@V?$_Vector_val@U?$_Simple_types@PAUDataValidation@xlslib_core@@@std@@@std@@@std@@QBEXABV12@@Z 10014570 f i sheetrec.obj
 0001:00013570       ??$destroy@U?$pair@PAVxf_t@xlslib_core@@UborderedXft@2@@std@@@?$allocator@U?$_Tree_node@U?$pair@PAVxf_t@xlslib_core@@UborderedXft@2@@std@@PAX@std@@@std@@QAEXPAU?$pair@PAVxf_t@xlslib_core@@UborderedXft@2@@1@@Z 10014570 f i range.obj
 0001:00013570       ?_Destroy_if_not_nil@?$_Tree@V?$_Tset_traits@PAUcolinfo_t@xlslib_core@@Vcolinfosort@2@V?$allocator@PAUcolinfo_t@xlslib_core@@@std@@$0A@@std@@@std@@IAEXU_Nil@2@@Z 10014570 f i sheetrec.obj
 0001:00013570       ??$destroy@PAU?$_Tree_node@PAUcolinfo_t@xlslib_core@@PAX@std@@@?$_Wrap_alloc@V?$allocator@U?$_Tree_node@PAUcolinfo_t@xlslib_core@@PAX@std@@@std@@@std@@QAEXPAPAU?$_Tree_node@PAUcolinfo_t@xlslib_core@@PAX@1@@Z 10014570 f i sheetrec.obj
 0001:00013570       ?_Compat@?$_Vector_const_iterator@V?$_Vector_val@U?$_Simple_types@PAVworksheet@xlslib_core@@@std@@@std@@@std@@QBEXABV12@@Z 10014570 f i workbook.obj
 0001:00013570       ??$destroy@PAVrowheight_t@xlslib_core@@@?$_Wrap_alloc@V?$allocator@U?$_Tree_node@PAVrowheight_t@xlslib_core@@PAX@std@@@std@@@std@@QAEXPAPAVrowheight_t@xlslib_core@@@Z 10014570 f i sheetrec.obj
 0001:00013570       ?_Compat@?$_Vector_const_iterator@V?$_Vector_val@U?$_Simple_types@PAVfont_t@xlslib_core@@@std@@@std@@@std@@QBEXABV12@@Z 10014570 f i globalrec.obj
 0001:00013570       ?_Destroy_if_not_nil@?$_Tree@V?$_Tset_traits@PAVHPSFitem@xlslib_core@@Vinsertsort2@2@V?$allocator@PAVHPSFitem@xlslib_core@@@std@@$0A@@std@@@std@@IAEXU_Nil@2@@Z 10014570 f i HPSF.obj
 0001:00013570       ??$destroy@PAUcolinfo_t@xlslib_core@@@?$_Wrap_alloc@V?$allocator@U?$_Tree_node@PAUcolinfo_t@xlslib_core@@PAX@std@@@std@@@std@@QAEXPAPAUcolinfo_t@xlslib_core@@@Z 10014570 f i sheetrec.obj
 0001:00013570       ??$destroy@PAU?$_Tree_node@PAVcell_t@xlslib_core@@PAX@std@@@?$_Wrap_alloc@V?$allocator@U?$_Tree_node@PAVcell_t@xlslib_core@@PAX@std@@@std@@@std@@QAEXPAPAU?$_Tree_node@PAVcell_t@xlslib_core@@PAX@1@@Z 10014570 f i sheetrec.obj
 0001:00013570       ?_Compat@?$_Vector_const_iterator@V?$_Vector_val@U?$_Simple_types@Urowblocksize_t@xlslib_core@@@std@@@std@@@std@@QBEXABV12@@Z 10014570 f i sheetrec.obj
 0001:00013570       ?_Copy_alloc@?$_String_alloc@U?$_String_base_types@_SV?$allocator@_S@std@@@std@@@std@@QAEXABU?$_Wrap_alloc@V?$allocator@_S@std@@@2@@Z 10014570 f i formula_estimate.obj
 0001:00013570       ??$destroy@PAVrowheight_t@xlslib_core@@@?$allocator@U?$_Tree_node@PAVrowheight_t@xlslib_core@@PAX@std@@@std@@QAEXPAPAVrowheight_t@xlslib_core@@@Z 10014570 f i sheetrec.obj
 0001:00013570       ?_Compat@?$_Vector_const_iterator@V?$_Vector_val@U?$_Simple_types@VCUnitStore@xlslib_core@@@std@@@std@@@std@@QBEXABV12@@Z 10014570 f i datast.obj
 0001:00013570       ?_Compat@?$_Vector_const_iterator@V?$_Vector_val@U?$_Simple_types@PAVCUnit@xlslib_core@@@std@@@std@@@std@@QBEXABV12@@Z 10014570 f i datast.obj
 0001:00013570       ?_Compat@?$_Vector_const_iterator@V?$_Vector_val@U?$_Simple_types@PAUstyle_t@xlslib_core@@@std@@@std@@@std@@QBEXABV12@@Z 10014570 f i globalrec.obj
 0001:00013570       ?_Compat@?$_String_const_iterator@V?$_String_val@U?$_Simple_types@D@std@@@std@@@std@@QBEXABV12@@Z 10014570 f i globalrec.obj
 0001:00013570       ??$destroy@PAVxf_t@xlslib_core@@@?$allocator@PAVxf_t@xlslib_core@@@std@@QAEXPAPAVxf_t@xlslib_core@@@Z 10014570 f i globalrec.obj
 0001:00013570       ?_Compat@?$_Vector_const_iterator@V?$_Vector_val@U?$_Simple_types@PBVlabel_t@xlslib_core@@@std@@@std@@@std@@QBEXABV12@@Z 10014570 f i datast.obj
 0001:00013570       ?_Destroy_if_not_nil@?$_Tree@V?$_Tset_traits@PAVrowheight_t@xlslib_core@@Vrowheightsort@2@V?$allocator@PAVrowheight_t@xlslib_core@@@std@@$0A@@std@@@std@@IAEXU_Nil@2@@Z 10014570 f i sheetrec.obj
 0001:00013570       ??$destroy@PAU?$_List_node@PAV?$basic_string@DU?$char_traits@D@std@@V?$allocator@D@2@@std@@PAX@std@@@?$allocator@U?$_List_node@PAV?$basic_string@DU?$char_traits@D@std@@V?$allocator@D@2@@std@@PAX@std@@@std@@QAEXPAPAU?$_List_node@PAV?$basic_string@DU?$char_traits@D@std@@V?$allocator@D@2@@std@@PAX@1@@Z 10014570 f i olefs.obj
 0001:00013570       ?_Compat@?$_Vector_const_iterator@V?$_Vector_val@U?$_Simple_types@PAVCOleProp@xlslib_core@@@std@@@std@@@std@@QBEXABV12@@Z 10014570 f i oledoc.obj
 0001:00013570       ??$destroy@U?$pair@PAVxf_t@xlslib_core@@UborderedXft@2@@std@@@?$_Wrap_alloc@V?$allocator@U?$_Tree_node@U?$pair@PAVxf_t@xlslib_core@@UborderedXft@2@@std@@PAX@std@@@std@@@std@@QAEXPAU?$pair@PAVxf_t@xlslib_core@@UborderedXft@2@@1@@Z 10014570 f i range.obj
 0001:00013570       ?_Move_alloc@?$_String_alloc@U?$_String_base_types@DV?$allocator@D@std@@@std@@@std@@QAEXAAU?$_Wrap_alloc@V?$allocator@D@std@@@2@@Z 10014570 f i olefs.obj
 0001:00013570       ??$destroy@PAU?$_Tree_node@U?$pair@PAVxf_t@xlslib_core@@UborderedXft@2@@std@@PAX@std@@@?$_Wrap_alloc@V?$allocator@U?$_Tree_node@U?$pair@PAVxf_t@xlslib_core@@UborderedXft@2@@std@@PAX@std@@@std@@@std@@QAEXPAPAU?$_Tree_node@U?$pair@PAVxf_t@xlslib_core@@UborderedXft@2@@std@@PAX@1@@Z 10014570 f i range.obj
 0001:00013570       ??$destroy@PAU?$_Tree_node@PAVHPSFitem@xlslib_core@@PAX@std@@@?$_Wrap_alloc@V?$allocator@U?$_Tree_node@PAVHPSFitem@xlslib_core@@PAX@std@@@std@@@std@@QAEXPAPAU?$_Tree_node@PAVHPSFitem@xlslib_core@@PAX@1@@Z 10014570 f i HPSF.obj
 0001:00013570       ??$destroy@PAU?$_Tree_node@PAUcolinfo_t@xlslib_core@@PAX@std@@@?$allocator@U?$_Tree_node@PAUcolinfo_t@xlslib_core@@PAX@std@@@std@@QAEXPAPAU?$_Tree_node@PAUcolinfo_t@xlslib_core@@PAX@1@@Z 10014570 f i sheetrec.obj
 0001:00013570       ?_Compat@?$_Vector_const_iterator@V?$_Vector_val@U?$_Simple_types@PAUHyperLink@xlslib_core@@@std@@@std@@@std@@QBEXABV12@@Z 10014570 f i sheetrec.obj
 0001:00013570       ??$destroy@PAU?$_Tree_node@PAVrowheight_t@xlslib_core@@PAX@std@@@?$_Wrap_alloc@V?$allocator@U?$_Tree_node@PAVrowheight_t@xlslib_core@@PAX@std@@@std@@@std@@QAEXPAPAU?$_Tree_node@PAVrowheight_t@xlslib_core@@PAX@1@@Z 10014570 f i sheetrec.obj
 0001:00013570       ??$destroy@PAVHPSFitem@xlslib_core@@@?$allocator@U?$_Tree_node@PAVHPSFitem@xlslib_core@@PAX@std@@@std@@QAEXPAPAVHPSFitem@xlslib_core@@@Z 10014570 f i HPSF.obj
 0001:00013570       ?_Adopt@_Iterator_base0@std@@QAEXPBX@Z 10014570 f i datast.obj
 0001:00013570       ??$destroy@PA_W@?$allocator@_W@std@@QAEXPAPA_W@Z 10014570 f i cbridge.obj
 0001:00013570       ?_Compat@?$_Vector_const_iterator@V?$_Vector_val@U?$_Simple_types@PAVformula_t@xlslib_core@@@std@@@std@@@std@@QBEXABV12@@Z 10014570 f i sheetrec.obj
 0001:00013570       ??$destroy@PAU?$_Tree_node@PAVrowheight_t@xlslib_core@@PAX@std@@@?$allocator@U?$_Tree_node@PAVrowheight_t@xlslib_core@@PAX@std@@@std@@QAEXPAPAU?$_Tree_node@PAVrowheight_t@xlslib_core@@PAX@1@@Z 10014570 f i sheetrec.obj
 0001:00013570       ??$destroy@PA_S@?$allocator@_S@std@@QAEXPAPA_S@Z 10014570 f i datast.obj
 0001:00013570       ??$destroy@PA_W@?$_Wrap_alloc@V?$allocator@_W@std@@@std@@QAEXPAPA_W@Z 10014570 f i cbridge.obj
 0001:00013570       ?_Destroy_if_not_nil@?$_Tree@V?$_Tset_traits@PAVcell_t@xlslib_core@@Vinsertsort@2@V?$allocator@PAVcell_t@xlslib_core@@@std@@$0A@@std@@@std@@IAEXU_Nil@2@@Z 10014570 f i sheetrec.obj
 0001:00013570       ?_Compat@?$_String_const_iterator@V?$_String_val@U?$_Simple_types@_S@std@@@std@@@std@@QBEXABV12@@Z 10014570 f i globalrec.obj
 0001:00013570       ??$destroy@PAD@?$_Wrap_alloc@V?$allocator@D@std@@@std@@QAEXPAPAD@Z 10014570 f i assert_assist.obj
 0001:00013570       ??$destroy@PAU?$_List_node@PAV?$basic_string@DU?$char_traits@D@std@@V?$allocator@D@2@@std@@PAX@std@@@?$_Wrap_alloc@V?$allocator@U?$_List_node@PAV?$basic_string@DU?$char_traits@D@std@@V?$allocator@D@2@@std@@PAX@std@@@std@@@std@@QAEXPAPAU?$_List_node@PAV?$basic_string@DU?$char_traits@D@std@@V?$allocator@D@2@@std@@PAX@1@@Z 10014570 f i olefs.obj
 0001:00013570       ??$destroy@PAV?$basic_string@DU?$char_traits@D@std@@V?$allocator@D@2@@std@@@?$_Wrap_alloc@V?$allocator@U?$_List_node@PAV?$basic_string@DU?$char_traits@D@std@@V?$allocator@D@2@@std@@PAX@std@@@std@@@std@@QAEXPAPAV?$basic_string@DU?$char_traits@D@std@@V?$allocator@D@2@@1@@Z 10014570 f i olefs.obj
 0001:00013570       ??$destroy@PAU?$_Tree_node@PAVHPSFitem@xlslib_core@@PAX@std@@@?$allocator@U?$_Tree_node@PAVHPSFitem@xlslib_core@@PAX@std@@@std@@QAEXPAPAU?$_Tree_node@PAVHPSFitem@xlslib_core@@PAX@1@@Z 10014570 f i HPSF.obj
 0001:00013570       ?_Compat@?$_Vector_const_iterator@V?$_Vector_val@U?$_Simple_types@PAVrange_t@xlslib_core@@@std@@@std@@@std@@QBEXABV12@@Z 10014570 f i sheetrec.obj
 0001:00013570       ??$destroy@PA_S@?$_Wrap_alloc@V?$allocator@_S@std@@@std@@QAEXPAPA_S@Z 10014570 f i datast.obj
 0001:00013570       ?_Compat@?$_Vector_const_iterator@V?$_Vector_val@U?$_Simple_types@PAVformat_t@xlslib_core@@@std@@@std@@@std@@QBEXABV12@@Z 10014570 f i globalrec.obj
 0001:00013570       ??$destroy@PAVcell_t@xlslib_core@@@?$_Wrap_alloc@V?$allocator@U?$_Tree_node@PAVcell_t@xlslib_core@@PAX@std@@@std@@@std@@QAEXPAPAVcell_t@xlslib_core@@@Z 10014570 f i sheetrec.obj
 0001:00013570       ??$destroy@PAU?$_Tree_node@PAVcell_t@xlslib_core@@PAX@std@@@?$allocator@U?$_Tree_node@PAVcell_t@xlslib_core@@PAX@std@@@std@@QAEXPAPAU?$_Tree_node@PAVcell_t@xlslib_core@@PAX@1@@Z 10014570 f i sheetrec.obj
 0001:00013580       ??$construct@PAVformula_t@xlslib_core@@ABQAV12@@?$_Wrap_alloc@V?$allocator@PAVformula_t@xlslib_core@@@std@@@std@@QAEXPAPAVformula_t@xlslib_core@@ABQAV23@@Z 10014580 f i sheetrec.obj
 0001:00013580       ??$construct@PAVworksheet@xlslib_core@@AAPAV12@@?$_Wrap_alloc@V?$allocator@PAVworksheet@xlslib_core@@@std@@@std@@QAEXPAPAVworksheet@xlslib_core@@AAPAV23@@Z 10014580 f i workbook.obj
 0001:00013580       ??$construct@PAU?$_Tree_node@PAVrowheight_t@xlslib_core@@PAX@std@@AAPAU12@@?$allocator@U?$_Tree_node@PAVrowheight_t@xlslib_core@@PAX@std@@@std@@QAEXPAPAU?$_Tree_node@PAVrowheight_t@xlslib_core@@PAX@1@AAPAU21@@Z 10014580 f i sheetrec.obj
 0001:00013580       ??$construct@PAVCOleProp@xlslib_core@@AAPAV12@@?$_Wrap_alloc@V?$allocator@PAVCOleProp@xlslib_core@@@std@@@std@@QAEXPAPAVCOleProp@xlslib_core@@AAPAV23@@Z 10014580 f i olefs.obj
 0001:00013580       ??$construct@PAU?$_Tree_node@PAVrowheight_t@xlslib_core@@PAX@std@@AAPAU12@@?$_Wrap_alloc@V?$allocator@U?$_Tree_node@PAVrowheight_t@xlslib_core@@PAX@std@@@std@@@std@@QAEXPAPAU?$_Tree_node@PAVrowheight_t@xlslib_core@@PAX@1@AAPAU21@@Z 10014580 f i sheetrec.obj
 0001:00013580       ??$construct@PAUDataValidation@xlslib_core@@ABQAU12@@?$allocator@PAUDataValidation@xlslib_core@@@std@@QAEXPAPAUDataValidation@xlslib_core@@ABQAU23@@Z 10014580 f i sheetrec.obj
 0001:00013580       ??$construct@PAVrange@xlslib_core@@AAPAV12@@?$_Wrap_alloc@V?$allocator@PAVrange@xlslib_core@@@std@@@std@@QAEXPAPAVrange@xlslib_core@@AAPAV23@@Z 10014580 f i sheetrec.obj
 0001:00013580       ??$construct@PADAAPAD@?$allocator@D@std@@QAEXPAPADAAPAD@Z 10014580 f i assert_assist.obj
 0001:00013580       ??$construct@PAVworksheet@xlslib_core@@AAPAV12@@?$allocator@PAVworksheet@xlslib_core@@@std@@QAEXPAPAVworksheet@xlslib_core@@AAPAV23@@Z 10014580 f i workbook.obj
 0001:00013580       ??$construct@PAVCUnit@xlslib_core@@AAPAV12@@?$allocator@PAVCUnit@xlslib_core@@@std@@QAEXPAPAVCUnit@xlslib_core@@AAPAV23@@Z 10014580 f i datast.obj
 0001:00013580       ??$construct@PAVworksheet@xlslib_core@@ABQAV12@@?$allocator@PAVworksheet@xlslib_core@@@std@@QAEXPAPAVworksheet@xlslib_core@@ABQAV23@@Z 10014580 f i workbook.obj
 0001:00013580       ??$construct@PAVformat_t@xlslib_core@@AAPAV12@@?$allocator@PAVformat_t@xlslib_core@@@std@@QAEXPAPAVformat_t@xlslib_core@@AAPAV23@@Z 10014580 f i globalrec.obj
 0001:00013580       ??$construct@PAU?$_Tree_node@PAVHPSFitem@xlslib_core@@PAX@std@@AAPAU12@@?$allocator@U?$_Tree_node@PAVHPSFitem@xlslib_core@@PAX@std@@@std@@QAEXPAPAU?$_Tree_node@PAVHPSFitem@xlslib_core@@PAX@1@AAPAU21@@Z 10014580 f i HPSF.obj
 0001:00013580       ??$construct@PAVcell_t@xlslib_core@@ABQAV12@@?$_Wrap_alloc@V?$allocator@U?$_Tree_node@PAVcell_t@xlslib_core@@PAX@std@@@std@@@std@@QAEXPAPAVcell_t@xlslib_core@@ABQAV23@@Z 10014580 f i sheetrec.obj
 0001:00013580       ??$construct@PAV?$basic_string@DU?$char_traits@D@std@@V?$allocator@D@2@@std@@ABQAV12@@?$_Wrap_alloc@V?$allocator@U?$_List_node@PAV?$basic_string@DU?$char_traits@D@std@@V?$allocator@D@2@@std@@PAX@std@@@std@@@std@@QAEXPAPAV?$basic_string@DU?$char_traits@D@std@@V?$allocator@D@2@@1@ABQAV21@@Z 10014580 f i olefs.obj
 0001:00013580       ??$construct@PAUHyperLink@xlslib_core@@ABQAU12@@?$_Wrap_alloc@V?$allocator@PAUHyperLink@xlslib_core@@@std@@@std@@QAEXPAPAUHyperLink@xlslib_core@@ABQAU23@@Z 10014580 f i sheetrec.obj
 0001:00013580       ??$construct@PAUcolinfo_t@xlslib_core@@ABQAU12@@?$allocator@U?$_Tree_node@PAUcolinfo_t@xlslib_core@@PAX@std@@@std@@QAEXPAPAUcolinfo_t@xlslib_core@@ABQAU23@@Z 10014580 f i sheetrec.obj
 0001:00013580       ??$construct@PAUstyle_t@xlslib_core@@ABQAU12@@?$_Wrap_alloc@V?$allocator@PAUstyle_t@xlslib_core@@@std@@@std@@QAEXPAPAUstyle_t@xlslib_core@@ABQAU23@@Z 10014580 f i globalrec.obj
 0001:00013580       ??$construct@PAVCUnit@xlslib_core@@ABQAV12@@?$_Wrap_alloc@V?$allocator@PAVCUnit@xlslib_core@@@std@@@std@@QAEXPAPAVCUnit@xlslib_core@@ABQAV23@@Z 10014580 f i datast.obj
 0001:00013580       ??$construct@PAVrange_t@xlslib_core@@AAPAV12@@?$_Wrap_alloc@V?$allocator@PAVrange_t@xlslib_core@@@std@@@std@@QAEXPAPAVrange_t@xlslib_core@@AAPAV23@@Z 10014580 f i sheetrec.obj
 0001:00013580       ??$construct@PAU?$_Tree_node@PAVHPSFitem@xlslib_core@@PAX@std@@AAPAU12@@?$_Wrap_alloc@V?$allocator@U?$_Tree_node@PAVHPSFitem@xlslib_core@@PAX@std@@@std@@@std@@QAEXPAPAU?$_Tree_node@PAVHPSFitem@xlslib_core@@PAX@1@AAPAU21@@Z 10014580 f i HPSF.obj
 0001:00013580       ??$construct@PAVrange_t@xlslib_core@@ABQAV12@@?$allocator@PAVrange_t@xlslib_core@@@std@@QAEXPAPAVrange_t@xlslib_core@@ABQAV23@@Z 10014580 f i sheetrec.obj
 0001:00013580       ??$construct@PAVCUnit@xlslib_core@@ABQAV12@@?$allocator@PAVCUnit@xlslib_core@@@std@@QAEXPAPAVCUnit@xlslib_core@@ABQAV23@@Z 10014580 f i datast.obj
 0001:00013580       ??$construct@PA_SAAPA_S@?$_Wrap_alloc@V?$allocator@_S@std@@@std@@QAEXPAPA_SAAPA_S@Z 10014580 f i datast.obj
 0001:00013580       ??$construct@PA_WAAPA_W@?$allocator@_W@std@@QAEXPAPA_WAAPA_W@Z 10014580 f i cbridge.obj
 0001:00013580       ??$construct@PAVrowheight_t@xlslib_core@@ABQAV12@@?$_Wrap_alloc@V?$allocator@U?$_Tree_node@PAVrowheight_t@xlslib_core@@PAX@std@@@std@@@std@@QAEXPAPAVrowheight_t@xlslib_core@@ABQAV23@@Z 10014580 f i sheetrec.obj
 0001:00013580       ??$construct@PAVformat_t@xlslib_core@@AAPAV12@@?$_Wrap_alloc@V?$allocator@PAVformat_t@xlslib_core@@@std@@@std@@QAEXPAPAVformat_t@xlslib_core@@AAPAV23@@Z 10014580 f i globalrec.obj
 0001:00013580       ??$construct@PAVrange_t@xlslib_core@@ABQAV12@@?$_Wrap_alloc@V?$allocator@PAVrange_t@xlslib_core@@@std@@@std@@QAEXPAPAVrange_t@xlslib_core@@ABQAV23@@Z 10014580 f i sheetrec.obj
 0001:00013580       ??$construct@PAUHyperLink@xlslib_core@@AAPAU12@@?$_Wrap_alloc@V?$allocator@PAUHyperLink@xlslib_core@@@std@@@std@@QAEXPAPAUHyperLink@xlslib_core@@AAPAU23@@Z 10014580 f i sheetrec.obj
 0001:00013580       ??$construct@PAV?$basic_string@DU?$char_traits@D@std@@V?$allocator@D@2@@std@@ABQAV12@@?$allocator@U?$_List_node@PAV?$basic_string@DU?$char_traits@D@std@@V?$allocator@D@2@@std@@PAX@std@@@std@@QAEXPAPAV?$basic_string@DU?$char_traits@D@std@@V?$allocator@D@2@@1@ABQAV21@@Z 10014580 f i olefs.obj
 0001:00013580       ??$construct@PAVboundsheet_t@xlslib_core@@AAPAV12@@?$_Wrap_alloc@V?$allocator@PAVboundsheet_t@xlslib_core@@@std@@@std@@QAEXPAPAVboundsheet_t@xlslib_core@@AAPAV23@@Z 10014580 f i globalrec.obj
 0001:00013580       ??$construct@PAVxf_t@xlslib_core@@ABQAV12@@?$allocator@PAVxf_t@xlslib_core@@@std@@QAEXPAPAVxf_t@xlslib_core@@ABQAV23@@Z 10014580 f i globalrec.obj
 0001:00013580       ??$construct@PAVrange_t@xlslib_core@@AAPAV12@@?$allocator@PAVrange_t@xlslib_core@@@std@@QAEXPAPAVrange_t@xlslib_core@@AAPAV23@@Z 10014580 f i sheetrec.obj
 0001:00013580       ??$construct@PAU?$_Tree_node@PAVcell_t@xlslib_core@@PAX@std@@AAPAU12@@?$allocator@U?$_Tree_node@PAVcell_t@xlslib_core@@PAX@std@@@std@@QAEXPAPAU?$_Tree_node@PAVcell_t@xlslib_core@@PAX@1@AAPAU21@@Z 10014580 f i sheetrec.obj
 0001:00013580       ??$construct@PAU?$_Tree_node@PAUcolinfo_t@xlslib_core@@PAX@std@@AAPAU12@@?$allocator@U?$_Tree_node@PAUcolinfo_t@xlslib_core@@PAX@std@@@std@@QAEXPAPAU?$_Tree_node@PAUcolinfo_t@xlslib_core@@PAX@1@AAPAU21@@Z 10014580 f i sheetrec.obj
 0001:00013580       ??$construct@PAVformat_t@xlslib_core@@ABQAV12@@?$_Wrap_alloc@V?$allocator@PAVformat_t@xlslib_core@@@std@@@std@@QAEXPAPAVformat_t@xlslib_core@@ABQAV23@@Z 10014580 f i globalrec.obj
 0001:00013580       ??$construct@PAU?$_Tree_node@PAVcell_t@xlslib_core@@PAX@std@@AAPAU12@@?$_Wrap_alloc@V?$allocator@U?$_Tree_node@PAVcell_t@xlslib_core@@PAX@std@@@std@@@std@@QAEXPAPAU?$_Tree_node@PAVcell_t@xlslib_core@@PAX@1@AAPAU21@@Z 10014580 f i sheetrec.obj
 0001:00013580       ??$construct@PBVlabel_t@xlslib_core@@PBV12@@?$allocator@PBVlabel_t@xlslib_core@@@std@@QAEXPAPBVlabel_t@xlslib_core@@$$QAPBV23@@Z 10014580 f i globalrec.obj
 0001:00013580       ??$construct@II@?$_Wrap_alloc@V?$allocator@I@std@@@std@@QAEXPAI$$QAI@Z 10014580 f i sheetrec.obj
 0001:00013580       ??$construct@PAU?$_List_node@PAV?$basic_string@DU?$char_traits@D@std@@V?$allocator@D@2@@std@@PAX@std@@AAPAU12@@?$_Wrap_alloc@V?$allocator@U?$_List_node@PAV?$basic_string@DU?$char_traits@D@std@@V?$allocator@D@2@@std@@PAX@std@@@std@@@std@@QAEXPAPAU?$_List_node@PAV?$basic_string@DU?$char_traits@D@std@@V?$allocator@D@2@@std@@PAX@1@AAPAU21@@Z 10014580 f i olefs.obj
 0001:00013580       ??$construct@PAUcolinfo_t@xlslib_core@@ABQAU12@@?$_Wrap_alloc@V?$allocator@U?$_Tree_node@PAUcolinfo_t@xlslib_core@@PAX@std@@@std@@@std@@QAEXPAPAUcolinfo_t@xlslib_core@@ABQAU23@@Z 10014580 f i sheetrec.obj
 0001:00013580       ??$construct@PAVformula_t@xlslib_core@@ABQAV12@@?$allocator@PAVformula_t@xlslib_core@@@std@@QAEXPAPAVformula_t@xlslib_core@@ABQAV23@@Z 10014580 f i sheetrec.obj
 0001:00013580       ??$construct@PAVformat_t@xlslib_core@@ABQAV12@@?$allocator@PAVformat_t@xlslib_core@@@std@@QAEXPAPAVformat_t@xlslib_core@@ABQAV23@@Z 10014580 f i globalrec.obj
 0001:00013580       ??$construct@PAUHyperLink@xlslib_core@@AAPAU12@@?$allocator@PAUHyperLink@xlslib_core@@@std@@QAEXPAPAUHyperLink@xlslib_core@@AAPAU23@@Z 10014580 f i sheetrec.obj
 0001:00013580       ??$construct@PBVlabel_t@xlslib_core@@PBV12@@?$_Wrap_alloc@V?$allocator@PBVlabel_t@xlslib_core@@@std@@@std@@QAEXPAPBVlabel_t@xlslib_core@@$$QAPBV23@@Z 10014580 f i globalrec.obj
 0001:00013580       ??$construct@PAU?$_Tree_node@PAUcolinfo_t@xlslib_core@@PAX@std@@AAPAU12@@?$_Wrap_alloc@V?$allocator@U?$_Tree_node@PAUcolinfo_t@xlslib_core@@PAX@std@@@std@@@std@@QAEXPAPAU?$_Tree_node@PAUcolinfo_t@xlslib_core@@PAX@1@AAPAU21@@Z 10014580 f i sheetrec.obj
 0001:00013580       ??$construct@PA_WAAPA_W@?$_Wrap_alloc@V?$allocator@_W@std@@@std@@QAEXPAPA_WAAPA_W@Z 10014580 f i cbridge.obj
 0001:00013580       ??$construct@PAVfont_t@xlslib_core@@AAPAV12@@?$_Wrap_alloc@V?$allocator@PAVfont_t@xlslib_core@@@std@@@std@@QAEXPAPAVfont_t@xlslib_core@@AAPAV23@@Z 10014580 f i globalrec.obj
 0001:00013580       ??$construct@PA_SAAPA_S@?$allocator@_S@std@@QAEXPAPA_SAAPA_S@Z 10014580 f i datast.obj
 0001:00013580       ??$construct@PAVfont_t@xlslib_core@@ABQAV12@@?$allocator@PAVfont_t@xlslib_core@@@std@@QAEXPAPAVfont_t@xlslib_core@@ABQAV23@@Z 10014580 f i globalrec.obj
 0001:00013580       ??$construct@PAVrange@xlslib_core@@ABQAV12@@?$allocator@PAVrange@xlslib_core@@@std@@QAEXPAPAVrange@xlslib_core@@ABQAV23@@Z 10014580 f i sheetrec.obj
 0001:00013580       ??$construct@PAUstyle_t@xlslib_core@@ABQAU12@@?$allocator@PAUstyle_t@xlslib_core@@@std@@QAEXPAPAUstyle_t@xlslib_core@@ABQAU23@@Z 10014580 f i globalrec.obj
 0001:00013580       ??$construct@PAVboundsheet_t@xlslib_core@@ABQAV12@@?$_Wrap_alloc@V?$allocator@PAVboundsheet_t@xlslib_core@@@std@@@std@@QAEXPAPAVboundsheet_t@xlslib_core@@ABQAV23@@Z 10014580 f i globalrec.obj
 0001:00013580       ??$construct@PAVformula_t@xlslib_core@@AAPAV12@@?$allocator@PAVformula_t@xlslib_core@@@std@@QAEXPAPAVformula_t@xlslib_core@@AAPAV23@@Z 10014580 f i sheetrec.obj
 0001:00013580       ??$construct@PADAAPAD@?$_Wrap_alloc@V?$allocator@D@std@@@std@@QAEXPAPADAAPAD@Z 10014580 f i assert_assist.obj
 0001:00013580       ??$construct@PAVrange@xlslib_core@@AAPAV12@@?$allocator@PAVrange@xlslib_core@@@std@@QAEXPAPAVrange@xlslib_core@@AAPAV23@@Z 10014580 f i sheetrec.obj
 0001:00013580       ??$construct@PAVrange@xlslib_core@@ABQAV12@@?$_Wrap_alloc@V?$allocator@PAVrange@xlslib_core@@@std@@@std@@QAEXPAPAVrange@xlslib_core@@ABQAV23@@Z 10014580 f i sheetrec.obj
 0001:00013580       ??$construct@PAUDataValidation@xlslib_core@@ABQAU12@@?$_Wrap_alloc@V?$allocator@PAUDataValidation@xlslib_core@@@std@@@std@@QAEXPAPAUDataValidation@xlslib_core@@ABQAU23@@Z 10014580 f i sheetrec.obj
 0001:00013580       ??$construct@PAVboundsheet_t@xlslib_core@@ABQAV12@@?$allocator@PAVboundsheet_t@xlslib_core@@@std@@QAEXPAPAVboundsheet_t@xlslib_core@@ABQAV23@@Z 10014580 f i globalrec.obj
 0001:00013580       ??$construct@PAUHyperLink@xlslib_core@@ABQAU12@@?$allocator@PAUHyperLink@xlslib_core@@@std@@QAEXPAPAUHyperLink@xlslib_core@@ABQAU23@@Z 10014580 f i sheetrec.obj
 0001:00013580       ??$construct@PAUDataValidation@xlslib_core@@AAPAU12@@?$_Wrap_alloc@V?$allocator@PAUDataValidation@xlslib_core@@@std@@@std@@QAEXPAPAUDataValidation@xlslib_core@@AAPAU23@@Z 10014580 f i sheetrec.obj
 0001:00013580       ??$construct@PAVHPSFitem@xlslib_core@@ABQAV12@@?$_Wrap_alloc@V?$allocator@U?$_Tree_node@PAVHPSFitem@xlslib_core@@PAX@std@@@std@@@std@@QAEXPAPAVHPSFitem@xlslib_core@@ABQAV23@@Z 10014580 f i HPSF.obj
 0001:00013580       ??$construct@PAVrowheight_t@xlslib_core@@ABQAV12@@?$allocator@U?$_Tree_node@PAVrowheight_t@xlslib_core@@PAX@std@@@std@@QAEXPAPAVrowheight_t@xlslib_core@@ABQAV23@@Z 10014580 f i sheetrec.obj
 0001:00013580       ??$construct@PAU?$_List_node@PAV?$basic_string@DU?$char_traits@D@std@@V?$allocator@D@2@@std@@PAX@std@@AAPAU12@@?$allocator@U?$_List_node@PAV?$basic_string@DU?$char_traits@D@std@@V?$allocator@D@2@@std@@PAX@std@@@std@@QAEXPAPAU?$_List_node@PAV?$basic_string@DU?$char_traits@D@std@@V?$allocator@D@2@@std@@PAX@1@AAPAU21@@Z 10014580 f i olefs.obj
 0001:00013580       ??$construct@PAUstyle_t@xlslib_core@@AAPAU12@@?$_Wrap_alloc@V?$allocator@PAUstyle_t@xlslib_core@@@std@@@std@@QAEXPAPAUstyle_t@xlslib_core@@AAPAU23@@Z 10014580 f i globalrec.obj
 0001:00013580       ??$construct@PAVHPSFitem@xlslib_core@@ABQAV12@@?$allocator@U?$_Tree_node@PAVHPSFitem@xlslib_core@@PAX@std@@@std@@QAEXPAPAVHPSFitem@xlslib_core@@ABQAV23@@Z 10014580 f i HPSF.obj
 0001:00013580       ??$construct@PAVCOleProp@xlslib_core@@ABQAV12@@?$allocator@PAVCOleProp@xlslib_core@@@std@@QAEXPAPAVCOleProp@xlslib_core@@ABQAV23@@Z 10014580 f i olefs.obj
 0001:00013580       ??$construct@PAVxf_t@xlslib_core@@AAPAV12@@?$_Wrap_alloc@V?$allocator@PAVxf_t@xlslib_core@@@std@@@std@@QAEXPAPAVxf_t@xlslib_core@@AAPAV23@@Z 10014580 f i globalrec.obj
 0001:00013580       ??$construct@PAVformula_t@xlslib_core@@AAPAV12@@?$_Wrap_alloc@V?$allocator@PAVformula_t@xlslib_core@@@std@@@std@@QAEXPAPAVformula_t@xlslib_core@@AAPAV23@@Z 10014580 f i sheetrec.obj
 0001:00013580       ??$construct@PAU?$_Tree_node@U?$pair@PAVxf_t@xlslib_core@@UborderedXft@2@@std@@PAX@std@@AAPAU12@@?$_Wrap_alloc@V?$allocator@U?$_Tree_node@U?$pair@PAVxf_t@xlslib_core@@UborderedXft@2@@std@@PAX@std@@@std@@@std@@QAEXPAPAU?$_Tree_node@U?$pair@PAVxf_t@xlslib_core@@UborderedXft@2@@std@@PAX@1@AAPAU21@@Z 10014580 f i range.obj
 0001:00013580       ??$construct@PAVCUnit@xlslib_core@@AAPAV12@@?$_Wrap_alloc@V?$allocator@PAVCUnit@xlslib_core@@@std@@@std@@QAEXPAPAVCUnit@xlslib_core@@AAPAV23@@Z 10014580 f i datast.obj
 0001:00013580       ??$construct@PAVCOleProp@xlslib_core@@ABQAV12@@?$_Wrap_alloc@V?$allocator@PAVCOleProp@xlslib_core@@@std@@@std@@QAEXPAPAVCOleProp@xlslib_core@@ABQAV23@@Z 10014580 f i olefs.obj
 0001:00013580       ??$construct@PAVxf_t@xlslib_core@@AAPAV12@@?$allocator@PAVxf_t@xlslib_core@@@std@@QAEXPAPAVxf_t@xlslib_core@@AAPAV23@@Z 10014580 f i globalrec.obj
 0001:00013580       ??$construct@PAVfont_t@xlslib_core@@AAPAV12@@?$allocator@PAVfont_t@xlslib_core@@@std@@QAEXPAPAVfont_t@xlslib_core@@AAPAV23@@Z 10014580 f i globalrec.obj
 0001:00013580       ??$construct@PAVCOleProp@xlslib_core@@AAPAV12@@?$allocator@PAVCOleProp@xlslib_core@@@std@@QAEXPAPAVCOleProp@xlslib_core@@AAPAV23@@Z 10014580 f i olefs.obj
 0001:00013580       ??$construct@PAU?$_Tree_node@U?$pair@PAVxf_t@xlslib_core@@UborderedXft@2@@std@@PAX@std@@AAPAU12@@?$allocator@U?$_Tree_node@U?$pair@PAVxf_t@xlslib_core@@UborderedXft@2@@std@@PAX@std@@@std@@QAEXPAPAU?$_Tree_node@U?$pair@PAVxf_t@xlslib_core@@UborderedXft@2@@std@@PAX@1@AAPAU21@@Z 10014580 f i range.obj
 0001:00013580       ??$construct@PAUstyle_t@xlslib_core@@AAPAU12@@?$allocator@PAUstyle_t@xlslib_core@@@std@@QAEXPAPAUstyle_t@xlslib_core@@AAPAU23@@Z 10014580 f i globalrec.obj
 0001:00013580       ??$construct@PAVboundsheet_t@xlslib_core@@AAPAV12@@?$allocator@PAVboundsheet_t@xlslib_core@@@std@@QAEXPAPAVboundsheet_t@xlslib_core@@AAPAV23@@Z 10014580 f i globalrec.obj
 0001:00013580       ??$construct@PAVfont_t@xlslib_core@@ABQAV12@@?$_Wrap_alloc@V?$allocator@PAVfont_t@xlslib_core@@@std@@@std@@QAEXPAPAVfont_t@xlslib_core@@ABQAV23@@Z 10014580 f i globalrec.obj
 0001:00013580       ??$construct@PAVxf_t@xlslib_core@@ABQAV12@@?$_Wrap_alloc@V?$allocator@PAVxf_t@xlslib_core@@@std@@@std@@QAEXPAPAVxf_t@xlslib_core@@ABQAV23@@Z 10014580 f i globalrec.obj
 0001:00013580       ??$construct@PAUDataValidation@xlslib_core@@AAPAU12@@?$allocator@PAUDataValidation@xlslib_core@@@std@@QAEXPAPAUDataValidation@xlslib_core@@AAPAU23@@Z 10014580 f i sheetrec.obj
 0001:00013580       ??$construct@II@?$allocator@I@std@@QAEXPAI$$QAI@Z 10014580 f i sheetrec.obj
 0001:00013580       ??$construct@PAVcell_t@xlslib_core@@ABQAV12@@?$allocator@U?$_Tree_node@PAVcell_t@xlslib_core@@PAX@std@@@std@@QAEXPAPAVcell_t@xlslib_core@@ABQAV23@@Z 10014580 f i sheetrec.obj
 0001:00013580       ??$construct@PAVworksheet@xlslib_core@@ABQAV12@@?$_Wrap_alloc@V?$allocator@PAVworksheet@xlslib_core@@@std@@@std@@QAEXPAPAVworksheet@xlslib_core@@ABQAV23@@Z 10014580 f i workbook.obj
 0001:000135a0       ??$?0ABV?$allocator@D@std@@$$V@?$_Compressed_pair@U?$_Wrap_alloc@V?$allocator@D@std@@@std@@V?$_String_val@U?$_Simple_types@D@std@@@2@$00@std@@QAE@U_One_then_variadic_args_t@1@ABV?$allocator@D@1@@Z 100145a0 f i olefs.obj
 0001:000135a0       ??$?0U?$_Wrap_alloc@V?$allocator@_S@std@@@std@@$$V@?$_Compressed_pair@U?$_Wrap_alloc@V?$allocator@_S@std@@@std@@V?$_String_val@U?$_Simple_types@_S@std@@@2@$00@std@@QAE@U_One_then_variadic_args_t@1@$$QAU?$_Wrap_alloc@V?$allocator@_S@std@@@1@@Z 100145a0 f i datast.obj
 0001:000135a0       ??$?0U?$_Wrap_alloc@V?$allocator@D@std@@@std@@$$V@?$_Compressed_pair@U?$_Wrap_alloc@V?$allocator@D@std@@@std@@V?$_String_val@U?$_Simple_types@D@std@@@2@$00@std@@QAE@U_One_then_variadic_args_t@1@$$QAU?$_Wrap_alloc@V?$allocator@D@std@@@1@@Z 100145a0 f i assert_assist.obj
 0001:000135a0       ??$?0U?$_Wrap_alloc@V?$allocator@_W@std@@@std@@$$V@?$_Compressed_pair@U?$_Wrap_alloc@V?$allocator@_W@std@@@std@@V?$_String_val@U?$_Simple_types@_W@std@@@2@$00@std@@QAE@U_One_then_variadic_args_t@1@$$QAU?$_Wrap_alloc@V?$allocator@_W@std@@@1@@Z 100145a0 f i cbridge.obj
 0001:000135c0       ??$construct@PAU?$_List_node@PAV?$basic_string@DU?$char_traits@D@std@@V?$allocator@D@2@@std@@PAX@std@@AAPAU12@@?$allocator_traits@V?$allocator@U?$_List_node@PAV?$basic_string@DU?$char_traits@D@std@@V?$allocator@D@2@@std@@PAX@std@@@std@@@std@@SAXAAV?$allocator@U?$_List_node@PAV?$basic_string@DU?$char_traits@D@std@@V?$allocator@D@2@@std@@PAX@std@@@1@PAPAU?$_List_node@PAV?$basic_string@DU?$char_traits@D@std@@V?$allocator@D@2@@std@@PAX@1@AAPAU31@@Z 100145c0 f i olefs.obj
 0001:000135c0       ??$construct@PAV?$basic_string@DU?$char_traits@D@std@@V?$allocator@D@2@@std@@ABQAV12@@?$allocator_traits@V?$allocator@U?$_List_node@PAV?$basic_string@DU?$char_traits@D@std@@V?$allocator@D@2@@std@@PAX@std@@@std@@@std@@SAXAAV?$allocator@U?$_List_node@PAV?$basic_string@DU?$char_traits@D@std@@V?$allocator@D@2@@std@@PAX@std@@@1@PAPAV?$basic_string@DU?$char_traits@D@std@@V?$allocator@D@2@@1@ABQAV31@@Z 100145c0 f i olefs.obj
 0001:000135c0       ??$construct@PAVCOleProp@xlslib_core@@ABQAV12@@?$allocator_traits@V?$allocator@PAVCOleProp@xlslib_core@@@std@@@std@@SAXAAV?$allocator@PAVCOleProp@xlslib_core@@@1@PAPAVCOleProp@xlslib_core@@ABQAV34@@Z 100145c0 f i olefs.obj
 0001:000135c0       ??$construct@PAVfont_t@xlslib_core@@AAPAV12@@?$allocator_traits@V?$allocator@PAVfont_t@xlslib_core@@@std@@@std@@SAXAAV?$allocator@PAVfont_t@xlslib_core@@@1@PAPAVfont_t@xlslib_core@@AAPAV34@@Z 100145c0 f i globalrec.obj
 0001:000135c0       ??$construct@PAVboundsheet_t@xlslib_core@@ABQAV12@@?$allocator_traits@V?$allocator@PAVboundsheet_t@xlslib_core@@@std@@@std@@SAXAAV?$allocator@PAVboundsheet_t@xlslib_core@@@1@PAPAVboundsheet_t@xlslib_core@@ABQAV34@@Z 100145c0 f i globalrec.obj
 0001:000135c0       ??$construct@PADAAPAD@?$allocator_traits@V?$allocator@D@std@@@std@@SAXAAV?$allocator@D@1@PAPADAAPAD@Z 100145c0 f i assert_assist.obj
 0001:000135c0       ??$construct@II@?$allocator_traits@V?$allocator@I@std@@@std@@SAXAAV?$allocator@I@1@PAI$$QAI@Z 100145c0 f i sheetrec.obj
 0001:000135c0       ??$construct@PAVcell_t@xlslib_core@@ABQAV12@@?$allocator_traits@V?$allocator@U?$_Tree_node@PAVcell_t@xlslib_core@@PAX@std@@@std@@@std@@SAXAAV?$allocator@U?$_Tree_node@PAVcell_t@xlslib_core@@PAX@std@@@1@PAPAVcell_t@xlslib_core@@ABQAV34@@Z 100145c0 f i sheetrec.obj
 0001:000135c0       ??$construct@PAU?$_Tree_node@PAVrowheight_t@xlslib_core@@PAX@std@@AAPAU12@@?$allocator_traits@V?$allocator@U?$_Tree_node@PAVrowheight_t@xlslib_core@@PAX@std@@@std@@@std@@SAXAAV?$allocator@U?$_Tree_node@PAVrowheight_t@xlslib_core@@PAX@std@@@1@PAPAU?$_Tree_node@PAVrowheight_t@xlslib_core@@PAX@1@AAPAU31@@Z 100145c0 f i sheetrec.obj
 0001:000135c0       ??$construct@PAVrowheight_t@xlslib_core@@ABQAV12@@?$allocator_traits@V?$allocator@U?$_Tree_node@PAVrowheight_t@xlslib_core@@PAX@std@@@std@@@std@@SAXAAV?$allocator@U?$_Tree_node@PAVrowheight_t@xlslib_core@@PAX@std@@@1@PAPAVrowheight_t@xlslib_core@@ABQAV34@@Z 100145c0 f i sheetrec.obj
 0001:000135c0       ??$construct@PAU?$_Tree_node@PAUcolinfo_t@xlslib_core@@PAX@std@@AAPAU12@@?$allocator_traits@V?$allocator@U?$_Tree_node@PAUcolinfo_t@xlslib_core@@PAX@std@@@std@@@std@@SAXAAV?$allocator@U?$_Tree_node@PAUcolinfo_t@xlslib_core@@PAX@std@@@1@PAPAU?$_Tree_node@PAUcolinfo_t@xlslib_core@@PAX@1@AAPAU31@@Z 100145c0 f i sheetrec.obj
 0001:000135c0       ??$construct@PAU?$_Tree_node@PAVHPSFitem@xlslib_core@@PAX@std@@AAPAU12@@?$allocator_traits@V?$allocator@U?$_Tree_node@PAVHPSFitem@xlslib_core@@PAX@std@@@std@@@std@@SAXAAV?$allocator@U?$_Tree_node@PAVHPSFitem@xlslib_core@@PAX@std@@@1@PAPAU?$_Tree_node@PAVHPSFitem@xlslib_core@@PAX@1@AAPAU31@@Z 100145c0 f i HPSF.obj
 0001:000135c0       ??$construct@PAVrange_t@xlslib_core@@AAPAV12@@?$allocator_traits@V?$allocator@PAVrange_t@xlslib_core@@@std@@@std@@SAXAAV?$allocator@PAVrange_t@xlslib_core@@@1@PAPAVrange_t@xlslib_core@@AAPAV34@@Z 100145c0 f i sheetrec.obj
 0001:000135c0       ??$construct@PA_SAAPA_S@?$allocator_traits@V?$allocator@_S@std@@@std@@SAXAAV?$allocator@_S@1@PAPA_SAAPA_S@Z 100145c0 f i datast.obj
 0001:000135c0       ??$construct@PAVformula_t@xlslib_core@@ABQAV12@@?$allocator_traits@V?$allocator@PAVformula_t@xlslib_core@@@std@@@std@@SAXAAV?$allocator@PAVformula_t@xlslib_core@@@1@PAPAVformula_t@xlslib_core@@ABQAV34@@Z 100145c0 f i sheetrec.obj
 0001:000135c0       ??$construct@PA_WAAPA_W@?$allocator_traits@V?$allocator@_W@std@@@std@@SAXAAV?$allocator@_W@1@PAPA_WAAPA_W@Z 100145c0 f i cbridge.obj
 0001:000135c0       ??$construct@PAUHyperLink@xlslib_core@@AAPAU12@@?$allocator_traits@V?$allocator@PAUHyperLink@xlslib_core@@@std@@@std@@SAXAAV?$allocator@PAUHyperLink@xlslib_core@@@1@PAPAUHyperLink@xlslib_core@@AAPAU34@@Z 100145c0 f i sheetrec.obj
 0001:000135c0       ??$construct@PAVformat_t@xlslib_core@@ABQAV12@@?$allocator_traits@V?$allocator@PAVformat_t@xlslib_core@@@std@@@std@@SAXAAV?$allocator@PAVformat_t@xlslib_core@@@1@PAPAVformat_t@xlslib_core@@ABQAV34@@Z 100145c0 f i globalrec.obj
 0001:000135c0       ??$construct@PAVworksheet@xlslib_core@@ABQAV12@@?$allocator_traits@V?$allocator@PAVworksheet@xlslib_core@@@std@@@std@@SAXAAV?$allocator@PAVworksheet@xlslib_core@@@1@PAPAVworksheet@xlslib_core@@ABQAV34@@Z 100145c0 f i workbook.obj
 0001:000135c0       ??$construct@PAVCOleProp@xlslib_core@@AAPAV12@@?$allocator_traits@V?$allocator@PAVCOleProp@xlslib_core@@@std@@@std@@SAXAAV?$allocator@PAVCOleProp@xlslib_core@@@1@PAPAVCOleProp@xlslib_core@@AAPAV34@@Z 100145c0 f i olefs.obj
 0001:000135c0       ??$construct@PAVrange@xlslib_core@@AAPAV12@@?$allocator_traits@V?$allocator@PAVrange@xlslib_core@@@std@@@std@@SAXAAV?$allocator@PAVrange@xlslib_core@@@1@PAPAVrange@xlslib_core@@AAPAV34@@Z 100145c0 f i sheetrec.obj
 0001:000135c0       ??$construct@PAUstyle_t@xlslib_core@@AAPAU12@@?$allocator_traits@V?$allocator@PAUstyle_t@xlslib_core@@@std@@@std@@SAXAAV?$allocator@PAUstyle_t@xlslib_core@@@1@PAPAUstyle_t@xlslib_core@@AAPAU34@@Z 100145c0 f i globalrec.obj
 0001:000135c0       ??$construct@PAVworksheet@xlslib_core@@AAPAV12@@?$allocator_traits@V?$allocator@PAVworksheet@xlslib_core@@@std@@@std@@SAXAAV?$allocator@PAVworksheet@xlslib_core@@@1@PAPAVworksheet@xlslib_core@@AAPAV34@@Z 100145c0 f i workbook.obj
 0001:000135c0       ??$construct@PAVrange_t@xlslib_core@@ABQAV12@@?$allocator_traits@V?$allocator@PAVrange_t@xlslib_core@@@std@@@std@@SAXAAV?$allocator@PAVrange_t@xlslib_core@@@1@PAPAVrange_t@xlslib_core@@ABQAV34@@Z 100145c0 f i sheetrec.obj
 0001:000135c0       ??$construct@PAVformat_t@xlslib_core@@AAPAV12@@?$allocator_traits@V?$allocator@PAVformat_t@xlslib_core@@@std@@@std@@SAXAAV?$allocator@PAVformat_t@xlslib_core@@@1@PAPAVformat_t@xlslib_core@@AAPAV34@@Z 100145c0 f i globalrec.obj
 0001:000135c0       ??$construct@PAUDataValidation@xlslib_core@@ABQAU12@@?$allocator_traits@V?$allocator@PAUDataValidation@xlslib_core@@@std@@@std@@SAXAAV?$allocator@PAUDataValidation@xlslib_core@@@1@PAPAUDataValidation@xlslib_core@@ABQAU34@@Z 100145c0 f i sheetrec.obj
 0001:000135c0       ??$construct@PAVxf_t@xlslib_core@@ABQAV12@@?$allocator_traits@V?$allocator@PAVxf_t@xlslib_core@@@std@@@std@@SAXAAV?$allocator@PAVxf_t@xlslib_core@@@1@PAPAVxf_t@xlslib_core@@ABQAV34@@Z 100145c0 f i globalrec.obj
 0001:000135c0       ??$construct@PAUDataValidation@xlslib_core@@AAPAU12@@?$allocator_traits@V?$allocator@PAUDataValidation@xlslib_core@@@std@@@std@@SAXAAV?$allocator@PAUDataValidation@xlslib_core@@@1@PAPAUDataValidation@xlslib_core@@AAPAU34@@Z 100145c0 f i sheetrec.obj
 0001:000135c0       ??$construct@PAVxf_t@xlslib_core@@AAPAV12@@?$allocator_traits@V?$allocator@PAVxf_t@xlslib_core@@@std@@@std@@SAXAAV?$allocator@PAVxf_t@xlslib_core@@@1@PAPAVxf_t@xlslib_core@@AAPAV34@@Z 100145c0 f i globalrec.obj
 0001:000135c0       ??$construct@PAVCUnit@xlslib_core@@ABQAV12@@?$allocator_traits@V?$allocator@PAVCUnit@xlslib_core@@@std@@@std@@SAXAAV?$allocator@PAVCUnit@xlslib_core@@@1@PAPAVCUnit@xlslib_core@@ABQAV34@@Z 100145c0 f i datast.obj
 0001:000135c0       ??$construct@PAUstyle_t@xlslib_core@@ABQAU12@@?$allocator_traits@V?$allocator@PAUstyle_t@xlslib_core@@@std@@@std@@SAXAAV?$allocator@PAUstyle_t@xlslib_core@@@1@PAPAUstyle_t@xlslib_core@@ABQAU34@@Z 100145c0 f i globalrec.obj
 0001:000135c0       ??$construct@PAVHPSFitem@xlslib_core@@ABQAV12@@?$allocator_traits@V?$allocator@U?$_Tree_node@PAVHPSFitem@xlslib_core@@PAX@std@@@std@@@std@@SAXAAV?$allocator@U?$_Tree_node@PAVHPSFitem@xlslib_core@@PAX@std@@@1@PAPAVHPSFitem@xlslib_core@@ABQAV34@@Z 100145c0 f i HPSF.obj
 0001:000135c0       ??$construct@PBVlabel_t@xlslib_core@@PBV12@@?$allocator_traits@V?$allocator@PBVlabel_t@xlslib_core@@@std@@@std@@SAXAAV?$allocator@PBVlabel_t@xlslib_core@@@1@PAPBVlabel_t@xlslib_core@@$$QAPBV34@@Z 100145c0 f i globalrec.obj
 0001:000135c0       ??$construct@PAVformula_t@xlslib_core@@AAPAV12@@?$allocator_traits@V?$allocator@PAVformula_t@xlslib_core@@@std@@@std@@SAXAAV?$allocator@PAVformula_t@xlslib_core@@@1@PAPAVformula_t@xlslib_core@@AAPAV34@@Z 100145c0 f i sheetrec.obj
 0001:000135c0       ??$construct@PAUcolinfo_t@xlslib_core@@ABQAU12@@?$allocator_traits@V?$allocator@U?$_Tree_node@PAUcolinfo_t@xlslib_core@@PAX@std@@@std@@@std@@SAXAAV?$allocator@U?$_Tree_node@PAUcolinfo_t@xlslib_core@@PAX@std@@@1@PAPAUcolinfo_t@xlslib_core@@ABQAU34@@Z 100145c0 f i sheetrec.obj
 0001:000135c0       ??$construct@PAU?$_Tree_node@PAVcell_t@xlslib_core@@PAX@std@@AAPAU12@@?$allocator_traits@V?$allocator@U?$_Tree_node@PAVcell_t@xlslib_core@@PAX@std@@@std@@@std@@SAXAAV?$allocator@U?$_Tree_node@PAVcell_t@xlslib_core@@PAX@std@@@1@PAPAU?$_Tree_node@PAVcell_t@xlslib_core@@PAX@1@AAPAU31@@Z 100145c0 f i sheetrec.obj
 0001:000135c0       ??$construct@PAVboundsheet_t@xlslib_core@@AAPAV12@@?$allocator_traits@V?$allocator@PAVboundsheet_t@xlslib_core@@@std@@@std@@SAXAAV?$allocator@PAVboundsheet_t@xlslib_core@@@1@PAPAVboundsheet_t@xlslib_core@@AAPAV34@@Z 100145c0 f i globalrec.obj
 0001:000135c0       ??$construct@PAVrange@xlslib_core@@ABQAV12@@?$allocator_traits@V?$allocator@PAVrange@xlslib_core@@@std@@@std@@SAXAAV?$allocator@PAVrange@xlslib_core@@@1@PAPAVrange@xlslib_core@@ABQAV34@@Z 100145c0 f i sheetrec.obj
 0001:000135c0       ??$construct@PAUHyperLink@xlslib_core@@ABQAU12@@?$allocator_traits@V?$allocator@PAUHyperLink@xlslib_core@@@std@@@std@@SAXAAV?$allocator@PAUHyperLink@xlslib_core@@@1@PAPAUHyperLink@xlslib_core@@ABQAU34@@Z 100145c0 f i sheetrec.obj
 0001:000135c0       ??$construct@PAVCUnit@xlslib_core@@AAPAV12@@?$allocator_traits@V?$allocator@PAVCUnit@xlslib_core@@@std@@@std@@SAXAAV?$allocator@PAVCUnit@xlslib_core@@@1@PAPAVCUnit@xlslib_core@@AAPAV34@@Z 100145c0 f i datast.obj
 0001:000135c0       ??$construct@PAU?$_Tree_node@U?$pair@PAVxf_t@xlslib_core@@UborderedXft@2@@std@@PAX@std@@AAPAU12@@?$allocator_traits@V?$allocator@U?$_Tree_node@U?$pair@PAVxf_t@xlslib_core@@UborderedXft@2@@std@@PAX@std@@@std@@@std@@SAXAAV?$allocator@U?$_Tree_node@U?$pair@PAVxf_t@xlslib_core@@UborderedXft@2@@std@@PAX@std@@@1@PAPAU?$_Tree_node@U?$pair@PAVxf_t@xlslib_core@@UborderedXft@2@@std@@PAX@1@AAPAU31@@Z 100145c0 f i range.obj
 0001:000135c0       ??$construct@PAVfont_t@xlslib_core@@ABQAV12@@?$allocator_traits@V?$allocator@PAVfont_t@xlslib_core@@@std@@@std@@SAXAAV?$allocator@PAVfont_t@xlslib_core@@@1@PAPAVfont_t@xlslib_core@@ABQAV34@@Z 100145c0 f i globalrec.obj
 0001:000135d0       ??_E?$basic_stringstream@DU?$char_traits@D@std@@V?$allocator@D@2@@std@@$4PPPPPPPM@A@AEPAXI@Z 100145d0 f i assert_assist.obj
 0001:000135e0       _xlsCellGetRow             100145e0 f i cbridge.obj
 0001:000135e0       ?GetRow@cell_t@xlslib_core@@QBEIXZ 100145e0 f i blank.obj
 0001:000135f0       ?GetDataSize@CDataStorage@xlslib_core@@QBEIXZ 100145f0 f i datast.obj
 0001:000135f0       ?size@?$basic_string@_SU?$char_traits@_S@std@@V?$allocator@_S@2@@std@@QBEIXZ 100145f0 f i note.obj
 0001:000135f0       ?size@?$basic_string@_WU?$char_traits@_W@std@@V?$allocator@_W@2@@std@@QBEIXZ 100145f0 f i globalrec.obj
 0001:000135f0       ?size@?$basic_string@DU?$char_traits@D@std@@V?$allocator@D@2@@std@@QBEIXZ 100145f0 f i globalrec.obj
 0001:000135f0       ?length@?$basic_string@DU?$char_traits@D@std@@V?$allocator@D@2@@std@@QBEIXZ 100145f0 f i globalrec.obj
 0001:000135f0       ?GetCol@cell_t@xlslib_core@@QBEIXZ 100145f0 f i blank.obj
 0001:000135f0       ?length@?$basic_string@_SU?$char_traits@_S@std@@V?$allocator@_S@2@@std@@QBEIXZ 100145f0 f i formula_cell.obj
 0001:000135f0       _xlsCellGetCol             100145f0 f i cbridge.obj
 0001:00013600       ?GetSize@blank_t@xlslib_core@@UBEIXZ 10014600 f i blank.obj
 0001:00013610       ??0blank_t@xlslib_core@@AAE@AAVCGlobalRecords@1@IIPAVxf_t@1@@Z 10014610 f   blank.obj
 0001:00013650       ??_Ecell_t@xlslib_core@@MAEPAXI@Z 10014650 f i * CIL library *:* CIL module *
 0001:00013650       ??_Gblank_t@xlslib_core@@EAEPAXI@Z 10014650 f i blank.obj
 0001:00013650       ??_Gcell_t@xlslib_core@@MAEPAXI@Z 10014650 f i cell.obj
 0001:00013650       ??_Eblank_t@xlslib_core@@EAEPAXI@Z 10014650 f i * CIL library *:* CIL module *
 0001:000136c0       ?GetData@blank_t@xlslib_core@@UBEPAVCUnit@2@AAVCDataStorage@2@@Z 100146c0 f   blank.obj
 0001:00013720       ??1cell_t@xlslib_core@@MAE@XZ 10014720 f   cell.obj
 0001:00013720       ??1number_t@xlslib_core@@EAE@XZ 10014720 f   number.obj
 0001:00013720       ??1err_t@xlslib_core@@EAE@XZ 10014720 f   err.obj
 0001:00013720       ??1blank_t@xlslib_core@@EAE@XZ 10014720 f   blank.obj
 0001:00013720       ??1boolean_t@xlslib_core@@EAE@XZ 10014720 f   boolean.obj
 0001:00013770       ??0CBlank@xlslib_core@@IAE@AAVCDataStorage@1@ABVblank_t@1@@Z 10014770 f   blank.obj
 0001:000138a0       ??_GCContinue@xlslib_core@@EAEPAXI@Z 100148a0 f i continue.obj
 0001:000138a0       ??_GCDBCell@xlslib_core@@EAEPAXI@Z 100148a0 f i row.obj
 0001:000138a0       ??_GCRow@xlslib_core@@EAEPAXI@Z 100148a0 f i row.obj
 0001:000138a0       ??_ECUnit@xlslib_core@@UAEPAXI@Z 100148a0 f i * CIL library *:* CIL module *
 0001:000138a0       ??_ECColInfo@xlslib_core@@EAEPAXI@Z 100148a0 f i * CIL library *:* CIL module *
 0001:000138a0       ??_GCDateMode@xlslib_core@@EAEPAXI@Z 100148a0 f i recdef.obj
 0001:000138a0       ??_ECIndex@xlslib_core@@EAEPAXI@Z 100148a0 f i * CIL library *:* CIL module *
 0001:000138a0       ??_GCNumber@xlslib_core@@EAEPAXI@Z 100148a0 f i number.obj
 0001:000138a0       ??_ECStyle@xlslib_core@@EAEPAXI@Z 100148a0 f i * CIL library *:* CIL module *
 0001:000138a0       ??_ECErr@xlslib_core@@EAEPAXI@Z 100148a0 f i * CIL library *:* CIL module *
 0001:000138a0       ??_ECDateMode@xlslib_core@@EAEPAXI@Z 100148a0 f i * CIL library *:* CIL module *
 0001:000138a0       ??_GCHPSFdoc@xlslib_core@@EAEPAXI@Z 100148a0 f i HPSF.obj
 0001:000138a0       ??_ECRecord@xlslib_core@@MAEPAXI@Z 100148a0 f i * CIL library *:* CIL module *
 0001:000138a0       ??_GCBlank@xlslib_core@@EAEPAXI@Z 100148a0 f i blank.obj
 0001:000138a0       ??_GCWindow2@xlslib_core@@EAEPAXI@Z 100148a0 f i recdef.obj
 0001:000138a0       ??_GCBof@xlslib_core@@EAEPAXI@Z 100148a0 f i recdef.obj
 0001:000138a0       ??_GCIndex@xlslib_core@@EAEPAXI@Z 100148a0 f i index.obj
 0001:000138a0       ??_GCExtFormat@xlslib_core@@EAEPAXI@Z 100148a0 f i extformat.obj
 0001:000138a0       ??_ECNote@xlslib_core@@EAEPAXI@Z 100148a0 f i * CIL library *:* CIL module *
 0001:000138a0       ??_ECFormula@xlslib_core@@EAEPAXI@Z 100148a0 f i * CIL library *:* CIL module *
 0001:000138a0       ??_GCEof@xlslib_core@@EAEPAXI@Z 100148a0 f i recdef.obj
 0001:000138a0       ??_GCFont@xlslib_core@@EAEPAXI@Z 100148a0 f i font.obj
 0001:000138a0       ??_GCStyle@xlslib_core@@EAEPAXI@Z 100148a0 f i recdef.obj
 0001:000138a0       ??_GCLabel@xlslib_core@@EAEPAXI@Z 100148a0 f i label.obj
 0001:000138a0       ??_ECNumber@xlslib_core@@EAEPAXI@Z 100148a0 f i * CIL library *:* CIL module *
 0001:000138a0       ??_GCWindow1@xlslib_core@@EAEPAXI@Z 100148a0 f i recdef.obj
 0001:000138a0       ??_GCUnit@xlslib_core@@UAEPAXI@Z 100148a0 f i unit.obj
 0001:000138a0       ??_ECPalette@xlslib_core@@EAEPAXI@Z 100148a0 f i * CIL library *:* CIL module *
 0001:000138a0       ??_GCCodePage@xlslib_core@@EAEPAXI@Z 100148a0 f i recdef.obj
 0001:000138a0       ??_ECWindow2@xlslib_core@@EAEPAXI@Z 100148a0 f i * CIL library *:* CIL module *
 0001:000138a0       ??_ECBoolean@xlslib_core@@EAEPAXI@Z 100148a0 f i * CIL library *:* CIL module *
 0001:000138a0       ??_GCMergedCells@xlslib_core@@EAEPAXI@Z 100148a0 f i merged.obj
 0001:000138a0       ??_GCErr@xlslib_core@@EAEPAXI@Z 100148a0 f i err.obj
 0001:000138a0       ??_GCPalette@xlslib_core@@EAEPAXI@Z 100148a0 f i colors.obj
 0001:000138a0       ??_GCRecord@xlslib_core@@MAEPAXI@Z 100148a0 f i record.obj
 0001:000138a0       ??_ECDBCell@xlslib_core@@EAEPAXI@Z 100148a0 f i * CIL library *:* CIL module *
 0001:000138a0       ??_GCBSheet@xlslib_core@@EAEPAXI@Z 100148a0 f i recdef.obj
 0001:000138a0       ??_ECBSheet@xlslib_core@@EAEPAXI@Z 100148a0 f i * CIL library *:* CIL module *
 0001:000138a0       ??_GCNote@xlslib_core@@EAEPAXI@Z 100148a0 f i note.obj
 0001:000138a0       ??_GCFormula@xlslib_core@@EAEPAXI@Z 100148a0 f i formula_cell.obj
 0001:000138a0       ??_GCColInfo@xlslib_core@@EAEPAXI@Z 100148a0 f i colinfo.obj
 0001:000138a0       ??_GCFormat@xlslib_core@@EAEPAXI@Z 100148a0 f i format.obj
 0001:000138a0       ??_ECContinue@xlslib_core@@EAEPAXI@Z 100148a0 f i * CIL library *:* CIL module *
 0001:000138a0       ??_ECBof@xlslib_core@@EAEPAXI@Z 100148a0 f i * CIL library *:* CIL module *
 0001:000138a0       ??_GCBoolean@xlslib_core@@EAEPAXI@Z 100148a0 f i boolean.obj
 0001:000138a0       ??_ECExtFormat@xlslib_core@@EAEPAXI@Z 100148a0 f i * CIL library *:* CIL module *
 0001:000138a0       ??_ECFont@xlslib_core@@EAEPAXI@Z 100148a0 f i * CIL library *:* CIL module *
 0001:000138a0       ??_ECRow@xlslib_core@@EAEPAXI@Z 100148a0 f i * CIL library *:* CIL module *
 0001:000138a0       ??_ECCodePage@xlslib_core@@EAEPAXI@Z 100148a0 f i * CIL library *:* CIL module *
 0001:000138a0       ??_ECEof@xlslib_core@@EAEPAXI@Z 100148a0 f i * CIL library *:* CIL module *
 0001:000138a0       ??_ECBlank@xlslib_core@@EAEPAXI@Z 100148a0 f i * CIL library *:* CIL module *
 0001:000138a0       ??_ECLabel@xlslib_core@@EAEPAXI@Z 100148a0 f i * CIL library *:* CIL module *
 0001:000138a0       ??_ECFormat@xlslib_core@@EAEPAXI@Z 100148a0 f i * CIL library *:* CIL module *
 0001:000138a0       ??_ECHPSFdoc@xlslib_core@@EAEPAXI@Z 100148a0 f i * CIL library *:* CIL module *
 0001:000138a0       ??_ECWindow1@xlslib_core@@EAEPAXI@Z 100148a0 f i * CIL library *:* CIL module *
 0001:000138a0       ??_ECDimension@xlslib_core@@EAEPAXI@Z 100148a0 f i * CIL library *:* CIL module *
 0001:000138a0       ??_ECMergedCells@xlslib_core@@EAEPAXI@Z 100148a0 f i * CIL library *:* CIL module *
 0001:000138a0       ??_GCDimension@xlslib_core@@EAEPAXI@Z 100148a0 f i recdef.obj
 0001:000138d0       ??1CRecord@xlslib_core@@MAE@XZ 100148d0 f   record.obj
 0001:000138d0       ??1CExtFormat@xlslib_core@@EAE@XZ 100148d0 f   extformat.obj
 0001:000138d0       ??1CMergedCells@xlslib_core@@EAE@XZ 100148d0 f   merged.obj
 0001:000138d0       ??1CPalette@xlslib_core@@EAE@XZ 100148d0 f   colors.obj
 0001:000138d0       ??1CFont@xlslib_core@@EAE@XZ 100148d0 f   font.obj
 0001:000138d0       ??1CFormula@xlslib_core@@EAE@XZ 100148d0 f   formula_cell.obj
 0001:000138d0       ??1CDBCell@xlslib_core@@EAE@XZ 100148d0 f   row.obj
 0001:000138d0       ??1CBSheet@xlslib_core@@EAE@XZ 100148d0 f   recdef.obj
 0001:000138d0       ??1CUnit@xlslib_core@@UAE@XZ 100148d0 f   unit.obj
 0001:000138d0       ??1CWindow2@xlslib_core@@EAE@XZ 100148d0 f   recdef.obj
 0001:000138d0       ??1CWindow1@xlslib_core@@EAE@XZ 100148d0 f   recdef.obj
 0001:000138d0       ??1CNote@xlslib_core@@EAE@XZ 100148d0 f   note.obj
 0001:000138d0       ??1CColInfo@xlslib_core@@EAE@XZ 100148d0 f   colinfo.obj
 0001:000138d0       ??1CErr@xlslib_core@@EAE@XZ 100148d0 f   err.obj
 0001:000138d0       ??1CContinue@xlslib_core@@EAE@XZ 100148d0 f   continue.obj
 0001:000138d0       ??1CStyle@xlslib_core@@EAE@XZ 100148d0 f   recdef.obj
 0001:000138d0       ??1CIndex@xlslib_core@@EAE@XZ 100148d0 f   index.obj
 0001:000138d0       ??1CEof@xlslib_core@@EAE@XZ 100148d0 f   recdef.obj
 0001:000138d0       ??1CHPSFdoc@xlslib_core@@EAE@XZ 100148d0 f   HPSF.obj
 0001:000138d0       ??1CDateMode@xlslib_core@@EAE@XZ 100148d0 f   recdef.obj
 0001:000138d0       ??1CRow@xlslib_core@@EAE@XZ 100148d0 f   row.obj
 0001:000138d0       ??1CLabel@xlslib_core@@EAE@XZ 100148d0 f   label.obj
 0001:000138d0       ??1CFormat@xlslib_core@@EAE@XZ 100148d0 f   format.obj
 0001:000138d0       ??1CDimension@xlslib_core@@EAE@XZ 100148d0 f   recdef.obj
 0001:000138d0       ??1CNumber@xlslib_core@@EAE@XZ 100148d0 f   number.obj
 0001:000138d0       ??1CBof@xlslib_core@@EAE@XZ 100148d0 f   recdef.obj
 0001:000138d0       ??1CBoolean@xlslib_core@@EAE@XZ 100148d0 f   boolean.obj
 0001:000138d0       ??1CCodePage@xlslib_core@@EAE@XZ 100148d0 f   recdef.obj
 0001:000138d0       ??1CBlank@xlslib_core@@EAE@XZ 100148d0 f   blank.obj
 0001:000138e0       ?GetSize@note_t@xlslib_core@@UBEIXZ 100148e0 f i note.obj
 0001:000138e0       ?GetSize@err_t@xlslib_core@@UBEIXZ 100148e0 f i err.obj
 0001:000138e0       ?GetSize@boolean_t@xlslib_core@@UBEIXZ 100148e0 f i boolean.obj
 0001:000138f0       ?GetBoolean@boolean_t@xlslib_core@@QBE_NXZ 100148f0 f i boolean.obj
 0001:00013900       ??_Eerr_t@xlslib_core@@EAEPAXI@Z 10014900 f i * CIL library *:* CIL module *
 0001:00013900       ??_Gerr_t@xlslib_core@@EAEPAXI@Z 10014900 f i err.obj
 0001:00013900       ??_Gboolean_t@xlslib_core@@EAEPAXI@Z 10014900 f i boolean.obj
 0001:00013900       ??_Eboolean_t@xlslib_core@@EAEPAXI@Z 10014900 f i * CIL library *:* CIL module *
 0001:00013970       ??0boolean_t@xlslib_core@@AAE@AAVCGlobalRecords@1@II_NPAVxf_t@1@@Z 10014970 f   boolean.obj
 0001:000139b0       ?GetData@boolean_t@xlslib_core@@UBEPAVCUnit@2@AAVCDataStorage@2@@Z 100149b0 f   boolean.obj
 0001:00013a10       ??0CBoolean@xlslib_core@@IAE@AAVCDataStorage@1@ABVboolean_t@1@@Z 10014a10 f   boolean.obj
 0001:00013b60       _wmemcpy                   10014b60 f i cbridge.obj
 0001:00013b80       _wmemmove                  10014b80 f i cbridge.obj
 0001:00013ba0       _wmemset                   10014ba0 f i cbridge.obj
 0001:00013bb0       ?length@?$char_traits@_W@std@@SAIPB_W@Z 10014bb0 f i cbridge.obj
 0001:00013be0       ?copy@?$char_traits@_W@std@@SAPA_WPA_WPB_WI@Z 10014be0 f i cbridge.obj
 0001:00013c00       ?move@?$char_traits@_W@std@@SAPA_WPA_WPB_WI@Z 10014c00 f i cbridge.obj
 0001:00013c20       ?assign@?$char_traits@_W@std@@SAPA_WPA_WI_W@Z 10014c20 f i cbridge.obj
 0001:00013c20       ?assign@?$_Char_traits@_SG@std@@SAPA_SPA_SI_S@Z 10014c20 f i note.obj
 0001:00013c30       ?assign@?$_Char_traits@_SG@std@@SAXAA_SAB_S@Z 10014c30 f i datast.obj
 0001:00013c30       ?assign@?$char_traits@_W@std@@SAXAA_WAB_W@Z 10014c30 f i cbridge.obj
 0001:00013c40       ?length@?$char_traits@D@std@@SAIPBD@Z 10014c40 f i cbridge.obj
 0001:00013c60       ?assign@?$char_traits@D@std@@SAPADPADID@Z 10014c60 f i cbridge.obj
 0001:00013c80       ??0range_t@xlslib_core@@QAE@XZ 10014c80 f i cbridge.obj
 0001:00013cb0       ??1range_t@xlslib_core@@UAE@XZ 10014cb0 f i cbridge.obj
 0001:00013cc0       ??_Grange_t@xlslib_core@@UAEPAXI@Z 10014cc0 f i cbridge.obj
 0001:00013cc0       ??_Erange_t@xlslib_core@@UAEPAXI@Z 10014cc0 f i * CIL library *:* CIL module *
 0001:00013cf0       ?SetFillColor@note_t@xlslib_core@@QAEXEEE@Z 10014cf0 f i cbridge.obj
 0001:00013d10       ?SplitWindow@worksheet@xlslib_core@@QAEXGG@Z 10014d10 f i cbridge.obj
 0001:00013d30       _xlsNewWorkbook            10014d30 f   cbridge.obj
 0001:00013d50       _xlsDeleteWorkbook         10014d50 f   cbridge.obj
 0001:00013d60       _xlsWorkbookSheet          10014d60 f   cbridge.obj
 0001:00013de0       _xlsWorkbookSheetW         10014de0 f   cbridge.obj
 0001:00013e60       _xlsWorkbookGetSheet       10014e60 f   cbridge.obj
 0001:00013e90       _xlsWorkbookFont           10014e90 f   cbridge.obj
 0001:00013f10       _xlsWorkbookFormat         10014f10 f   cbridge.obj
 0001:00013f90       _xlsWorkbookFormatW        10014f90 f   cbridge.obj
 0001:00014010       _xlsWorkbookxFormat        10015010 f   cbridge.obj
 0001:00014030       _xlsWorkbookxFormatFont    10015030 f   cbridge.obj
 0001:00014040       _xlsWorkbookIconvInType    10015040 f   cbridge.obj
 0001:00014050       _xlsWorkbookProperty       10015050 f   cbridge.obj
 0001:00014120       _xlsWorkBookWindPosition   10015120 f   cbridge.obj
 0001:00014140       _xlsWorkBookWindSize       10015140 f   cbridge.obj
 0001:00014160       _xlsWorkBookFirstTab       10015160 f   cbridge.obj
 0001:00014170       _xlsWorkBookTabBarWidth    10015170 f   cbridge.obj
 0001:00014190       _xlsWorkbookDump           10015190 f   cbridge.obj
 0001:00014210       ?MakeActive@worksheet@xlslib_core@@QAEXXZ 10015210 f   sheetrec.obj
 0001:00014210       _xlsWorksheetMakeActive    10015210 f   cbridge.obj
 0001:00014220       _xlsWorksheetFindCell      10015220 f   cbridge.obj
 0001:00014230       _xlsWorksheetSplitWindow   10015230 f   cbridge.obj
 0001:00014250       _xlsWorksheetMerge         10015250 f   cbridge.obj
 0001:00014270       _xlsWorksheetColwidth      10015270 f   cbridge.obj
 0001:00014290       _xlsWorksheetRowheight     10015290 f   cbridge.obj
 0001:000142b0       _xlsWorksheetRangegroup    100152b0 f   cbridge.obj
 0001:000142d0       _xlsWorksheetLabel         100152d0 f   cbridge.obj
 0001:000143e0       _xlsWorksheetLabelW        100153e0 f   cbridge.obj
 0001:00014500       _xlsWorksheetBlank         10015500 f   cbridge.obj
 0001:00014550       _xlsWorksheetNumberDbl     10015550 f   cbridge.obj
 0001:000145b0       _xlsWorksheetNumberInt     100155b0 f   cbridge.obj
 0001:000145d0       _xlsWorksheetBoolean       100155d0 f   cbridge.obj
 0001:00014630       _xlsWorksheetError         10015630 f   cbridge.obj
 0001:00014690       _xlsWorksheetNote          10015690 f   cbridge.obj
 0001:000147b0       _xlsWorksheetNoteW         100157b0 f   cbridge.obj
 0001:000148e0       _xlsNoteSetFillColor       100158e0 f   cbridge.obj
 0001:00014900       _xlsWorksheetFormula       10015900 f   cbridge.obj
 0001:00014910       _xlsFormulaPushBoolean     10015910 f   cbridge.obj
 0001:00014940       ?PushMissingArgument@formula_t@xlslib_core@@QAEDXZ 10015940 f   formula.obj
 0001:00014940       _xlsFormulaPushMissingArgument 10015940 f   cbridge.obj
 0001:00014950       _xlsFormulaPushError       10015950 f   cbridge.obj
 0001:00014970       _xlsFormulaPushNumberInt   10015970 f   cbridge.obj
 0001:00014980       _xlsFormulaPushNumberDbl   10015980 f   cbridge.obj
 0001:000149c0       _xlsFormulaPushNumberArray 100159c0 f   cbridge.obj
 0001:00014b60       _xlsFormulaPushOperator    10015b60 f   cbridge.obj
 0001:00014b70       _xlsFormulaPushCellReference 10015b70 f   cbridge.obj
 0001:00014bb0       _xlsFormulaPushCellAreaReference 10015bb0 f   cbridge.obj
 0001:00014bf0       _xlsFormulaPushCellReferenceC 10015bf0 f   cbridge.obj
 0001:00014c30       _xlsFormulaPushCellAreaReferenceC 10015c30 f   cbridge.obj
 0001:00014c70       _xlsFormulaPushFunction    10015c70 f   cbridge.obj
 0001:00014c80       _xlsFormulaPushFunctionV   10015c80 f   cbridge.obj
 0001:00014c90       _xlsFormulaPushFunctionC   10015c90 f   cbridge.obj
 0001:00014ca0       _xlsFormulaPushFunctionVC  10015ca0 f   cbridge.obj
 0001:00014cc0       _xlsFormulaPushCharacterArray 10015cc0 f   cbridge.obj
 0001:00014ea0       _xlsFormulaPushCharacterArrayW 10015ea0 f   cbridge.obj
 0001:000150a0       _xlsFormulaPushText        100160a0 f   cbridge.obj
 0001:00015160       _xlsFormulaPushTextW       10016160 f   cbridge.obj
 0001:00015220       _xlsFormulaPushTextArray   10016220 f   cbridge.obj
 0001:00015390       _xlsFormulaPushTextArrayW  10016390 f   cbridge.obj
 0001:00015510       _xlsWorksheetFormulaCell   10016510 f   cbridge.obj
 0001:00015580       _xlsWorksheetFormulaCellArray 10016580 f   cbridge.obj
 0001:000155f0       _xlsWorksheetValidateCell  100165f0 f   cbridge.obj
 0001:00015820       _xlsWorksheetValidateCellW 10016820 f   cbridge.obj
 0001:00015a70       _xlsWorksheetValidateCellArea 10016a70 f   cbridge.obj
 0001:00015ca0       _xlsWorksheetValidateCellAreaW 10016ca0 f   cbridge.obj
 0001:00015f00       _xlsWorksheetHyperLink     10016f00 f   cbridge.obj
 0001:00015ff0       _xlsWorksheetHyperLinkW    10016ff0 f   cbridge.obj
 0001:000160f0       _xlsCellFont               100170f0 f   cbridge.obj
 0001:00016100       _xlsCellFormat             10017100 f   cbridge.obj
 0001:00016110       _xlsCellFormatP            10017110 f   cbridge.obj
 0001:00016120       _xlsCellHalign             10017120 f   cbridge.obj
 0001:00016130       _xlsCellValign             10017130 f   cbridge.obj
 0001:00016140       _xlsCellIndent             10017140 f   cbridge.obj
 0001:00016150       _xlsCellOrientation        10017150 f   cbridge.obj
 0001:00016160       _xlsCellFillfgcolor        10017160 f   cbridge.obj
 0001:00016170       _xlsCellFillbgcolor        10017170 f   cbridge.obj
 0001:00016180       _xlsCellFillstyle          10017180 f   cbridge.obj
 0001:00016190       _xlsCellLocked             10017190 f   cbridge.obj
 0001:000161a0       _xlsCellHidden             100171a0 f   cbridge.obj
 0001:000161b0       _xlsCellWrap               100171b0 f   cbridge.obj
 0001:000161c0       _xlsCellBorderstyle        100171c0 f   cbridge.obj
 0001:000161d0       _xlsCellBordercolor        100171d0 f   cbridge.obj
 0001:000161e0       _xlsCellBordercolorIdx     100171e0 f   cbridge.obj
 0001:000161f0       _xlsCellFontname           100171f0 f   cbridge.obj
 0001:00016280       _xlsCellFontheight         10017280 f   cbridge.obj
 0001:000162a0       _xlsCellFontbold           100172a0 f   cbridge.obj
 0001:000162c0       _xlsCellFontunderline      100172c0 f   cbridge.obj
 0001:000162e0       _xlsCellFontscript         100172e0 f   cbridge.obj
 0001:00016300       _xlsCellFontcolor          10017300 f   cbridge.obj
 0001:00016320       _xlsCellFontitalic         10017320 f   cbridge.obj
 0001:00016350       _xlsCellFontstrikeout      10017350 f   cbridge.obj
 0001:00016380       _xlsCellFontoutline        10017380 f   cbridge.obj
 0001:000163b0       _xlsCellFontshadow         100173b0 f   cbridge.obj
 0001:000163e0       _xlsRangeCellcolor         100173e0 f   cbridge.obj
 0001:000163f0       _xlsXformatSetFont         100173f0 f   cbridge.obj
 0001:00016430       _xlsXformatGetFontIndex    10017430 f   cbridge.obj
 0001:00016440       _xlsXformatGetFont         10017440 f   cbridge.obj
 0001:00016440       ?GetFont@xf_t@xlslib_core@@QBEPAVfont_t@2@XZ 10017440 f   extformat.obj
 0001:00016450       _xlsXformatSetFormat       10017450 f   cbridge.obj
 0001:00016490       _xlsXformatSetFormatP      10017490 f   cbridge.obj
 0001:000164e0       _xlsXformatSetHAlign       100174e0 f   cbridge.obj
 0001:00016510       ?GetHAlign@xf_t@xlslib_core@@QBEEXZ 10017510 f   extformat.obj
 0001:00016510       _xlsXformatGetHAlign       10017510 f   cbridge.obj
 0001:00016520       _xlsXformatSetVAlign       10017520 f   cbridge.obj
 0001:00016550       _xlsXformatGetVAlign       10017550 f   cbridge.obj
 0001:00016550       ?GetVAlign@xf_t@xlslib_core@@QBEEXZ 10017550 f   extformat.obj
 0001:00016560       _xlsXformatSetIndent       10017560 f   cbridge.obj
 0001:00016590       ?GetIndent@xf_t@xlslib_core@@QBEEXZ 10017590 f   extformat.obj
 0001:00016590       _xlsXformatGetIndent       10017590 f   cbridge.obj
 0001:000165a0       _xlsXformatSetTxtOrientation 100175a0 f   cbridge.obj
 0001:000165d0       ?GetTxtOrientation@xf_t@xlslib_core@@QBEEXZ 100175d0 f   extformat.obj
 0001:000165d0       _xlsXformatGetTxtOrientation 100175d0 f   cbridge.obj
 0001:000165e0       _xlsXformatSetFillFGColor  100175e0 f   cbridge.obj
 0001:00016610       _xlsXformatGetFillFGColorIdx 10017610 f   cbridge.obj
 0001:00016610       ?GetFillFGColorIdx@xf_t@xlslib_core@@QBEGXZ 10017610 f   extformat.obj
 0001:00016620       _xlsXformatSetFillBGColor  10017620 f   cbridge.obj
 0001:00016650       _xlsXformatGetFillBGColorIdx 10017650 f   cbridge.obj
 0001:00016650       ?GetFillBGColorIdx@xf_t@xlslib_core@@QBEGXZ 10017650 f   extformat.obj
 0001:00016660       _xlsXformatSetFillStyle    10017660 f   cbridge.obj
 0001:00016690       _xlsXformatGetFillStyle    10017690 f   cbridge.obj
 0001:00016690       ?GetFillStyle@xf_t@xlslib_core@@QBEEXZ 10017690 f   extformat.obj
 0001:000166a0       _xlsXformatSetLocked       100176a0 f   cbridge.obj
 0001:000166d0       ?IsLocked@xf_t@xlslib_core@@QBE_NXZ 100176d0 f   extformat.obj
 0001:000166d0       _xlsXformatIsLocked        100176d0 f   cbridge.obj
 0001:000166e0       _xlsXformatSetHidden       100176e0 f   cbridge.obj
 0001:00016720       ?IsHidden@xf_t@xlslib_core@@QBE_NXZ 10017720 f   extformat.obj
 0001:00016720       _xlsXformatIsHidden        10017720 f   cbridge.obj
 0001:00016730       _xlsXformatSetWrap         10017730 f   cbridge.obj
 0001:00016770       ?IsWrap@xf_t@xlslib_core@@QBE_NXZ 10017770 f   extformat.obj
 0001:00016770       _xlsXformatIsWrap          10017770 f   cbridge.obj
 0001:00016780       _xlsXformatSetBorderStyle  10017780 f   cbridge.obj
 0001:000167c0       _xlsXformatSetBorderColor  100177c0 f   cbridge.obj
 0001:000167f0       _xlsXformatSetBorderColorIdx 100177f0 f   cbridge.obj
 0001:00016820       _xlsXformatGetBorderStyle  10017820 f   cbridge.obj
 0001:00016830       _xlsXformatGetBorderColorIdx 10017830 f   cbridge.obj
 0001:00016840       _xlsFontSetName            10017840 f   cbridge.obj
 0001:000168c0       _xlsFontGetName            100178c0 f   cbridge.obj
 0001:00016910       _xlsFontSetHeight          10017910 f   cbridge.obj
 0001:00016920       ?GetNoteCount@boundsheet_t@xlslib_core@@QBEGXZ 10017920 f   datast.obj
 0001:00016920       ?GetHeight@font_t@xlslib_core@@QBEGXZ 10017920 f   font.obj
 0001:00016920       _xlsFontGetHeight          10017920 f   cbridge.obj
 0001:00016930       _xlsFontSetBoldStyle       10017930 f   cbridge.obj
 0001:00016940       ?GetBoldStyle@font_t@xlslib_core@@QBEGXZ 10017940 f   font.obj
 0001:00016940       _xlsFontGetBoldStyle       10017940 f   cbridge.obj
 0001:00016950       _xlsFontSetUnderlineStyle  10017950 f   cbridge.obj
 0001:00016960       ?GetUnderlineStyle@font_t@xlslib_core@@QBEEXZ 10017960 f   font.obj
 0001:00016960       _xlsFontGetUnderlineStyle  10017960 f   cbridge.obj
 0001:00016970       _xlsFontSetScriptStyle     10017970 f   cbridge.obj
 0001:00016980       _xlsFontGetScriptStyle     10017980 f   cbridge.obj
 0001:00016980       ?GetScriptStyle@font_t@xlslib_core@@QBEGXZ 10017980 f   font.obj
 0001:00016990       _xlsFontSetColor           10017990 f   cbridge.obj
 0001:000169a0       ?GetColorIdx@font_t@xlslib_core@@QBEGXZ 100179a0 f   font.obj
 0001:000169a0       _xlsFontGetColorIdx        100179a0 f   cbridge.obj
 0001:000169b0       _xlsFontSetItalic          100179b0 f   cbridge.obj
 0001:000169d0       _xlsFontSetStrikeout       100179d0 f   cbridge.obj
 0001:000169f0       _xlsFontSetOutline         100179f0 f   cbridge.obj
 0001:00016a10       _xlsFontSetShadow          10017a10 f   cbridge.obj
 0001:00016a30       ?GetAttributes@font_t@xlslib_core@@QBEGXZ 10017a30 f   font.obj
 0001:00016a30       _xlsFontGetAttributes      10017a30 f   cbridge.obj
 0001:00016a40       _xlsXformatIsCell          10017a40 f   cbridge.obj
 0001:00016a40       ?IsCell@xf_t@xlslib_core@@QBE_NXZ 10017a40 f   extformat.obj
 0001:00016a50       _xlsXformatSetCellMode     10017a50 f   cbridge.obj
 0001:00016a60       ?GetFormatIndex@xf_t@xlslib_core@@QBEGXZ 10017a60 f   extformat.obj
 0001:00016a60       _xlsXformatGetFormatIndex  10017a60 f   cbridge.obj
 0001:00016a70       ?GetFormat@xf_t@xlslib_core@@QBE?AW4format_number_t@2@XZ 10017a70 f   extformat.obj
 0001:00016a70       _xlsXformatGetFormat       10017a70 f   cbridge.obj
 0001:00016aa0       _xlsCellSetXF              10017aa0 f   cbridge.obj
 0001:00016b00       ?GetXFIndex@cell_t@xlslib_core@@QBEGXZ 10017b00 f   cell.obj
 0001:00016b00       _xlsCellGetXFIndex         10017b00 f   cbridge.obj
 0001:00016b10       ?push_back@?$vector@NV?$allocator@N@std@@@std@@QAEXABN@Z 10017b10 f i cbridge.obj
 0001:00016b80       ??1?$vector@NV?$allocator@N@std@@@std@@QAE@XZ 10017b80 f i cbridge.obj
 0001:00016b80       ?_Tidy@?$vector@NV?$allocator@N@std@@@std@@IAEXXZ 10017b80 f i cbridge.obj
 0001:00016bb0       ??0?$_Vector_alloc@U?$_Vec_base_types@IV?$allocator@I@std@@@std@@@std@@QAE@XZ 10017bb0 f i sheetrec.obj
 0001:00016bb0       ??0?$_Vector_val@U?$_Simple_types@VCUnitStore@xlslib_core@@@std@@@std@@QAE@XZ 10017bb0 f i datast.obj
 0001:00016bb0       ??0?$vector@PAVCOleProp@xlslib_core@@V?$allocator@PAVCOleProp@xlslib_core@@@std@@@std@@QAE@XZ 10017bb0 f i oledoc.obj
 0001:00016bb0       ??0?$_Vector_alloc@U?$_Vec_base_types@VCUnitStore@xlslib_core@@V?$allocator@VCUnitStore@xlslib_core@@@std@@@std@@@std@@QAE@XZ 10017bb0 f i datast.obj
 0001:00016bb0       ??0?$_Vector_alloc@U?$_Vec_base_types@PAVboundsheet_t@xlslib_core@@V?$allocator@PAVboundsheet_t@xlslib_core@@@std@@@std@@@std@@QAE@XZ 10017bb0 f i globalrec.obj
 0001:00016bb0       ??0?$_Vector_alloc@U?$_Vec_base_types@PAUHyperLink@xlslib_core@@V?$allocator@PAUHyperLink@xlslib_core@@@std@@@std@@@std@@QAE@XZ 10017bb0 f i sheetrec.obj
 0001:00016bb0       ??0?$_Vector_alloc@U?$_Vec_base_types@PAUstyle_t@xlslib_core@@V?$allocator@PAUstyle_t@xlslib_core@@@std@@@std@@@std@@QAE@XZ 10017bb0 f i globalrec.obj
 0001:00016bb0       ??0?$_Vector_val@U?$_Simple_types@PAVxf_t@xlslib_core@@@std@@@std@@QAE@XZ 10017bb0 f i globalrec.obj
 0001:00016bb0       ??0?$vector@PAVxf_t@xlslib_core@@V?$allocator@PAVxf_t@xlslib_core@@@std@@@std@@QAE@XZ 10017bb0 f i globalrec.obj
 0001:00016bb0       ??0?$vector@PBVlabel_t@xlslib_core@@V?$allocator@PBVlabel_t@xlslib_core@@@std@@@std@@QAE@XZ 10017bb0 f i globalrec.obj
 0001:00016bb0       ??0?$vector@PAVfont_t@xlslib_core@@V?$allocator@PAVfont_t@xlslib_core@@@std@@@std@@QAE@XZ 10017bb0 f i globalrec.obj
 0001:00016bb0       ??0?$_Vector_val@U?$_Simple_types@I@std@@@std@@QAE@XZ 10017bb0 f i sheetrec.obj
 0001:00016bb0       ??0?$_Vector_val@U?$_Simple_types@N@std@@@std@@QAE@XZ 10017bb0 f i cbridge.obj
 0001:00016bb0       ??0?$vector@PAVworksheet@xlslib_core@@V?$allocator@PAVworksheet@xlslib_core@@@std@@@std@@QAE@XZ 10017bb0 f i workbook.obj
 0001:00016bb0       ??0?$vector@PAUDataValidation@xlslib_core@@V?$allocator@PAUDataValidation@xlslib_core@@@std@@@std@@QAE@XZ 10017bb0 f i sheetrec.obj
 0001:00016bb0       ??0?$_Vector_alloc@U?$_Vec_base_types@V?$basic_string@DU?$char_traits@D@std@@V?$allocator@D@2@@std@@V?$allocator@V?$basic_string@DU?$char_traits@D@std@@V?$allocator@D@2@@std@@@2@@std@@@std@@QAE@XZ 10017bb0 f i cbridge.obj
 0001:00016bb0       ??0?$vector@PAVboundsheet_t@xlslib_core@@V?$allocator@PAVboundsheet_t@xlslib_core@@@std@@@std@@QAE@XZ 10017bb0 f i globalrec.obj
 0001:00016bb0       ??0?$_Vector_val@U?$_Simple_types@V?$basic_string@DU?$char_traits@D@std@@V?$allocator@D@2@@std@@@std@@@std@@QAE@XZ 10017bb0 f i cbridge.obj
 0001:00016bb0       ??0?$vector@PAUHyperLink@xlslib_core@@V?$allocator@PAUHyperLink@xlslib_core@@@std@@@std@@QAE@XZ 10017bb0 f i sheetrec.obj
 0001:00016bb0       ??0?$vector@NV?$allocator@N@std@@@std@@QAE@XZ 10017bb0 f i cbridge.obj
 0001:00016bb0       ??0?$vector@PAVrange_t@xlslib_core@@V?$allocator@PAVrange_t@xlslib_core@@@std@@@std@@QAE@XZ 10017bb0 f i sheetrec.obj
 0001:00016bb0       ??0?$_Vector_alloc@U?$_Vec_base_types@PAVfont_t@xlslib_core@@V?$allocator@PAVfont_t@xlslib_core@@@std@@@std@@@std@@QAE@XZ 10017bb0 f i globalrec.obj
 0001:00016bb0       ??0?$_Vector_val@U?$_Simple_types@PAVCOleProp@xlslib_core@@@std@@@std@@QAE@XZ 10017bb0 f i oledoc.obj
 0001:00016bb0       ??0?$_Vector_alloc@U?$_Vec_base_types@PBVlabel_t@xlslib_core@@V?$allocator@PBVlabel_t@xlslib_core@@@std@@@std@@@std@@QAE@XZ 10017bb0 f i globalrec.obj
 0001:00016bb0       ??0?$vector@PAVformat_t@xlslib_core@@V?$allocator@PAVformat_t@xlslib_core@@@std@@@std@@QAE@XZ 10017bb0 f i globalrec.obj
 0001:00016bb0       ??0?$_Vector_val@U?$_Simple_types@PBVlabel_t@xlslib_core@@@std@@@std@@QAE@XZ 10017bb0 f i globalrec.obj
 0001:00016bb0       ??0?$vector@VCUnitStore@xlslib_core@@V?$allocator@VCUnitStore@xlslib_core@@@std@@@std@@QAE@XZ 10017bb0 f i datast.obj
 0001:00016bb0       ??0?$vector@V?$basic_string@_WU?$char_traits@_W@std@@V?$allocator@_W@2@@std@@V?$allocator@V?$basic_string@_WU?$char_traits@_W@std@@V?$allocator@_W@2@@std@@@2@@std@@QAE@XZ 10017bb0 f i cbridge.obj
 0001:00016bb0       ??0?$_Vector_alloc@U?$_Vec_base_types@V?$basic_string@_WU?$char_traits@_W@std@@V?$allocator@_W@2@@std@@V?$allocator@V?$basic_string@_WU?$char_traits@_W@std@@V?$allocator@_W@2@@std@@@2@@std@@@std@@QAE@XZ 10017bb0 f i cbridge.obj
 0001:00016bb0       ??0?$_Vector_alloc@U?$_Vec_base_types@PAVCUnit@xlslib_core@@V?$allocator@PAVCUnit@xlslib_core@@@std@@@std@@@std@@QAE@XZ 10017bb0 f i datast.obj
 0001:00016bb0       ??0?$_Vector_alloc@U?$_Vec_base_types@PAVCOleProp@xlslib_core@@V?$allocator@PAVCOleProp@xlslib_core@@@std@@@std@@@std@@QAE@XZ 10017bb0 f i oledoc.obj
 0001:00016bb0       ??0?$_Vector_val@U?$_Simple_types@PAVfont_t@xlslib_core@@@std@@@std@@QAE@XZ 10017bb0 f i globalrec.obj
 0001:00016bb0       ??0?$_Vector_val@U?$_Simple_types@PAUHyperLink@xlslib_core@@@std@@@std@@QAE@XZ 10017bb0 f i sheetrec.obj
 0001:00016bb0       ??0?$_Vector_alloc@U?$_Vec_base_types@Urowblocksize_t@xlslib_core@@V?$allocator@Urowblocksize_t@xlslib_core@@@std@@@std@@@std@@QAE@XZ 10017bb0 f i sheetrec.obj
 0001:00016bb0       ??0?$_Vector_val@U?$_Simple_types@V?$basic_string@_WU?$char_traits@_W@std@@V?$allocator@_W@2@@std@@@std@@@std@@QAE@XZ 10017bb0 f i cbridge.obj
 0001:00016bb0       ??0?$_Vector_val@U?$_Simple_types@PAVworksheet@xlslib_core@@@std@@@std@@QAE@XZ 10017bb0 f i workbook.obj
 0001:00016bb0       ??0?$_Vector_alloc@U?$_Vec_base_types@NV?$allocator@N@std@@@std@@@std@@QAE@XZ 10017bb0 f i cbridge.obj
 0001:00016bb0       ??0?$vector@PAVCUnit@xlslib_core@@V?$allocator@PAVCUnit@xlslib_core@@@std@@@std@@QAE@XZ 10017bb0 f i datast.obj
 0001:00016bb0       ??0?$vector@PAVformula_t@xlslib_core@@V?$allocator@PAVformula_t@xlslib_core@@@std@@@std@@QAE@XZ 10017bb0 f i sheetrec.obj
 0001:00016bb0       ??0?$vector@PAUstyle_t@xlslib_core@@V?$allocator@PAUstyle_t@xlslib_core@@@std@@@std@@QAE@XZ 10017bb0 f i globalrec.obj
 0001:00016bb0       ??0?$_Vector_alloc@U?$_Vec_base_types@PAVformula_t@xlslib_core@@V?$allocator@PAVformula_t@xlslib_core@@@std@@@std@@@std@@QAE@XZ 10017bb0 f i sheetrec.obj
 0001:00016bb0       ??0?$vector@Urowblocksize_t@xlslib_core@@V?$allocator@Urowblocksize_t@xlslib_core@@@std@@@std@@QAE@XZ 10017bb0 f i sheetrec.obj
 0001:00016bb0       ??0?$_Vector_val@U?$_Simple_types@PAUstyle_t@xlslib_core@@@std@@@std@@QAE@XZ 10017bb0 f i globalrec.obj
 0001:00016bb0       ??0?$_Vector_alloc@U?$_Vec_base_types@PAVrange@xlslib_core@@V?$allocator@PAVrange@xlslib_core@@@std@@@std@@@std@@QAE@XZ 10017bb0 f i sheetrec.obj
 0001:00016bb0       ??0?$_Vector_val@U?$_Simple_types@Urowblocksize_t@xlslib_core@@@std@@@std@@QAE@XZ 10017bb0 f i sheetrec.obj
 0001:00016bb0       ??0?$_Vector_alloc@U?$_Vec_base_types@PAVformat_t@xlslib_core@@V?$allocator@PAVformat_t@xlslib_core@@@std@@@std@@@std@@QAE@XZ 10017bb0 f i globalrec.obj
 0001:00016bb0       ??0?$_Vector_val@U?$_Simple_types@PAVboundsheet_t@xlslib_core@@@std@@@std@@QAE@XZ 10017bb0 f i globalrec.obj
 0001:00016bb0       ??0?$_Vector_alloc@U?$_Vec_base_types@PAVworksheet@xlslib_core@@V?$allocator@PAVworksheet@xlslib_core@@@std@@@std@@@std@@QAE@XZ 10017bb0 f i workbook.obj
 0001:00016bb0       ??0?$_Vector_alloc@U?$_Vec_base_types@PAUDataValidation@xlslib_core@@V?$allocator@PAUDataValidation@xlslib_core@@@std@@@std@@@std@@QAE@XZ 10017bb0 f i sheetrec.obj
 0001:00016bb0       ??0?$_Vector_val@U?$_Simple_types@PAUDataValidation@xlslib_core@@@std@@@std@@QAE@XZ 10017bb0 f i sheetrec.obj
 0001:00016bb0       ??0?$_Vector_val@U?$_Simple_types@PAVformat_t@xlslib_core@@@std@@@std@@QAE@XZ 10017bb0 f i globalrec.obj
 0001:00016bb0       ??0?$_Vector_val@U?$_Simple_types@PAVrange@xlslib_core@@@std@@@std@@QAE@XZ 10017bb0 f i sheetrec.obj
 0001:00016bb0       ??0?$_Vector_alloc@U?$_Vec_base_types@PAVrange_t@xlslib_core@@V?$allocator@PAVrange_t@xlslib_core@@@std@@@std@@@std@@QAE@XZ 10017bb0 f i sheetrec.obj
 0001:00016bb0       ??0?$vector@V?$basic_string@DU?$char_traits@D@std@@V?$allocator@D@2@@std@@V?$allocator@V?$basic_string@DU?$char_traits@D@std@@V?$allocator@D@2@@std@@@2@@std@@QAE@XZ 10017bb0 f i cbridge.obj
 0001:00016bb0       ??0?$vector@PAVrange@xlslib_core@@V?$allocator@PAVrange@xlslib_core@@@std@@@std@@QAE@XZ 10017bb0 f i sheetrec.obj
 0001:00016bb0       ??0?$_Vector_val@U?$_Simple_types@PAVCUnit@xlslib_core@@@std@@@std@@QAE@XZ 10017bb0 f i datast.obj
 0001:00016bb0       ??0?$vector@IV?$allocator@I@std@@@std@@QAE@XZ 10017bb0 f i sheetrec.obj
 0001:00016bb0       ??0?$_Vector_val@U?$_Simple_types@PAVrange_t@xlslib_core@@@std@@@std@@QAE@XZ 10017bb0 f i sheetrec.obj
 0001:00016bb0       ??0?$_Vector_val@U?$_Simple_types@PAVformula_t@xlslib_core@@@std@@@std@@QAE@XZ 10017bb0 f i sheetrec.obj
 0001:00016bb0       ??0?$_Vector_alloc@U?$_Vec_base_types@PAVxf_t@xlslib_core@@V?$allocator@PAVxf_t@xlslib_core@@@std@@@std@@@std@@QAE@XZ 10017bb0 f i globalrec.obj
 0001:00016bd0       ?push_back@?$vector@V?$basic_string@_WU?$char_traits@_W@std@@V?$allocator@_W@2@@std@@V?$allocator@V?$basic_string@_WU?$char_traits@_W@std@@V?$allocator@_W@2@@std@@@2@@std@@QAEXABV?$basic_string@_WU?$char_traits@_W@std@@V?$allocator@_W@2@@2@@Z 10017bd0 f i cbridge.obj
 0001:00016cb0       ??1?$vector@V?$basic_string@_WU?$char_traits@_W@std@@V?$allocator@_W@2@@std@@V?$allocator@V?$basic_string@_WU?$char_traits@_W@std@@V?$allocator@_W@2@@std@@@2@@std@@QAE@XZ 10017cb0 f i cbridge.obj
 0001:00016cb0       ?_Tidy@?$vector@V?$basic_string@_WU?$char_traits@_W@std@@V?$allocator@_W@2@@std@@V?$allocator@V?$basic_string@_WU?$char_traits@_W@std@@V?$allocator@_W@2@@std@@@2@@std@@IAEXXZ 10017cb0 f i cbridge.obj
 0001:00016d10       ?push_back@?$vector@V?$basic_string@DU?$char_traits@D@std@@V?$allocator@D@2@@std@@V?$allocator@V?$basic_string@DU?$char_traits@D@std@@V?$allocator@D@2@@std@@@2@@std@@QAEXABV?$basic_string@DU?$char_traits@D@std@@V?$allocator@D@2@@2@@Z 10017d10 f i cbridge.obj
 0001:00016df0       ??1?$vector@V?$basic_string@DU?$char_traits@D@std@@V?$allocator@D@2@@std@@V?$allocator@V?$basic_string@DU?$char_traits@D@std@@V?$allocator@D@2@@std@@@2@@std@@QAE@XZ 10017df0 f i cbridge.obj
 0001:00016df0       ?_Tidy@?$vector@V?$basic_string@DU?$char_traits@D@std@@V?$allocator@D@2@@std@@V?$allocator@V?$basic_string@DU?$char_traits@D@std@@V?$allocator@D@2@@std@@@2@@std@@IAEXXZ 10017df0 f i cbridge.obj
 0001:00016e50       ??Y?$basic_string@_WU?$char_traits@_W@std@@V?$allocator@_W@2@@std@@QAEAAV01@_W@Z 10017e50 f i cbridge.obj
 0001:00016e60       ??1?$basic_string@_WU?$char_traits@_W@std@@V?$allocator@_W@2@@std@@QAE@XZ 10017e60 f i cbridge.obj
 0001:00016e60       ??1?$basic_string@_SU?$char_traits@_S@std@@V?$allocator@_S@2@@std@@QAE@XZ 10017e60 f i datast.obj
 0001:00016ea0       ??0?$basic_string@_WU?$char_traits@_W@std@@V?$allocator@_W@2@@std@@QAE@PB_W@Z 10017ea0 f i cbridge.obj
 0001:00016f00       ??Y?$basic_string@DU?$char_traits@D@std@@V?$allocator@D@2@@std@@QAEAAV01@D@Z 10017f00 f i cbridge.obj
 0001:00016f20       ??0?$basic_string@DU?$char_traits@D@std@@V?$allocator@D@2@@std@@QAE@PBD@Z 10017f20 f i cbridge.obj
 0001:00016f80       ?_Myend@?$_Vector_alloc@U?$_Vec_base_types@PAUDataValidation@xlslib_core@@V?$allocator@PAUDataValidation@xlslib_core@@@std@@@std@@@std@@QBEABQAPAUDataValidation@xlslib_core@@XZ 10017f80 f i sheetrec.obj
 0001:00016f80       ?_Right@?$_Tree_comp_alloc@V?$_Tset_traits@PAVrowheight_t@xlslib_core@@Vrowheightsort@2@V?$allocator@PAVrowheight_t@xlslib_core@@@std@@$0A@@std@@@std@@SAAAPAU?$_Tree_node@PAVrowheight_t@xlslib_core@@PAX@2@PAU32@@Z 10017f80 f i sheetrec.obj
 0001:00016f80       ?_Myend@?$_Vector_alloc@U?$_Vec_base_types@PAVformula_t@xlslib_core@@V?$allocator@PAVformula_t@xlslib_core@@@std@@@std@@@std@@QBEABQAPAVformula_t@xlslib_core@@XZ 10017f80 f i sheetrec.obj
 0001:00016f80       ?_Right@?$_Tree_comp_alloc@V?$_Tset_traits@PAVcell_t@xlslib_core@@Vinsertsort@2@V?$allocator@PAVcell_t@xlslib_core@@@std@@$0A@@std@@@std@@SAAAPAU?$_Tree_node@PAVcell_t@xlslib_core@@PAX@2@PAU32@@Z 10017f80 f i sheetrec.obj
 0001:00016f80       ?_Myend@?$_Vector_alloc@U?$_Vec_base_types@PAVCOleProp@xlslib_core@@V?$allocator@PAVCOleProp@xlslib_core@@@std@@@std@@@std@@QBEABQAPAVCOleProp@xlslib_core@@XZ 10017f80 f i olefs.obj
 0001:00016f80       ?_Myend@?$_Vector_alloc@U?$_Vec_base_types@PAVrange@xlslib_core@@V?$allocator@PAVrange@xlslib_core@@@std@@@std@@@std@@QAEAAPAPAVrange@xlslib_core@@XZ 10017f80 f i sheetrec.obj
 0001:00016f80       ?_Myend@?$_Vector_alloc@U?$_Vec_base_types@PAVformula_t@xlslib_core@@V?$allocator@PAVformula_t@xlslib_core@@@std@@@std@@@std@@QAEAAPAPAVformula_t@xlslib_core@@XZ 10017f80 f i sheetrec.obj
 0001:00016f80       ?_Myend@?$_Vector_alloc@U?$_Vec_base_types@PAVformat_t@xlslib_core@@V?$allocator@PAVformat_t@xlslib_core@@@std@@@std@@@std@@QAEAAPAPAVformat_t@xlslib_core@@XZ 10017f80 f i globalrec.obj
 0001:00016f80       ?_Myend@?$_Vector_alloc@U?$_Vec_base_types@PAUstyle_t@xlslib_core@@V?$allocator@PAUstyle_t@xlslib_core@@@std@@@std@@@std@@QAEAAPAPAUstyle_t@xlslib_core@@XZ 10017f80 f i globalrec.obj
 0001:00016f80       ?_Right@?$_Tree_val@U?$_Tree_simple_types@U?$pair@PAVxf_t@xlslib_core@@UborderedXft@2@@std@@@std@@@std@@SAAAPAU?$_Tree_node@U?$pair@PAVxf_t@xlslib_core@@UborderedXft@2@@std@@PAX@2@PAU32@@Z 10017f80 f i range.obj
 0001:00016f80       ?_Myend@?$_Vector_alloc@U?$_Vec_base_types@NV?$allocator@N@std@@@std@@@std@@QAEAAPANXZ 10017f80 f i cbridge.obj
 0001:00016f80       ?_Myend@?$_Vector_alloc@U?$_Vec_base_types@PAUHyperLink@xlslib_core@@V?$allocator@PAUHyperLink@xlslib_core@@@std@@@std@@@std@@QAEAAPAPAUHyperLink@xlslib_core@@XZ 10017f80 f i sheetrec.obj
 0001:00016f80       ?_Myend@?$_Vector_alloc@U?$_Vec_base_types@VCUnitStore@xlslib_core@@V?$allocator@VCUnitStore@xlslib_core@@@std@@@std@@@std@@QBEABQAVCUnitStore@xlslib_core@@XZ 10017f80 f i datast.obj
 0001:00016f80       ?_Myend@?$_Vector_alloc@U?$_Vec_base_types@V?$basic_string@DU?$char_traits@D@std@@V?$allocator@D@2@@std@@V?$allocator@V?$basic_string@DU?$char_traits@D@std@@V?$allocator@D@2@@std@@@2@@std@@@std@@QBEABQAV?$basic_string@DU?$char_traits@D@std@@V?$allocator@D@2@@2@XZ 10017f80 f i cbridge.obj
 0001:00016f80       ?_Myend@?$_Vector_alloc@U?$_Vec_base_types@V?$basic_string@_WU?$char_traits@_W@std@@V?$allocator@_W@2@@std@@V?$allocator@V?$basic_string@_WU?$char_traits@_W@std@@V?$allocator@_W@2@@std@@@2@@std@@@std@@QBEABQAV?$basic_string@_WU?$char_traits@_W@std@@V?$allocator@_W@2@@2@XZ 10017f80 f i cbridge.obj
 0001:00016f80       ?_Myend@?$_Vector_alloc@U?$_Vec_base_types@PAVCUnit@xlslib_core@@V?$allocator@PAVCUnit@xlslib_core@@@std@@@std@@@std@@QAEAAPAPAVCUnit@xlslib_core@@XZ 10017f80 f i datast.obj
 0001:00016f80       ?_Myend@?$_Vector_alloc@U?$_Vec_base_types@PAUstyle_t@xlslib_core@@V?$allocator@PAUstyle_t@xlslib_core@@@std@@@std@@@std@@QBEABQAPAUstyle_t@xlslib_core@@XZ 10017f80 f i globalrec.obj
 0001:00016f80       ?_Right@?$_Tree_comp_alloc@V?$_Tset_traits@PAUcolinfo_t@xlslib_core@@Vcolinfosort@2@V?$allocator@PAUcolinfo_t@xlslib_core@@@std@@$0A@@std@@@std@@SAAAPAU?$_Tree_node@PAUcolinfo_t@xlslib_core@@PAX@2@PAU32@@Z 10017f80 f i sheetrec.obj
 0001:00016f80       ?_Myend@?$_Vector_alloc@U?$_Vec_base_types@PAVCOleProp@xlslib_core@@V?$allocator@PAVCOleProp@xlslib_core@@@std@@@std@@@std@@QAEAAPAPAVCOleProp@xlslib_core@@XZ 10017f80 f i oledoc.obj
 0001:00016f80       ?_Myend@?$_Vector_alloc@U?$_Vec_base_types@PAVrange@xlslib_core@@V?$allocator@PAVrange@xlslib_core@@@std@@@std@@@std@@QBEABQAPAVrange@xlslib_core@@XZ 10017f80 f i sheetrec.obj
 0001:00016f80       ?_Myend@?$_Vector_alloc@U?$_Vec_base_types@PAVfont_t@xlslib_core@@V?$allocator@PAVfont_t@xlslib_core@@@std@@@std@@@std@@QAEAAPAPAVfont_t@xlslib_core@@XZ 10017f80 f i globalrec.obj
 0001:00016f80       ?_Right@?$_Tree_val@U?$_Tree_simple_types@PAVcell_t@xlslib_core@@@std@@@std@@SAAAPAU?$_Tree_node@PAVcell_t@xlslib_core@@PAX@2@PAU32@@Z 10017f80 f i sheetrec.obj
 0001:00016f80       ?_Myend@?$_Vector_alloc@U?$_Vec_base_types@PAVxf_t@xlslib_core@@V?$allocator@PAVxf_t@xlslib_core@@@std@@@std@@@std@@QBEABQAPAVxf_t@xlslib_core@@XZ 10017f80 f i globalrec.obj
 0001:00016f80       ?_Myend@?$_Vector_alloc@U?$_Vec_base_types@PAVrange_t@xlslib_core@@V?$allocator@PAVrange_t@xlslib_core@@@std@@@std@@@std@@QAEAAPAPAVrange_t@xlslib_core@@XZ 10017f80 f i sheetrec.obj
 0001:00016f80       ?_Myend@?$_Vector_alloc@U?$_Vec_base_types@PAVboundsheet_t@xlslib_core@@V?$allocator@PAVboundsheet_t@xlslib_core@@@std@@@std@@@std@@QAEAAPAPAVboundsheet_t@xlslib_core@@XZ 10017f80 f i globalrec.obj
 0001:00016f80       ?_Right@?$_Tree_comp_alloc@V?$_Tset_traits@U?$pair@PAVxf_t@xlslib_core@@UborderedXft@2@@std@@VxfSorter@xlslib_core@@V?$allocator@U?$pair@PAVxf_t@xlslib_core@@UborderedXft@2@@std@@@2@$0A@@std@@@std@@SAAAPAU?$_Tree_node@U?$pair@PAVxf_t@xlslib_core@@UborderedXft@2@@std@@PAX@2@PAU32@@Z 10017f80 f i range.obj
 0001:00016f80       ?_Myend@?$_Vector_alloc@U?$_Vec_base_types@PAVformat_t@xlslib_core@@V?$allocator@PAVformat_t@xlslib_core@@@std@@@std@@@std@@QBEABQAPAVformat_t@xlslib_core@@XZ 10017f80 f i globalrec.obj
 0001:00016f80       ?_Myend@?$_Vector_alloc@U?$_Vec_base_types@PAUHyperLink@xlslib_core@@V?$allocator@PAUHyperLink@xlslib_core@@@std@@@std@@@std@@QBEABQAPAUHyperLink@xlslib_core@@XZ 10017f80 f i sheetrec.obj
 0001:00016f80       ?GetXFshadow@xf_t@xlslib_core@@ABEABVxf_init_t@2@XZ 10017f80 f i extformat.obj
 0001:00016f80       ?_Myend@?$_Vector_alloc@U?$_Vec_base_types@PBVlabel_t@xlslib_core@@V?$allocator@PBVlabel_t@xlslib_core@@@std@@@std@@@std@@QBEABQAPBVlabel_t@xlslib_core@@XZ 10017f80 f i globalrec.obj
 0001:00016f80       ?_Right@?$_Tree_val@U?$_Tree_simple_types@PAVrowheight_t@xlslib_core@@@std@@@std@@SAAAPAU?$_Tree_node@PAVrowheight_t@xlslib_core@@PAX@2@PAU32@@Z 10017f80 f i sheetrec.obj
 0001:00016f80       ?_Myend@?$_Vector_alloc@U?$_Vec_base_types@PBVlabel_t@xlslib_core@@V?$allocator@PBVlabel_t@xlslib_core@@@std@@@std@@@std@@QAEAAPAPBVlabel_t@xlslib_core@@XZ 10017f80 f i globalrec.obj
 0001:00016f80       ?_Myend@?$_Vector_alloc@U?$_Vec_base_types@IV?$allocator@I@std@@@std@@@std@@QAEAAPAIXZ 10017f80 f i sheetrec.obj
 0001:00016f80       ?_Myend@?$_Vector_alloc@U?$_Vec_base_types@PAUDataValidation@xlslib_core@@V?$allocator@PAUDataValidation@xlslib_core@@@std@@@std@@@std@@QAEAAPAPAUDataValidation@xlslib_core@@XZ 10017f80 f i sheetrec.obj
 0001:00016f80       ?_Myend@?$_Vector_alloc@U?$_Vec_base_types@Urowblocksize_t@xlslib_core@@V?$allocator@Urowblocksize_t@xlslib_core@@@std@@@std@@@std@@QAEAAPAUrowblocksize_t@xlslib_core@@XZ 10017f80 f i sheetrec.obj
 0001:00016f80       ?_Right@?$_Tree_comp_alloc@V?$_Tset_traits@PAVHPSFitem@xlslib_core@@Vinsertsort2@2@V?$allocator@PAVHPSFitem@xlslib_core@@@std@@$0A@@std@@@std@@SAAAPAU?$_Tree_node@PAVHPSFitem@xlslib_core@@PAX@2@PAU32@@Z 10017f80 f i HPSF.obj
 0001:00016f80       ?_Myend@?$_Vector_alloc@U?$_Vec_base_types@IV?$allocator@I@std@@@std@@@std@@QBEABQAIXZ 10017f80 f i sheetrec.obj
 0001:00016f80       ?_Myend@?$_Vector_alloc@U?$_Vec_base_types@V?$basic_string@DU?$char_traits@D@std@@V?$allocator@D@2@@std@@V?$allocator@V?$basic_string@DU?$char_traits@D@std@@V?$allocator@D@2@@std@@@2@@std@@@std@@QAEAAPAV?$basic_string@DU?$char_traits@D@std@@V?$allocator@D@2@@2@XZ 10017f80 f i cbridge.obj
 0001:00016f80       ?_Myend@?$_Vector_alloc@U?$_Vec_base_types@PAVrange_t@xlslib_core@@V?$allocator@PAVrange_t@xlslib_core@@@std@@@std@@@std@@QBEABQAPAVrange_t@xlslib_core@@XZ 10017f80 f i sheetrec.obj
 0001:00016f80       ?_Myend@?$_Vector_alloc@U?$_Vec_base_types@VCUnitStore@xlslib_core@@V?$allocator@VCUnitStore@xlslib_core@@@std@@@std@@@std@@QAEAAPAVCUnitStore@xlslib_core@@XZ 10017f80 f i datast.obj
 0001:00016f80       ?_Right@?$_Tree_val@U?$_Tree_simple_types@PAVHPSFitem@xlslib_core@@@std@@@std@@SAAAPAU?$_Tree_node@PAVHPSFitem@xlslib_core@@PAX@2@PAU32@@Z 10017f80 f i HPSF.obj
 0001:00016f80       ?_Myend@?$_Vector_alloc@U?$_Vec_base_types@PAVxf_t@xlslib_core@@V?$allocator@PAVxf_t@xlslib_core@@@std@@@std@@@std@@QAEAAPAPAVxf_t@xlslib_core@@XZ 10017f80 f i globalrec.obj
 0001:00016f80       ?GetName@font_t@xlslib_core@@QBEABV?$basic_string@DU?$char_traits@D@std@@V?$allocator@D@2@@std@@XZ 10017f80 f i font.obj
 0001:00016f80       ?_Right@?$_Tree_val@U?$_Tree_simple_types@PAUcolinfo_t@xlslib_core@@@std@@@std@@SAAAPAU?$_Tree_node@PAUcolinfo_t@xlslib_core@@PAX@2@PAU32@@Z 10017f80 f i sheetrec.obj
 0001:00016f80       ?_Myend@?$_Vector_alloc@U?$_Vec_base_types@PAVfont_t@xlslib_core@@V?$allocator@PAVfont_t@xlslib_core@@@std@@@std@@@std@@QBEABQAPAVfont_t@xlslib_core@@XZ 10017f80 f i globalrec.obj
 0001:00016f80       ?_Myend@?$_Vector_alloc@U?$_Vec_base_types@Urowblocksize_t@xlslib_core@@V?$allocator@Urowblocksize_t@xlslib_core@@@std@@@std@@@std@@QBEABQAUrowblocksize_t@xlslib_core@@XZ 10017f80 f i sheetrec.obj
 0001:00016f80       ?_Myend@?$_Vector_alloc@U?$_Vec_base_types@PAVworksheet@xlslib_core@@V?$allocator@PAVworksheet@xlslib_core@@@std@@@std@@@std@@QBEABQAPAVworksheet@xlslib_core@@XZ 10017f80 f i workbook.obj
 0001:00016f80       ?_Myend@?$_Vector_alloc@U?$_Vec_base_types@PAVCUnit@xlslib_core@@V?$allocator@PAVCUnit@xlslib_core@@@std@@@std@@@std@@QBEABQAPAVCUnit@xlslib_core@@XZ 10017f80 f i datast.obj
 0001:00016f80       ?_Myval@?$_List_alloc@U?$_List_base_types@PAV?$basic_string@DU?$char_traits@D@std@@V?$allocator@D@2@@std@@V?$allocator@PAV?$basic_string@DU?$char_traits@D@std@@V?$allocator@D@2@@std@@@2@@std@@@std@@SAAAPAV?$basic_string@DU?$char_traits@D@std@@V?$allocator@D@2@@2@PAU?$_List_node@PAV?$basic_string@DU?$char_traits@D@std@@V?$allocator@D@2@@std@@PAX@2@@Z 10017f80 f i olefs.obj
 0001:00016f80       ?_Myend@?$_Vector_alloc@U?$_Vec_base_types@PAVworksheet@xlslib_core@@V?$allocator@PAVworksheet@xlslib_core@@@std@@@std@@@std@@QAEAAPAPAVworksheet@xlslib_core@@XZ 10017f80 f i workbook.obj
 0001:00016f80       ?_Myval@?$_List_val@U?$_List_simple_types@PAV?$basic_string@DU?$char_traits@D@std@@V?$allocator@D@2@@std@@@std@@@std@@SAAAPAV?$basic_string@DU?$char_traits@D@std@@V?$allocator@D@2@@2@PAU?$_List_node@PAV?$basic_string@DU?$char_traits@D@std@@V?$allocator@D@2@@std@@PAX@2@@Z 10017f80 f i olefs.obj
 0001:00016f80       ?_Myend@?$_Vector_alloc@U?$_Vec_base_types@NV?$allocator@N@std@@@std@@@std@@QBEABQANXZ 10017f80 f i cbridge.obj
 0001:00016f80       ?_Myend@?$_Vector_alloc@U?$_Vec_base_types@V?$basic_string@_WU?$char_traits@_W@std@@V?$allocator@_W@2@@std@@V?$allocator@V?$basic_string@_WU?$char_traits@_W@std@@V?$allocator@_W@2@@std@@@2@@std@@@std@@QAEAAPAV?$basic_string@_WU?$char_traits@_W@std@@V?$allocator@_W@2@@2@XZ 10017f80 f i cbridge.obj
 0001:00016f80       ?_Myend@?$_Vector_alloc@U?$_Vec_base_types@PAVboundsheet_t@xlslib_core@@V?$allocator@PAVboundsheet_t@xlslib_core@@@std@@@std@@@std@@QBEABQAPAVboundsheet_t@xlslib_core@@XZ 10017f80 f i globalrec.obj
 0001:00016f90       ?_Mylast@?$_Vector_alloc@U?$_Vec_base_types@PAVxf_t@xlslib_core@@V?$allocator@PAVxf_t@xlslib_core@@@std@@@std@@@std@@QBEABQAPAVxf_t@xlslib_core@@XZ 10017f90 f i globalrec.obj
 0001:00016f90       ?_Parent@?$_Tree_val@U?$_Tree_simple_types@PAVrowheight_t@xlslib_core@@@std@@@std@@SAAAPAU?$_Tree_node@PAVrowheight_t@xlslib_core@@PAX@2@PAU32@@Z 10017f90 f i sheetrec.obj
 0001:00016f90       ?_Mysize@?$_Tree_comp_alloc@V?$_Tset_traits@PAVHPSFitem@xlslib_core@@Vinsertsort2@2@V?$allocator@PAVHPSFitem@xlslib_core@@@std@@$0A@@std@@@std@@QBEABIXZ 10017f90 f i HPSF.obj
 0001:00016f90       ?_Mysize@?$_List_alloc@U?$_List_base_types@PAV?$basic_string@DU?$char_traits@D@std@@V?$allocator@D@2@@std@@V?$allocator@PAV?$basic_string@DU?$char_traits@D@std@@V?$allocator@D@2@@std@@@2@@std@@@std@@QBEABIXZ 10017f90 f i olefs.obj
 0001:00016f90       ?_Mylast@?$_Vector_alloc@U?$_Vec_base_types@PAVformat_t@xlslib_core@@V?$allocator@PAVformat_t@xlslib_core@@@std@@@std@@@std@@QAEAAPAPAVformat_t@xlslib_core@@XZ 10017f90 f i globalrec.obj
 0001:00016f90       ?_Mysize@?$_Tree_comp_alloc@V?$_Tset_traits@U?$pair@PAVxf_t@xlslib_core@@UborderedXft@2@@std@@VxfSorter@xlslib_core@@V?$allocator@U?$pair@PAVxf_t@xlslib_core@@UborderedXft@2@@std@@@2@$0A@@std@@@std@@QAEAAIXZ 10017f90 f i range.obj
 0001:00016f90       ?_Mylast@?$_Vector_alloc@U?$_Vec_base_types@PAVboundsheet_t@xlslib_core@@V?$allocator@PAVboundsheet_t@xlslib_core@@@std@@@std@@@std@@QAEAAPAPAVboundsheet_t@xlslib_core@@XZ 10017f90 f i globalrec.obj
 0001:00016f90       ?_Prevnode@?$_List_alloc@U?$_List_base_types@PAV?$basic_string@DU?$char_traits@D@std@@V?$allocator@D@2@@std@@V?$allocator@PAV?$basic_string@DU?$char_traits@D@std@@V?$allocator@D@2@@std@@@2@@std@@@std@@SAAAPAU?$_List_node@PAV?$basic_string@DU?$char_traits@D@std@@V?$allocator@D@2@@std@@PAX@2@PAU32@@Z 10017f90 f i olefs.obj
 0001:00016f90       ?_Mylast@?$_Vector_alloc@U?$_Vec_base_types@PAVformat_t@xlslib_core@@V?$allocator@PAVformat_t@xlslib_core@@@std@@@std@@@std@@QBEABQAPAVformat_t@xlslib_core@@XZ 10017f90 f i globalrec.obj
 0001:00016f90       ?_Mylast@?$_Vector_alloc@U?$_Vec_base_types@PAVworksheet@xlslib_core@@V?$allocator@PAVworksheet@xlslib_core@@@std@@@std@@@std@@QAEAAPAPAVworksheet@xlslib_core@@XZ 10017f90 f i workbook.obj
 0001:00016f90       ?_Mylast@?$_Vector_alloc@U?$_Vec_base_types@PAUHyperLink@xlslib_core@@V?$allocator@PAUHyperLink@xlslib_core@@@std@@@std@@@std@@QAEAAPAPAUHyperLink@xlslib_core@@XZ 10017f90 f i sheetrec.obj
 0001:00016f90       ?GetRootEntry@COleFileSystem@xlslib_core@@QAEAAVCOleProp@2@XZ 10017f90 f i olefs.obj
 0001:00016f90       ?_Mylast@?$_Vector_alloc@U?$_Vec_base_types@PBVlabel_t@xlslib_core@@V?$allocator@PBVlabel_t@xlslib_core@@@std@@@std@@@std@@QAEAAPAPBVlabel_t@xlslib_core@@XZ 10017f90 f i globalrec.obj
 0001:00016f90       ?_Mysize@?$_Tree_comp_alloc@V?$_Tset_traits@PAUcolinfo_t@xlslib_core@@Vcolinfosort@2@V?$allocator@PAUcolinfo_t@xlslib_core@@@std@@$0A@@std@@@std@@QAEAAIXZ 10017f90 f i sheetrec.obj
 0001:00016f90       ?_Mylast@?$_Vector_alloc@U?$_Vec_base_types@PAVrange_t@xlslib_core@@V?$allocator@PAVrange_t@xlslib_core@@@std@@@std@@@std@@QBEABQAPAVrange_t@xlslib_core@@XZ 10017f90 f i sheetrec.obj
 0001:00016f90       ?_Mylast@?$_Vector_alloc@U?$_Vec_base_types@V?$basic_string@DU?$char_traits@D@std@@V?$allocator@D@2@@std@@V?$allocator@V?$basic_string@DU?$char_traits@D@std@@V?$allocator@D@2@@std@@@2@@std@@@std@@QBEABQAV?$basic_string@DU?$char_traits@D@std@@V?$allocator@D@2@@2@XZ 10017f90 f i cbridge.obj
 0001:00016f90       ?_Mylast@?$_Vector_alloc@U?$_Vec_base_types@PAVfont_t@xlslib_core@@V?$allocator@PAVfont_t@xlslib_core@@@std@@@std@@@std@@QBEABQAPAVfont_t@xlslib_core@@XZ 10017f90 f i globalrec.obj
 0001:00016f90       ?_Mylast@?$_Vector_alloc@U?$_Vec_base_types@PAUstyle_t@xlslib_core@@V?$allocator@PAUstyle_t@xlslib_core@@@std@@@std@@@std@@QAEAAPAPAUstyle_t@xlslib_core@@XZ 10017f90 f i globalrec.obj
 0001:00016f90       ?_Mysize@?$_Tree_comp_alloc@V?$_Tset_traits@PAUcolinfo_t@xlslib_core@@Vcolinfosort@2@V?$allocator@PAUcolinfo_t@xlslib_core@@@std@@$0A@@std@@@std@@QBEABIXZ 10017f90 f i sheetrec.obj
 0001:00016f90       ?_Mysize@?$_Tree_comp_alloc@V?$_Tset_traits@PAVHPSFitem@xlslib_core@@Vinsertsort2@2@V?$allocator@PAVHPSFitem@xlslib_core@@@std@@$0A@@std@@@std@@QAEAAIXZ 10017f90 f i HPSF.obj
 0001:00016f90       ?_Mylast@?$_Vector_alloc@U?$_Vec_base_types@NV?$allocator@N@std@@@std@@@std@@QAEAAPANXZ 10017f90 f i cbridge.obj
 0001:00016f90       ?_Mylast@?$_Vector_alloc@U?$_Vec_base_types@V?$basic_string@_WU?$char_traits@_W@std@@V?$allocator@_W@2@@std@@V?$allocator@V?$basic_string@_WU?$char_traits@_W@std@@V?$allocator@_W@2@@std@@@2@@std@@@std@@QBEABQAV?$basic_string@_WU?$char_traits@_W@std@@V?$allocator@_W@2@@2@XZ 10017f90 f i cbridge.obj
 0001:00016f90       ?_Mylast@?$_Vector_alloc@U?$_Vec_base_types@PAVrange@xlslib_core@@V?$allocator@PAVrange@xlslib_core@@@std@@@std@@@std@@QAEAAPAPAVrange@xlslib_core@@XZ 10017f90 f i sheetrec.obj
 0001:00016f90       ?_Parent@?$_Tree_comp_alloc@V?$_Tset_traits@U?$pair@PAVxf_t@xlslib_core@@UborderedXft@2@@std@@VxfSorter@xlslib_core@@V?$allocator@U?$pair@PAVxf_t@xlslib_core@@UborderedXft@2@@std@@@2@$0A@@std@@@std@@SAAAPAU?$_Tree_node@U?$pair@PAVxf_t@xlslib_core@@UborderedXft@2@@std@@PAX@2@PAU32@@Z 10017f90 f i range.obj
 0001:00016f90       ?_Mylast@?$_Vector_alloc@U?$_Vec_base_types@VCUnitStore@xlslib_core@@V?$allocator@VCUnitStore@xlslib_core@@@std@@@std@@@std@@QBEABQAVCUnitStore@xlslib_core@@XZ 10017f90 f i datast.obj
 0001:00016f90       ?_Prevnode@?$_List_val@U?$_List_simple_types@PAV?$basic_string@DU?$char_traits@D@std@@V?$allocator@D@2@@std@@@std@@@std@@SAAAPAU?$_List_node@PAV?$basic_string@DU?$char_traits@D@std@@V?$allocator@D@2@@std@@PAX@2@PAU32@@Z 10017f90 f i olefs.obj
 0001:00016f90       ?_Mylast@?$_Vector_alloc@U?$_Vec_base_types@PAUDataValidation@xlslib_core@@V?$allocator@PAUDataValidation@xlslib_core@@@std@@@std@@@std@@QAEAAPAPAUDataValidation@xlslib_core@@XZ 10017f90 f i sheetrec.obj
 0001:00016f90       ?_Parent@?$_Tree_comp_alloc@V?$_Tset_traits@PAUcolinfo_t@xlslib_core@@Vcolinfosort@2@V?$allocator@PAUcolinfo_t@xlslib_core@@@std@@$0A@@std@@@std@@SAAAPAU?$_Tree_node@PAUcolinfo_t@xlslib_core@@PAX@2@PAU32@@Z 10017f90 f i sheetrec.obj
 0001:00016f90       ?_Mylast@?$_Vector_alloc@U?$_Vec_base_types@PAVfont_t@xlslib_core@@V?$allocator@PAVfont_t@xlslib_core@@@std@@@std@@@std@@QAEAAPAPAVfont_t@xlslib_core@@XZ 10017f90 f i globalrec.obj
 0001:00016f90       ?_Mylast@?$_Vector_alloc@U?$_Vec_base_types@NV?$allocator@N@std@@@std@@@std@@QBEABQANXZ 10017f90 f i cbridge.obj
 0001:00016f90       ?GetFormatStr@format_t@xlslib_core@@QBEABV?$basic_string@_SU?$char_traits@_S@std@@V?$allocator@_S@2@@std@@XZ 10017f90 f i format.obj
 0001:00016f90       ?_Mylast@?$_Vector_alloc@U?$_Vec_base_types@PAUstyle_t@xlslib_core@@V?$allocator@PAUstyle_t@xlslib_core@@@std@@@std@@@std@@QBEABQAPAUstyle_t@xlslib_core@@XZ 10017f90 f i globalrec.obj
 0001:00016f90       ?_Mysize@?$_Tree_comp_alloc@V?$_Tset_traits@PAVcell_t@xlslib_core@@Vinsertsort@2@V?$allocator@PAVcell_t@xlslib_core@@@std@@$0A@@std@@@std@@QBEABIXZ 10017f90 f i sheetrec.obj
 0001:00016f90       ?_Parent@?$_Tree_comp_alloc@V?$_Tset_traits@PAVHPSFitem@xlslib_core@@Vinsertsort2@2@V?$allocator@PAVHPSFitem@xlslib_core@@@std@@$0A@@std@@@std@@SAAAPAU?$_Tree_node@PAVHPSFitem@xlslib_core@@PAX@2@PAU32@@Z 10017f90 f i HPSF.obj
 0001:00016f90       ?_Mylast@?$_Vector_alloc@U?$_Vec_base_types@PBVlabel_t@xlslib_core@@V?$allocator@PBVlabel_t@xlslib_core@@@std@@@std@@@std@@QBEABQAPBVlabel_t@xlslib_core@@XZ 10017f90 f i datast.obj
 0001:00016f90       ?_Mylast@?$_Vector_alloc@U?$_Vec_base_types@VCUnitStore@xlslib_core@@V?$allocator@VCUnitStore@xlslib_core@@@std@@@std@@@std@@QAEAAPAVCUnitStore@xlslib_core@@XZ 10017f90 f i datast.obj
 0001:00016f90       ?_Mysize@?$_Tree_comp_alloc@V?$_Tset_traits@PAVcell_t@xlslib_core@@Vinsertsort@2@V?$allocator@PAVcell_t@xlslib_core@@@std@@$0A@@std@@@std@@QAEAAIXZ 10017f90 f i sheetrec.obj
 0001:00016f90       ?_Mylast@?$_Vector_alloc@U?$_Vec_base_types@PAVxf_t@xlslib_core@@V?$allocator@PAVxf_t@xlslib_core@@@std@@@std@@@std@@QAEAAPAPAVxf_t@xlslib_core@@XZ 10017f90 f i globalrec.obj
 0001:00016f90       ?_Mylast@?$_Vector_alloc@U?$_Vec_base_types@Urowblocksize_t@xlslib_core@@V?$allocator@Urowblocksize_t@xlslib_core@@@std@@@std@@@std@@QAEAAPAUrowblocksize_t@xlslib_core@@XZ 10017f90 f i sheetrec.obj
 0001:00016f90       ?_Mylast@?$_Vector_alloc@U?$_Vec_base_types@PAVworksheet@xlslib_core@@V?$allocator@PAVworksheet@xlslib_core@@@std@@@std@@@std@@QBEABQAPAVworksheet@xlslib_core@@XZ 10017f90 f i workbook.obj
 0001:00016f90       ?_Mylast@?$_Vector_alloc@U?$_Vec_base_types@IV?$allocator@I@std@@@std@@@std@@QBEABQAIXZ 10017f90 f i sheetrec.obj
 0001:00016f90       ?_Mylast@?$_Vector_alloc@U?$_Vec_base_types@PAUHyperLink@xlslib_core@@V?$allocator@PAUHyperLink@xlslib_core@@@std@@@std@@@std@@QBEABQAPAUHyperLink@xlslib_core@@XZ 10017f90 f i sheetrec.obj
 0001:00016f90       ?_Parent@?$_Tree_comp_alloc@V?$_Tset_traits@PAVrowheight_t@xlslib_core@@Vrowheightsort@2@V?$allocator@PAVrowheight_t@xlslib_core@@@std@@$0A@@std@@@std@@SAAAPAU?$_Tree_node@PAVrowheight_t@xlslib_core@@PAX@2@PAU32@@Z 10017f90 f i sheetrec.obj
 0001:00016f90       ?_Mylast@?$_Vector_alloc@U?$_Vec_base_types@PAVCOleProp@xlslib_core@@V?$allocator@PAVCOleProp@xlslib_core@@@std@@@std@@@std@@QBEABQAPAVCOleProp@xlslib_core@@XZ 10017f90 f i olefs.obj
 0001:00016f90       ?_Parent@?$_Tree_val@U?$_Tree_simple_types@PAVcell_t@xlslib_core@@@std@@@std@@SAAAPAU?$_Tree_node@PAVcell_t@xlslib_core@@PAX@2@PAU32@@Z 10017f90 f i sheetrec.obj
 0001:00016f90       ?_Parent@?$_Tree_val@U?$_Tree_simple_types@PAVHPSFitem@xlslib_core@@@std@@@std@@SAAAPAU?$_Tree_node@PAVHPSFitem@xlslib_core@@PAX@2@PAU32@@Z 10017f90 f i HPSF.obj
 0001:00016f90       ?_Parent@?$_Tree_comp_alloc@V?$_Tset_traits@PAVcell_t@xlslib_core@@Vinsertsort@2@V?$allocator@PAVcell_t@xlslib_core@@@std@@$0A@@std@@@std@@SAAAPAU?$_Tree_node@PAVcell_t@xlslib_core@@PAX@2@PAU32@@Z 10017f90 f i sheetrec.obj
 0001:00016f90       ?_Mysize@?$_List_alloc@U?$_List_base_types@PAV?$basic_string@DU?$char_traits@D@std@@V?$allocator@D@2@@std@@V?$allocator@PAV?$basic_string@DU?$char_traits@D@std@@V?$allocator@D@2@@std@@@2@@std@@@std@@QAEAAIXZ 10017f90 f i olefs.obj
 0001:00016f90       ?_Mylast@?$_Vector_alloc@U?$_Vec_base_types@PAVformula_t@xlslib_core@@V?$allocator@PAVformula_t@xlslib_core@@@std@@@std@@@std@@QBEABQAPAVformula_t@xlslib_core@@XZ 10017f90 f i sheetrec.obj
 0001:00016f90       ?_Mysize@?$_Tree_comp_alloc@V?$_Tset_traits@PAVrowheight_t@xlslib_core@@Vrowheightsort@2@V?$allocator@PAVrowheight_t@xlslib_core@@@std@@$0A@@std@@@std@@QAEAAIXZ 10017f90 f i sheetrec.obj
 0001:00016f90       ?GetSheetName@boundsheet_t@xlslib_core@@QBEABV?$basic_string@_SU?$char_traits@_S@std@@V?$allocator@_S@2@@std@@XZ 10017f90 f i recdef.obj
 0001:00016f90       ?_Mysize@?$_Tree_comp_alloc@V?$_Tset_traits@PAVrowheight_t@xlslib_core@@Vrowheightsort@2@V?$allocator@PAVrowheight_t@xlslib_core@@@std@@$0A@@std@@@std@@QBEABIXZ 10017f90 f i sheetrec.obj
 0001:00016f90       ?_Mylast@?$_Vector_alloc@U?$_Vec_base_types@PAVformula_t@xlslib_core@@V?$allocator@PAVformula_t@xlslib_core@@@std@@@std@@@std@@QAEAAPAPAVformula_t@xlslib_core@@XZ 10017f90 f i sheetrec.obj
 0001:00016f90       ?_Mylast@?$_Vector_alloc@U?$_Vec_base_types@PAVrange_t@xlslib_core@@V?$allocator@PAVrange_t@xlslib_core@@@std@@@std@@@std@@QAEAAPAPAVrange_t@xlslib_core@@XZ 10017f90 f i sheetrec.obj
 0001:00016f90       ?_Parent@?$_Tree_val@U?$_Tree_simple_types@U?$pair@PAVxf_t@xlslib_core@@UborderedXft@2@@std@@@std@@@std@@SAAAPAU?$_Tree_node@U?$pair@PAVxf_t@xlslib_core@@UborderedXft@2@@std@@PAX@2@PAU32@@Z 10017f90 f i range.obj
 0001:00016f90       ?_Mylast@?$_Vector_alloc@U?$_Vec_base_types@PAVCUnit@xlslib_core@@V?$allocator@PAVCUnit@xlslib_core@@@std@@@std@@@std@@QBEABQAPAVCUnit@xlslib_core@@XZ 10017f90 f i datast.obj
 0001:00016f90       ?_Parent@?$_Tree_val@U?$_Tree_simple_types@PAUcolinfo_t@xlslib_core@@@std@@@std@@SAAAPAU?$_Tree_node@PAUcolinfo_t@xlslib_core@@PAX@2@PAU32@@Z 10017f90 f i sheetrec.obj
 0001:00016f90       ?_Mylast@?$_Vector_alloc@U?$_Vec_base_types@V?$basic_string@DU?$char_traits@D@std@@V?$allocator@D@2@@std@@V?$allocator@V?$basic_string@DU?$char_traits@D@std@@V?$allocator@D@2@@std@@@2@@std@@@std@@QAEAAPAV?$basic_string@DU?$char_traits@D@std@@V?$allocator@D@2@@2@XZ 10017f90 f i cbridge.obj
 0001:00016f90       ?_Mylast@?$_Vector_alloc@U?$_Vec_base_types@V?$basic_string@_WU?$char_traits@_W@std@@V?$allocator@_W@2@@std@@V?$allocator@V?$basic_string@_WU?$char_traits@_W@std@@V?$allocator@_W@2@@std@@@2@@std@@@std@@QAEAAPAV?$basic_string@_WU?$char_traits@_W@std@@V?$allocator@_W@2@@2@XZ 10017f90 f i cbridge.obj
 0001:00016f90       ?_Mylast@?$_Vector_alloc@U?$_Vec_base_types@PAUDataValidation@xlslib_core@@V?$allocator@PAUDataValidation@xlslib_core@@@std@@@std@@@std@@QBEABQAPAUDataValidation@xlslib_core@@XZ 10017f90 f i sheetrec.obj
 0001:00016f90       ?_Mylast@?$_Vector_alloc@U?$_Vec_base_types@PAVCUnit@xlslib_core@@V?$allocator@PAVCUnit@xlslib_core@@@std@@@std@@@std@@QAEAAPAPAVCUnit@xlslib_core@@XZ 10017f90 f i datast.obj
 0001:00016f90       ?_Mylast@?$_Vector_alloc@U?$_Vec_base_types@Urowblocksize_t@xlslib_core@@V?$allocator@Urowblocksize_t@xlslib_core@@@std@@@std@@@std@@QBEABQAUrowblocksize_t@xlslib_core@@XZ 10017f90 f i sheetrec.obj
 0001:00016f90       ?_Mylast@?$_Vector_alloc@U?$_Vec_base_types@PAVboundsheet_t@xlslib_core@@V?$allocator@PAVboundsheet_t@xlslib_core@@@std@@@std@@@std@@QBEABQAPAVboundsheet_t@xlslib_core@@XZ 10017f90 f i datast.obj
 0001:00016f90       ?_Mylast@?$_Vector_alloc@U?$_Vec_base_types@PAVrange@xlslib_core@@V?$allocator@PAVrange@xlslib_core@@@std@@@std@@@std@@QBEABQAPAVrange@xlslib_core@@XZ 10017f90 f i sheetrec.obj
 0001:00016f90       ?_Mylast@?$_Vector_alloc@U?$_Vec_base_types@IV?$allocator@I@std@@@std@@@std@@QAEAAPAIXZ 10017f90 f i sheetrec.obj
 0001:00016f90       ?_Mylast@?$_Vector_alloc@U?$_Vec_base_types@PAVCOleProp@xlslib_core@@V?$allocator@PAVCOleProp@xlslib_core@@@std@@@std@@@std@@QAEAAPAPAVCOleProp@xlslib_core@@XZ 10017f90 f i oledoc.obj
 0001:00016fa0       ?_Orphan_range@?$vector@PAVformat_t@xlslib_core@@V?$allocator@PAVformat_t@xlslib_core@@@std@@@std@@IBEXPAPAVformat_t@xlslib_core@@0@Z 10017fa0 f i globalrec.obj
 0001:00016fa0       ?_Destroy@?$vector@PAUstyle_t@xlslib_core@@V?$allocator@PAUstyle_t@xlslib_core@@@std@@@std@@IAEXPAPAUstyle_t@xlslib_core@@0@Z 10017fa0 f i globalrec.obj
 0001:00016fa0       ?_Orphan_range@?$vector@PAVrange_t@xlslib_core@@V?$allocator@PAVrange_t@xlslib_core@@@std@@@std@@IBEXPAPAVrange_t@xlslib_core@@0@Z 10017fa0 f i sheetrec.obj
 0001:00016fa0       ?_Destroy@?$vector@PAVrange@xlslib_core@@V?$allocator@PAVrange@xlslib_core@@@std@@@std@@IAEXPAPAVrange@xlslib_core@@0@Z 10017fa0 f i sheetrec.obj
 0001:00016fa0       ?_Destroy@?$vector@PAVboundsheet_t@xlslib_core@@V?$allocator@PAVboundsheet_t@xlslib_core@@@std@@@std@@IAEXPAPAVboundsheet_t@xlslib_core@@0@Z 10017fa0 f i globalrec.obj
 0001:00016fa0       ?_Destroy@?$vector@PAVformat_t@xlslib_core@@V?$allocator@PAVformat_t@xlslib_core@@@std@@@std@@IAEXPAPAVformat_t@xlslib_core@@0@Z 10017fa0 f i globalrec.obj
 0001:00016fa0       ?_Destroy@?$vector@PBVlabel_t@xlslib_core@@V?$allocator@PBVlabel_t@xlslib_core@@@std@@@std@@IAEXPAPBVlabel_t@xlslib_core@@0@Z 10017fa0 f i globalrec.obj
 0001:00016fa0       ?_Orphan_range@?$vector@PAVxf_t@xlslib_core@@V?$allocator@PAVxf_t@xlslib_core@@@std@@@std@@IBEXPAPAVxf_t@xlslib_core@@0@Z 10017fa0 f i globalrec.obj
 0001:00016fa0       ?_Destroy@?$vector@IV?$allocator@I@std@@@std@@IAEXPAI0@Z 10017fa0 f i sheetrec.obj
 0001:00016fa0       ?_Destroy@?$vector@PAUHyperLink@xlslib_core@@V?$allocator@PAUHyperLink@xlslib_core@@@std@@@std@@IAEXPAPAUHyperLink@xlslib_core@@0@Z 10017fa0 f i sheetrec.obj
 0001:00016fa0       ?_Orphan_range@?$vector@Urowblocksize_t@xlslib_core@@V?$allocator@Urowblocksize_t@xlslib_core@@@std@@@std@@IBEXPAUrowblocksize_t@xlslib_core@@0@Z 10017fa0 f i sheetrec.obj
 0001:00016fa0       ?_Destroy@?$vector@PAVxf_t@xlslib_core@@V?$allocator@PAVxf_t@xlslib_core@@@std@@@std@@IAEXPAPAVxf_t@xlslib_core@@0@Z 10017fa0 f i globalrec.obj
 0001:00016fa0       ?_Orphan_range@?$vector@PAVboundsheet_t@xlslib_core@@V?$allocator@PAVboundsheet_t@xlslib_core@@@std@@@std@@IBEXPAPAVboundsheet_t@xlslib_core@@0@Z 10017fa0 f i globalrec.obj
 0001:00016fa0       ?_Orphan_range@?$vector@PAVfont_t@xlslib_core@@V?$allocator@PAVfont_t@xlslib_core@@@std@@@std@@IBEXPAPAVfont_t@xlslib_core@@0@Z 10017fa0 f i globalrec.obj
 0001:00016fa0       ?_Destroy@?$vector@PAVCOleProp@xlslib_core@@V?$allocator@PAVCOleProp@xlslib_core@@@std@@@std@@IAEXPAPAVCOleProp@xlslib_core@@0@Z 10017fa0 f i oledoc.obj
 0001:00016fa0       ?_Orphan_range@?$vector@PAVrange@xlslib_core@@V?$allocator@PAVrange@xlslib_core@@@std@@@std@@IBEXPAPAVrange@xlslib_core@@0@Z 10017fa0 f i sheetrec.obj
 0001:00016fa0       ?_Orphan_range@?$vector@IV?$allocator@I@std@@@std@@IBEXPAI0@Z 10017fa0 f i sheetrec.obj
 0001:00016fa0       ?_Orphan_range@?$vector@PAUHyperLink@xlslib_core@@V?$allocator@PAUHyperLink@xlslib_core@@@std@@@std@@IBEXPAPAUHyperLink@xlslib_core@@0@Z 10017fa0 f i sheetrec.obj
 0001:00016fa0       ?_Orphan_range@?$vector@VCUnitStore@xlslib_core@@V?$allocator@VCUnitStore@xlslib_core@@@std@@@std@@IBEXPAVCUnitStore@xlslib_core@@0@Z 10017fa0 f i datast.obj
 0001:00016fa0       ?_Destroy@?$vector@PAUDataValidation@xlslib_core@@V?$allocator@PAUDataValidation@xlslib_core@@@std@@@std@@IAEXPAPAUDataValidation@xlslib_core@@0@Z 10017fa0 f i sheetrec.obj
 0001:00016fa0       ?_Orphan_range@?$vector@PAVworksheet@xlslib_core@@V?$allocator@PAVworksheet@xlslib_core@@@std@@@std@@IBEXPAPAVworksheet@xlslib_core@@0@Z 10017fa0 f i workbook.obj
 0001:00016fa0       ?_Orphan_range@?$vector@NV?$allocator@N@std@@@std@@IBEXPAN0@Z 10017fa0 f i cbridge.obj
 0001:00016fa0       ?_Orphan_range@?$vector@V?$basic_string@_WU?$char_traits@_W@std@@V?$allocator@_W@2@@std@@V?$allocator@V?$basic_string@_WU?$char_traits@_W@std@@V?$allocator@_W@2@@std@@@2@@std@@IBEXPAV?$basic_string@_WU?$char_traits@_W@std@@V?$allocator@_W@2@@2@0@Z 10017fa0 f i cbridge.obj
 0001:00016fa0       ?_Orphan_range@?$vector@V?$basic_string@DU?$char_traits@D@std@@V?$allocator@D@2@@std@@V?$allocator@V?$basic_string@DU?$char_traits@D@std@@V?$allocator@D@2@@std@@@2@@std@@IBEXPAV?$basic_string@DU?$char_traits@D@std@@V?$allocator@D@2@@2@0@Z 10017fa0 f i cbridge.obj
 0001:00016fa0       ?_Destroy@?$vector@PAVworksheet@xlslib_core@@V?$allocator@PAVworksheet@xlslib_core@@@std@@@std@@IAEXPAPAVworksheet@xlslib_core@@0@Z 10017fa0 f i workbook.obj
 0001:00016fa0       ?_Orphan_range@?$vector@PAUDataValidation@xlslib_core@@V?$allocator@PAUDataValidation@xlslib_core@@@std@@@std@@IBEXPAPAUDataValidation@xlslib_core@@0@Z 10017fa0 f i sheetrec.obj
 0001:00016fa0       ?_Destroy@?$vector@PAVCUnit@xlslib_core@@V?$allocator@PAVCUnit@xlslib_core@@@std@@@std@@IAEXPAPAVCUnit@xlslib_core@@0@Z 10017fa0 f i datast.obj
 0001:00016fa0       ?_Orphan_range@?$vector@PAVformula_t@xlslib_core@@V?$allocator@PAVformula_t@xlslib_core@@@std@@@std@@IBEXPAPAVformula_t@xlslib_core@@0@Z 10017fa0 f i sheetrec.obj
 0001:00016fa0       ?_Destroy@?$vector@PAVrange_t@xlslib_core@@V?$allocator@PAVrange_t@xlslib_core@@@std@@@std@@IAEXPAPAVrange_t@xlslib_core@@0@Z 10017fa0 f i sheetrec.obj
 0001:00016fa0       ?_Orphan_range@?$vector@PBVlabel_t@xlslib_core@@V?$allocator@PBVlabel_t@xlslib_core@@@std@@@std@@IBEXPAPBVlabel_t@xlslib_core@@0@Z 10017fa0 f i globalrec.obj
 0001:00016fa0       ?_Destroy@?$vector@Urowblocksize_t@xlslib_core@@V?$allocator@Urowblocksize_t@xlslib_core@@@std@@@std@@IAEXPAUrowblocksize_t@xlslib_core@@0@Z 10017fa0 f i sheetrec.obj
 0001:00016fa0       ?_Orphan_range@?$vector@PAUstyle_t@xlslib_core@@V?$allocator@PAUstyle_t@xlslib_core@@@std@@@std@@IBEXPAPAUstyle_t@xlslib_core@@0@Z 10017fa0 f i globalrec.obj
 0001:00016fa0       ?_Orphan_range@?$vector@PAVCUnit@xlslib_core@@V?$allocator@PAVCUnit@xlslib_core@@@std@@@std@@IBEXPAPAVCUnit@xlslib_core@@0@Z 10017fa0 f i datast.obj
 0001:00016fa0       ?_Destroy@?$vector@PAVfont_t@xlslib_core@@V?$allocator@PAVfont_t@xlslib_core@@@std@@@std@@IAEXPAPAVfont_t@xlslib_core@@0@Z 10017fa0 f i globalrec.obj
 0001:00016fa0       ?_Destroy@?$vector@NV?$allocator@N@std@@@std@@IAEXPAN0@Z 10017fa0 f i cbridge.obj
 0001:00016fa0       ?_Orphan_range@?$vector@PAVCOleProp@xlslib_core@@V?$allocator@PAVCOleProp@xlslib_core@@@std@@@std@@IBEXPAPAVCOleProp@xlslib_core@@0@Z 10017fa0 f i olefs.obj
 0001:00016fa0       ?_Destroy@?$vector@PAVformula_t@xlslib_core@@V?$allocator@PAVformula_t@xlslib_core@@@std@@@std@@IAEXPAPAVformula_t@xlslib_core@@0@Z 10017fa0 f i sheetrec.obj
 0001:00016fb0       ?_Reserve@?$vector@NV?$allocator@N@std@@@std@@IAEXI@Z 10017fb0 f i cbridge.obj
 0001:00017010       ?_Inside@?$vector@PAVrange_t@xlslib_core@@V?$allocator@PAVrange_t@xlslib_core@@@std@@@std@@IBE_NPBQAVrange_t@xlslib_core@@@Z 10018010 f i sheetrec.obj
 0001:00017010       ?_Inside@?$vector@PAVworksheet@xlslib_core@@V?$allocator@PAVworksheet@xlslib_core@@@std@@@std@@IBE_NPBQAVworksheet@xlslib_core@@@Z 10018010 f i workbook.obj
 0001:00017010       ?_Inside@?$vector@PAVformat_t@xlslib_core@@V?$allocator@PAVformat_t@xlslib_core@@@std@@@std@@IBE_NPBQAVformat_t@xlslib_core@@@Z 10018010 f i globalrec.obj
 0001:00017010       ?_Inside@?$vector@PAVxf_t@xlslib_core@@V?$allocator@PAVxf_t@xlslib_core@@@std@@@std@@IBE_NPBQAVxf_t@xlslib_core@@@Z 10018010 f i globalrec.obj
 0001:00017010       ?_Inside@?$vector@PBVlabel_t@xlslib_core@@V?$allocator@PBVlabel_t@xlslib_core@@@std@@@std@@IBE_NPBQBVlabel_t@xlslib_core@@@Z 10018010 f i globalrec.obj
 0001:00017010       ?_Inside@?$vector@V?$basic_string@_WU?$char_traits@_W@std@@V?$allocator@_W@2@@std@@V?$allocator@V?$basic_string@_WU?$char_traits@_W@std@@V?$allocator@_W@2@@std@@@2@@std@@IBE_NPBV?$basic_string@_WU?$char_traits@_W@std@@V?$allocator@_W@2@@2@@Z 10018010 f i cbridge.obj
 0001:00017010       ?_Inside@?$vector@V?$basic_string@DU?$char_traits@D@std@@V?$allocator@D@2@@std@@V?$allocator@V?$basic_string@DU?$char_traits@D@std@@V?$allocator@D@2@@std@@@2@@std@@IBE_NPBV?$basic_string@DU?$char_traits@D@std@@V?$allocator@D@2@@2@@Z 10018010 f i cbridge.obj
 0001:00017010       ?_Inside@?$vector@PAUDataValidation@xlslib_core@@V?$allocator@PAUDataValidation@xlslib_core@@@std@@@std@@IBE_NPBQAUDataValidation@xlslib_core@@@Z 10018010 f i sheetrec.obj
 0001:00017010       ?_Inside@?$vector@PAVboundsheet_t@xlslib_core@@V?$allocator@PAVboundsheet_t@xlslib_core@@@std@@@std@@IBE_NPBQAVboundsheet_t@xlslib_core@@@Z 10018010 f i globalrec.obj
 0001:00017010       ?_Inside@?$vector@NV?$allocator@N@std@@@std@@IBE_NPBN@Z 10018010 f i cbridge.obj
 0001:00017010       ?_Inside@?$vector@PAVCOleProp@xlslib_core@@V?$allocator@PAVCOleProp@xlslib_core@@@std@@@std@@IBE_NPBQAVCOleProp@xlslib_core@@@Z 10018010 f i olefs.obj
 0001:00017010       ?_Inside@?$vector@PAUHyperLink@xlslib_core@@V?$allocator@PAUHyperLink@xlslib_core@@@std@@@std@@IBE_NPBQAUHyperLink@xlslib_core@@@Z 10018010 f i sheetrec.obj
 0001:00017010       ?_Inside@?$vector@PAUstyle_t@xlslib_core@@V?$allocator@PAUstyle_t@xlslib_core@@@std@@@std@@IBE_NPBQAUstyle_t@xlslib_core@@@Z 10018010 f i globalrec.obj
 0001:00017010       ?_Inside@?$vector@Urowblocksize_t@xlslib_core@@V?$allocator@Urowblocksize_t@xlslib_core@@@std@@@std@@IBE_NPBUrowblocksize_t@xlslib_core@@@Z 10018010 f i sheetrec.obj
 0001:00017010       ?_Inside@?$vector@IV?$allocator@I@std@@@std@@IBE_NPBI@Z 10018010 f i sheetrec.obj
 0001:00017010       ?_Inside@?$vector@PAVformula_t@xlslib_core@@V?$allocator@PAVformula_t@xlslib_core@@@std@@@std@@IBE_NPBQAVformula_t@xlslib_core@@@Z 10018010 f i sheetrec.obj
 0001:00017010       ?_Inside@?$vector@PAVrange@xlslib_core@@V?$allocator@PAVrange@xlslib_core@@@std@@@std@@IBE_NPBQAVrange@xlslib_core@@@Z 10018010 f i sheetrec.obj
 0001:00017010       ?_Inside@?$vector@PAVCUnit@xlslib_core@@V?$allocator@PAVCUnit@xlslib_core@@@std@@@std@@IBE_NPBQAVCUnit@xlslib_core@@@Z 10018010 f i datast.obj
 0001:00017010       ?_Inside@?$vector@PAVfont_t@xlslib_core@@V?$allocator@PAVfont_t@xlslib_core@@@std@@@std@@IBE_NPBQAVfont_t@xlslib_core@@@Z 10018010 f i globalrec.obj
 0001:00017030       ?_Reserve@?$vector@V?$basic_string@_WU?$char_traits@_W@std@@V?$allocator@_W@2@@std@@V?$allocator@V?$basic_string@_WU?$char_traits@_W@std@@V?$allocator@_W@2@@std@@@2@@std@@IAEXI@Z 10018030 f i cbridge.obj
 0001:000170c0       ?_Reserve@?$vector@V?$basic_string@DU?$char_traits@D@std@@V?$allocator@D@2@@std@@V?$allocator@V?$basic_string@DU?$char_traits@D@std@@V?$allocator@D@2@@std@@@2@@std@@IAEXI@Z 100180c0 f i cbridge.obj
 0001:00017150       ?_Myptr@?$_String_val@U?$_Simple_types@_S@std@@@std@@QAEPA_SXZ 10018150 f i datast.obj
 0001:00017150       ?_Myptr@?$_String_val@U?$_Simple_types@_S@std@@@std@@QBEPB_SXZ 10018150 f i datast.obj
 0001:00017150       ?_Myptr@?$_String_alloc@U?$_String_base_types@_SV?$allocator@_S@std@@@std@@@std@@QBEPB_SXZ 10018150 f i datast.obj
 0001:00017150       ?c_str@?$basic_string@_WU?$char_traits@_W@std@@V?$allocator@_W@2@@std@@QBEPB_WXZ 10018150 f i binfile.obj
 0001:00017150       ?data@?$basic_string@_WU?$char_traits@_W@std@@V?$allocator@_W@2@@std@@QBEPB_WXZ 10018150 f i globalrec.obj
 0001:00017150       ?_Myptr@?$_String_alloc@U?$_String_base_types@_WV?$allocator@_W@std@@@std@@@std@@QAEPA_WXZ 10018150 f i cbridge.obj
 0001:00017150       ?_Myptr@?$_String_alloc@U?$_String_base_types@_WV?$allocator@_W@std@@@std@@@std@@QBEPB_WXZ 10018150 f i cbridge.obj
 0001:00017150       ?_Myptr@?$_String_val@U?$_Simple_types@_W@std@@@std@@QAEPA_WXZ 10018150 f i cbridge.obj
 0001:00017150       ?_Myptr@?$_String_alloc@U?$_String_base_types@_SV?$allocator@_S@std@@@std@@@std@@QAEPA_SXZ 10018150 f i datast.obj
 0001:00017150       ?_Myptr@?$_String_val@U?$_Simple_types@_W@std@@@std@@QBEPB_WXZ 10018150 f i cbridge.obj
 0001:00017160       ?_Tidy@?$basic_string@_WU?$char_traits@_W@std@@V?$allocator@_W@2@@std@@QAEX_NI@Z 10018160 f i cbridge.obj
 0001:000171d0       ?assign@?$basic_string@_WU?$char_traits@_W@std@@V?$allocator@_W@2@@std@@QAEAAV12@PB_W@Z 100181d0 f i cbridge.obj
 0001:00017220       ?assign@?$basic_string@_WU?$char_traits@_W@std@@V?$allocator@_W@2@@std@@QAEAAV12@PB_WI@Z 10018220 f i cbridge.obj
 0001:00017320       ?append@?$basic_string@_WU?$char_traits@_W@std@@V?$allocator@_W@2@@std@@QAEAAV12@I_W@Z 10018320 f i cbridge.obj
 0001:00017390       ?assign@?$basic_string@DU?$char_traits@D@std@@V?$allocator@D@2@@std@@QAEAAV12@PBD@Z 10018390 f i cbridge.obj
 0001:000173d0       ?append@?$basic_string@DU?$char_traits@D@std@@V?$allocator@D@2@@std@@QAEAAV12@ID@Z 100183d0 f i cbridge.obj
 0001:00017480       ?deallocate@?$_Wrap_alloc@V?$allocator@V?$basic_string@DU?$char_traits@D@std@@V?$allocator@D@2@@std@@@std@@@std@@QAEXPAV?$basic_string@DU?$char_traits@D@std@@V?$allocator@D@2@@2@I@Z 10018480 f i cbridge.obj
 0001:00017480       ?deallocate@?$_Wrap_alloc@V?$allocator@V?$basic_string@_WU?$char_traits@_W@std@@V?$allocator@_W@2@@std@@@std@@@std@@QAEXPAV?$basic_string@_WU?$char_traits@_W@std@@V?$allocator@_W@2@@2@I@Z 10018480 f i cbridge.obj
 0001:00017490       ?deallocate@?$_Wrap_alloc@V?$allocator@N@std@@@std@@QAEXPANI@Z 10018490 f i cbridge.obj
 0001:00017490       ?deallocate@?$allocator@N@std@@QAEXPANI@Z 10018490 f i cbridge.obj
 0001:000174f0       ?_Xlen@?$vector@PAUDataValidation@xlslib_core@@V?$allocator@PAUDataValidation@xlslib_core@@@std@@@std@@IBEXXZ 100184f0 f i sheetrec.obj
 0001:000174f0       ?_Xlen@?$vector@PBVlabel_t@xlslib_core@@V?$allocator@PBVlabel_t@xlslib_core@@@std@@@std@@IBEXXZ 100184f0 f i globalrec.obj
 0001:000174f0       ?_Xlen@?$vector@PAVboundsheet_t@xlslib_core@@V?$allocator@PAVboundsheet_t@xlslib_core@@@std@@@std@@IBEXXZ 100184f0 f i globalrec.obj
 0001:000174f0       ?_Xlen@?$vector@V?$basic_string@_WU?$char_traits@_W@std@@V?$allocator@_W@2@@std@@V?$allocator@V?$basic_string@_WU?$char_traits@_W@std@@V?$allocator@_W@2@@std@@@2@@std@@IBEXXZ 100184f0 f i cbridge.obj
 0001:000174f0       ?_Xlen@?$vector@V?$basic_string@DU?$char_traits@D@std@@V?$allocator@D@2@@std@@V?$allocator@V?$basic_string@DU?$char_traits@D@std@@V?$allocator@D@2@@std@@@2@@std@@IBEXXZ 100184f0 f i cbridge.obj
 0001:000174f0       ?_Xlen@?$vector@Urowblocksize_t@xlslib_core@@V?$allocator@Urowblocksize_t@xlslib_core@@@std@@@std@@IBEXXZ 100184f0 f i sheetrec.obj
 0001:000174f0       ?_Xlen@?$vector@PAVfont_t@xlslib_core@@V?$allocator@PAVfont_t@xlslib_core@@@std@@@std@@IBEXXZ 100184f0 f i globalrec.obj
 0001:000174f0       ?_Xlen@?$vector@VCUnitStore@xlslib_core@@V?$allocator@VCUnitStore@xlslib_core@@@std@@@std@@IBEXXZ 100184f0 f i datast.obj
 0001:000174f0       ?_Xlen@?$vector@PAVrange@xlslib_core@@V?$allocator@PAVrange@xlslib_core@@@std@@@std@@IBEXXZ 100184f0 f i sheetrec.obj
 0001:000174f0       ?_Xlen@?$vector@PAVCOleProp@xlslib_core@@V?$allocator@PAVCOleProp@xlslib_core@@@std@@@std@@IBEXXZ 100184f0 f i olefs.obj
 0001:000174f0       ?_Xlen@?$vector@NV?$allocator@N@std@@@std@@IBEXXZ 100184f0 f i cbridge.obj
 0001:000174f0       ?_Xlen@?$vector@PAVformat_t@xlslib_core@@V?$allocator@PAVformat_t@xlslib_core@@@std@@@std@@IBEXXZ 100184f0 f i globalrec.obj
 0001:000174f0       ?_Xlen@?$vector@PAVworksheet@xlslib_core@@V?$allocator@PAVworksheet@xlslib_core@@@std@@@std@@IBEXXZ 100184f0 f i workbook.obj
 0001:000174f0       ?_Xlen@?$vector@PAUHyperLink@xlslib_core@@V?$allocator@PAUHyperLink@xlslib_core@@@std@@@std@@IBEXXZ 100184f0 f i sheetrec.obj
 0001:000174f0       ?_Xlen@?$vector@PAVxf_t@xlslib_core@@V?$allocator@PAVxf_t@xlslib_core@@@std@@@std@@IBEXXZ 100184f0 f i globalrec.obj
 0001:000174f0       ?_Xlen@?$vector@PAUstyle_t@xlslib_core@@V?$allocator@PAUstyle_t@xlslib_core@@@std@@@std@@IBEXXZ 100184f0 f i globalrec.obj
 0001:000174f0       ?_Xlen@?$vector@PAVformula_t@xlslib_core@@V?$allocator@PAVformula_t@xlslib_core@@@std@@@std@@IBEXXZ 100184f0 f i sheetrec.obj
 0001:000174f0       ?_Xlen@?$vector@PAVrange_t@xlslib_core@@V?$allocator@PAVrange_t@xlslib_core@@@std@@@std@@IBEXXZ 100184f0 f i sheetrec.obj
 0001:000174f0       ?_Xlen@?$vector@PAVCUnit@xlslib_core@@V?$allocator@PAVCUnit@xlslib_core@@@std@@@std@@IBEXXZ 100184f0 f i datast.obj
 0001:000174f0       ?_Xlen@?$vector@IV?$allocator@I@std@@@std@@IBEXXZ 100184f0 f i sheetrec.obj
 0001:00017500       ?_Reallocate@?$vector@NV?$allocator@N@std@@@std@@IAEXI@Z 10018500 f i cbridge.obj
 0001:000175b0       ?_Grow_to@?$vector@NV?$allocator@N@std@@@std@@IBEII@Z 100185b0 f i cbridge.obj
 0001:000175e0       ?max_size@?$allocator@N@std@@QBEIXZ 100185e0 f i cbridge.obj
 0001:000175e0       ?max_size@?$vector@NV?$allocator@N@std@@@std@@QBEIXZ 100185e0 f i cbridge.obj
 0001:000175e0       ?max_size@?$allocator_traits@V?$allocator@N@std@@@std@@SAIABV?$allocator@N@2@@Z 100185e0 f i cbridge.obj
 0001:000175f0       ?size@?$vector@NV?$allocator@N@std@@@std@@QBEIXZ 100185f0 f i cbridge.obj
 0001:00017600       ?_Unused_capacity@?$vector@NV?$allocator@N@std@@@std@@QBEIXZ 10018600 f i cbridge.obj
 0001:00017610       ?_Reallocate@?$vector@V?$basic_string@_WU?$char_traits@_W@std@@V?$allocator@_W@2@@std@@V?$allocator@V?$basic_string@_WU?$char_traits@_W@std@@V?$allocator@_W@2@@std@@@2@@std@@IAEXI@Z 10018610 f i cbridge.obj
 0001:000176b0       ?_Grow_to@?$vector@V?$basic_string@_WU?$char_traits@_W@std@@V?$allocator@_W@2@@std@@V?$allocator@V?$basic_string@_WU?$char_traits@_W@std@@V?$allocator@_W@2@@std@@@2@@std@@IBEII@Z 100186b0 f i cbridge.obj
 0001:000176b0       ?_Grow_to@?$vector@V?$basic_string@DU?$char_traits@D@std@@V?$allocator@D@2@@std@@V?$allocator@V?$basic_string@DU?$char_traits@D@std@@V?$allocator@D@2@@std@@@2@@std@@IBEII@Z 100186b0 f i cbridge.obj
 0001:000176f0       ?_Destroy@?$vector@V?$basic_string@_WU?$char_traits@_W@std@@V?$allocator@_W@2@@std@@V?$allocator@V?$basic_string@_WU?$char_traits@_W@std@@V?$allocator@_W@2@@std@@@2@@std@@IAEXPAV?$basic_string@_WU?$char_traits@_W@std@@V?$allocator@_W@2@@2@0@Z 100186f0 f i cbridge.obj
 0001:00017710       ?max_size@?$vector@V?$basic_string@DU?$char_traits@D@std@@V?$allocator@D@2@@std@@V?$allocator@V?$basic_string@DU?$char_traits@D@std@@V?$allocator@D@2@@std@@@2@@std@@QBEIXZ 10018710 f i cbridge.obj
 0001:00017710       ?max_size@?$allocator_traits@V?$allocator@V?$basic_string@_WU?$char_traits@_W@std@@V?$allocator@_W@2@@std@@@std@@@std@@SAIABV?$allocator@V?$basic_string@_WU?$char_traits@_W@std@@V?$allocator@_W@2@@std@@@2@@Z 10018710 f i cbridge.obj
 0001:00017710       ?max_size@?$allocator@V?$basic_string@_WU?$char_traits@_W@std@@V?$allocator@_W@2@@std@@@std@@QBEIXZ 10018710 f i cbridge.obj
 0001:00017710       ?max_size@?$allocator_traits@V?$allocator@V?$basic_string@DU?$char_traits@D@std@@V?$allocator@D@2@@std@@@std@@@std@@SAIABV?$allocator@V?$basic_string@DU?$char_traits@D@std@@V?$allocator@D@2@@std@@@2@@Z 10018710 f i cbridge.obj
 0001:00017710       ?max_size@?$allocator@V?$basic_string@DU?$char_traits@D@std@@V?$allocator@D@2@@std@@@std@@QBEIXZ 10018710 f i cbridge.obj
 0001:00017710       ?max_size@?$vector@V?$basic_string@_WU?$char_traits@_W@std@@V?$allocator@_W@2@@std@@V?$allocator@V?$basic_string@_WU?$char_traits@_W@std@@V?$allocator@_W@2@@std@@@2@@std@@QBEIXZ 10018710 f i cbridge.obj
 0001:00017720       ?size@?$vector@V?$basic_string@_WU?$char_traits@_W@std@@V?$allocator@_W@2@@std@@V?$allocator@V?$basic_string@_WU?$char_traits@_W@std@@V?$allocator@_W@2@@std@@@2@@std@@QBEIXZ 10018720 f i cbridge.obj
 0001:00017720       ?size@?$vector@V?$basic_string@DU?$char_traits@D@std@@V?$allocator@D@2@@std@@V?$allocator@V?$basic_string@DU?$char_traits@D@std@@V?$allocator@D@2@@std@@@2@@std@@QBEIXZ 10018720 f i cbridge.obj
 0001:00017740       ?_Unused_capacity@?$vector@V?$basic_string@_WU?$char_traits@_W@std@@V?$allocator@_W@2@@std@@V?$allocator@V?$basic_string@_WU?$char_traits@_W@std@@V?$allocator@_W@2@@std@@@2@@std@@QBEIXZ 10018740 f i cbridge.obj
 0001:00017740       ?_Unused_capacity@?$vector@V?$basic_string@DU?$char_traits@D@std@@V?$allocator@D@2@@std@@V?$allocator@V?$basic_string@DU?$char_traits@D@std@@V?$allocator@D@2@@std@@@2@@std@@QBEIXZ 10018740 f i cbridge.obj
 0001:00017760       ?_Reallocate@?$vector@V?$basic_string@DU?$char_traits@D@std@@V?$allocator@D@2@@std@@V?$allocator@V?$basic_string@DU?$char_traits@D@std@@V?$allocator@D@2@@std@@@2@@std@@IAEXI@Z 10018760 f i cbridge.obj
 0001:00017800       ?_Destroy@?$vector@V?$basic_string@DU?$char_traits@D@std@@V?$allocator@D@2@@std@@V?$allocator@V?$basic_string@DU?$char_traits@D@std@@V?$allocator@D@2@@std@@@2@@std@@IAEXPAV?$basic_string@DU?$char_traits@D@std@@V?$allocator@D@2@@2@0@Z 10018800 f i cbridge.obj
 0001:00017820       ?deallocate@?$_Wrap_alloc@V?$allocator@_W@std@@@std@@QAEXPA_WI@Z 10018820 f i cbridge.obj
 0001:00017820       ?deallocate@?$_Wrap_alloc@V?$allocator@_S@std@@@std@@QAEXPA_SI@Z 10018820 f i datast.obj
 0001:00017820       ?deallocate@?$allocator@_W@std@@QAEXPA_WI@Z 10018820 f i cbridge.obj
 0001:00017820       ?deallocate@?$allocator@_S@std@@QAEXPA_SI@Z 10018820 f i datast.obj
 0001:00017880       ?_Inside@?$basic_string@_WU?$char_traits@_W@std@@V?$allocator@_W@2@@std@@QAE_NPB_W@Z 10018880 f i cbridge.obj
 0001:00017880       ?_Inside@?$basic_string@_SU?$char_traits@_S@std@@V?$allocator@_S@2@@std@@QAE_NPB_S@Z 10018880 f i datast.obj
 0001:000178c0       ?_Grow@?$basic_string@_WU?$char_traits@_W@std@@V?$allocator@_W@2@@std@@QAE_NI_N@Z 100188c0 f i cbridge.obj
 0001:00017910       ?_Eos@?$basic_string@_SU?$char_traits@_S@std@@V?$allocator@_S@2@@std@@QAEXI@Z 10018910 f i datast.obj
 0001:00017910       ?_Eos@?$basic_string@_WU?$char_traits@_W@std@@V?$allocator@_W@2@@std@@QAEXI@Z 10018910 f i cbridge.obj
 0001:00017940       ?_Chassign@?$basic_string@_WU?$char_traits@_W@std@@V?$allocator@_W@2@@std@@QAEXII_W@Z 10018940 f i cbridge.obj
 0001:00017940       ?_Chassign@?$basic_string@_SU?$char_traits@_S@std@@V?$allocator@_S@2@@std@@QAEXII_S@Z 10018940 f i note.obj
 0001:00017960       ?assign@?$basic_string@_WU?$char_traits@_W@std@@V?$allocator@_W@2@@std@@QAEAAV12@ABV12@II@Z 10018960 f i cbridge.obj
 0001:00017a90       ?_Assign_rv@?$basic_string@_WU?$char_traits@_W@std@@V?$allocator@_W@2@@std@@QAEX$$QAV12@@Z 10018a90 f i cbridge.obj
 0001:00017b00       ?_Chassign@?$basic_string@DU?$char_traits@D@std@@V?$allocator@D@2@@std@@QAEXIID@Z 10018b00 f i cbridge.obj
 0001:00017b50       ?max_size@?$_Wrap_alloc@V?$allocator@V?$basic_string@_WU?$char_traits@_W@std@@V?$allocator@_W@2@@std@@@std@@@std@@QBEIU_Nil@2@@Z 10018b50 f i cbridge.obj
 0001:00017b50       ?max_size@?$_Wrap_alloc@V?$allocator@V?$basic_string@DU?$char_traits@D@std@@V?$allocator@D@2@@std@@@std@@@std@@QBEIU_Nil@2@@Z 10018b50 f i cbridge.obj
 0001:00017b60       ?allocate@?$_Wrap_alloc@V?$allocator@V?$basic_string@_WU?$char_traits@_W@std@@V?$allocator@_W@2@@std@@@std@@@std@@QAEPAV?$basic_string@_WU?$char_traits@_W@std@@V?$allocator@_W@2@@2@I@Z 10018b60 f i cbridge.obj
 0001:00017b60       ?allocate@?$_Wrap_alloc@V?$allocator@V?$basic_string@DU?$char_traits@D@std@@V?$allocator@D@2@@std@@@std@@@std@@QAEPAV?$basic_string@DU?$char_traits@D@std@@V?$allocator@D@2@@2@I@Z 10018b60 f i cbridge.obj
 0001:00017b70       ?max_size@?$_Wrap_alloc@V?$allocator@N@std@@@std@@QBEIU_Nil@2@@Z 10018b70 f i cbridge.obj
 0001:00017b80       ?allocate@?$allocator@N@std@@QAEPANI@Z 10018b80 f i cbridge.obj
 0001:00017b80       ?allocate@?$_Wrap_alloc@V?$allocator@N@std@@@std@@QAEPANI@Z 10018b80 f i cbridge.obj
 0001:00017be0       ?capacity@?$vector@NV?$allocator@N@std@@@std@@QBEIXZ 10018be0 f i cbridge.obj
 0001:00017bf0       ?capacity@?$vector@V?$basic_string@DU?$char_traits@D@std@@V?$allocator@D@2@@std@@V?$allocator@V?$basic_string@DU?$char_traits@D@std@@V?$allocator@D@2@@std@@@2@@std@@QBEIXZ 10018bf0 f i cbridge.obj
 0001:00017bf0       ?capacity@?$vector@V?$basic_string@_WU?$char_traits@_W@std@@V?$allocator@_W@2@@std@@V?$allocator@V?$basic_string@_WU?$char_traits@_W@std@@V?$allocator@_W@2@@std@@@2@@std@@QBEIXZ 10018bf0 f i cbridge.obj
 0001:00017c10       ?deallocate@?$allocator@V?$basic_string@_WU?$char_traits@_W@std@@V?$allocator@_W@2@@std@@@std@@QAEXPAV?$basic_string@_WU?$char_traits@_W@std@@V?$allocator@_W@2@@2@I@Z 10018c10 f i cbridge.obj
 0001:00017c10       ?deallocate@?$allocator@V?$basic_string@DU?$char_traits@D@std@@V?$allocator@D@2@@std@@@std@@QAEXPAV?$basic_string@DU?$char_traits@D@std@@V?$allocator@D@2@@2@I@Z 10018c10 f i cbridge.obj
 0001:00017c80       ?_Copy@?$basic_string@_WU?$char_traits@_W@std@@V?$allocator@_W@2@@std@@QAEXII@Z 10018c80 f i cbridge.obj
 0001:00017e20       ?max_size@?$basic_string@_WU?$char_traits@_W@std@@V?$allocator@_W@2@@std@@QBEIXZ 10018e20 f i cbridge.obj
 0001:00017e20       ?max_size@?$basic_string@_SU?$char_traits@_S@std@@V?$allocator@_S@2@@std@@QBEIXZ 10018e20 f i datast.obj
 0001:00017e30       ?erase@?$basic_string@_WU?$char_traits@_W@std@@V?$allocator@_W@2@@std@@QAEAAV12@II@Z 10018e30 f i cbridge.obj
 0001:00017ec0       ?erase@?$basic_string@_WU?$char_traits@_W@std@@V?$allocator@_W@2@@std@@QAEAAV12@I@Z 10018ec0 f i cbridge.obj
 0001:00017ec0       ?erase@?$basic_string@_SU?$char_traits@_S@std@@V?$allocator@_S@2@@std@@QAEAAV12@I@Z 10018ec0 f i datast.obj
 0001:00017f00       ?allocate@?$allocator@V?$basic_string@_WU?$char_traits@_W@std@@V?$allocator@_W@2@@std@@@std@@QAEPAV?$basic_string@_WU?$char_traits@_W@std@@V?$allocator@_W@2@@2@I@Z 10018f00 f i cbridge.obj
 0001:00017f00       ?allocate@?$allocator@V?$basic_string@DU?$char_traits@D@std@@V?$allocator@D@2@@std@@@std@@QAEPAV?$basic_string@DU?$char_traits@D@std@@V?$allocator@D@2@@2@I@Z 10018f00 f i cbridge.obj
 0001:00017f60       ?max_size@?$_Wrap_alloc@V?$allocator@_W@std@@@std@@QBEIU_Nil@2@@Z 10018f60 f i cbridge.obj
 0001:00017f60       ?max_size@?$_Wrap_alloc@V?$allocator@_S@std@@@std@@QBEIU_Nil@2@@Z 10018f60 f i datast.obj
 0001:00017f70       ?allocate@?$_Wrap_alloc@V?$allocator@_S@std@@@std@@QAEPA_SI@Z 10018f70 f i datast.obj
 0001:00017f70       ?allocate@?$allocator@_S@std@@QAEPA_SI@Z 10018f70 f i datast.obj
 0001:00017f70       ?allocate@?$allocator@_W@std@@QAEPA_WI@Z 10018f70 f i cbridge.obj
 0001:00017f70       ?allocate@?$_Wrap_alloc@V?$allocator@_W@std@@@std@@QAEPA_WI@Z 10018f70 f i cbridge.obj
 0001:00017fd0       ?max_size@?$allocator@_S@std@@QBEIXZ 10018fd0 f i datast.obj
 0001:00017fd0       ?max_size@?$allocator_traits@V?$allocator@_W@std@@@std@@SAIABV?$allocator@_W@2@@Z 10018fd0 f i cbridge.obj
 0001:00017fd0       ?max_size@?$allocator@_W@std@@QBEIXZ 10018fd0 f i cbridge.obj
 0001:00017fd0       ?max_size@?$allocator_traits@V?$allocator@_S@std@@@std@@SAIABV?$allocator@_S@2@@Z 10018fd0 f i datast.obj
 0001:00017fe0       ??$construct@NABN@?$allocator@N@std@@QAEXPANABN@Z 10018fe0 f i cbridge.obj
 0001:00017fe0       ??$construct@NAAN@?$allocator@N@std@@QAEXPANAAN@Z 10018fe0 f i cbridge.obj
 0001:00017fe0       ??$construct@NABN@?$_Wrap_alloc@V?$allocator@N@std@@@std@@QAEXPANABN@Z 10018fe0 f i cbridge.obj
 0001:00017fe0       ??$construct@NAAN@?$_Wrap_alloc@V?$allocator@N@std@@@std@@QAEXPANAAN@Z 10018fe0 f i cbridge.obj
 0001:00018000       ??$construct@V?$basic_string@_WU?$char_traits@_W@std@@V?$allocator@_W@2@@std@@AAV12@@?$_Wrap_alloc@V?$allocator@V?$basic_string@_WU?$char_traits@_W@std@@V?$allocator@_W@2@@std@@@std@@@std@@QAEXPAV?$basic_string@_WU?$char_traits@_W@std@@V?$allocator@_W@2@@1@AAV21@@Z 10019000 f i cbridge.obj
 0001:00018000       ??$construct@V?$basic_string@_WU?$char_traits@_W@std@@V?$allocator@_W@2@@std@@AAV12@@?$allocator@V?$basic_string@_WU?$char_traits@_W@std@@V?$allocator@_W@2@@std@@@std@@QAEXPAV?$basic_string@_WU?$char_traits@_W@std@@V?$allocator@_W@2@@1@AAV21@@Z 10019000 f i cbridge.obj
 0001:00018000       ??$construct@V?$basic_string@_WU?$char_traits@_W@std@@V?$allocator@_W@2@@std@@ABV12@@?$allocator@V?$basic_string@_WU?$char_traits@_W@std@@V?$allocator@_W@2@@std@@@std@@QAEXPAV?$basic_string@_WU?$char_traits@_W@std@@V?$allocator@_W@2@@1@ABV21@@Z 10019000 f i cbridge.obj
 0001:00018000       ??$construct@V?$basic_string@_WU?$char_traits@_W@std@@V?$allocator@_W@2@@std@@ABV12@@?$_Wrap_alloc@V?$allocator@V?$basic_string@_WU?$char_traits@_W@std@@V?$allocator@_W@2@@std@@@std@@@std@@QAEXPAV?$basic_string@_WU?$char_traits@_W@std@@V?$allocator@_W@2@@1@ABV21@@Z 10019000 f i cbridge.obj
 0001:00018060       ??$construct@V?$basic_string@DU?$char_traits@D@std@@V?$allocator@D@2@@std@@AAV12@@?$_Wrap_alloc@V?$allocator@V?$basic_string@DU?$char_traits@D@std@@V?$allocator@D@2@@std@@@std@@@std@@QAEXPAV?$basic_string@DU?$char_traits@D@std@@V?$allocator@D@2@@1@AAV21@@Z 10019060 f i cbridge.obj
 0001:00018060       ??$construct@V?$basic_string@DU?$char_traits@D@std@@V?$allocator@D@2@@std@@ABV12@@?$_Wrap_alloc@V?$allocator@V?$basic_string@DU?$char_traits@D@std@@V?$allocator@D@2@@std@@@std@@@std@@QAEXPAV?$basic_string@DU?$char_traits@D@std@@V?$allocator@D@2@@1@ABV21@@Z 10019060 f i cbridge.obj
 0001:00018060       ??$construct@V?$basic_string@DU?$char_traits@D@std@@V?$allocator@D@2@@std@@ABV12@@?$allocator@V?$basic_string@DU?$char_traits@D@std@@V?$allocator@D@2@@std@@@std@@QAEXPAV?$basic_string@DU?$char_traits@D@std@@V?$allocator@D@2@@1@ABV21@@Z 10019060 f i cbridge.obj
 0001:00018060       ??$construct@V?$basic_string@DU?$char_traits@D@std@@V?$allocator@D@2@@std@@AAV12@@?$allocator@V?$basic_string@DU?$char_traits@D@std@@V?$allocator@D@2@@std@@@std@@QAEXPAV?$basic_string@DU?$char_traits@D@std@@V?$allocator@D@2@@1@AAV21@@Z 10019060 f i cbridge.obj
 0001:000180c0       ??$?0$$V@?$_Compressed_pair@U?$_Wrap_alloc@V?$allocator@PAVworksheet@xlslib_core@@@std@@@std@@V?$_Vector_val@U?$_Simple_types@PAVworksheet@xlslib_core@@@std@@@2@$00@std@@QAE@U_Zero_then_variadic_args_t@1@@Z 100190c0 f i workbook.obj
 0001:000180c0       ??$?0$$V@?$_Compressed_pair@U?$_Wrap_alloc@V?$allocator@PAVrange_t@xlslib_core@@@std@@@std@@V?$_Vector_val@U?$_Simple_types@PAVrange_t@xlslib_core@@@std@@@2@$00@std@@QAE@U_Zero_then_variadic_args_t@1@@Z 100190c0 f i sheetrec.obj
 0001:000180c0       ??$?0$$V@?$_Compressed_pair@U?$_Wrap_alloc@V?$allocator@PAUDataValidation@xlslib_core@@@std@@@std@@V?$_Vector_val@U?$_Simple_types@PAUDataValidation@xlslib_core@@@std@@@2@$00@std@@QAE@U_Zero_then_variadic_args_t@1@@Z 100190c0 f i sheetrec.obj
 0001:000180c0       ??$?0$$V@?$_Compressed_pair@U?$_Wrap_alloc@V?$allocator@PAVformat_t@xlslib_core@@@std@@@std@@V?$_Vector_val@U?$_Simple_types@PAVformat_t@xlslib_core@@@std@@@2@$00@std@@QAE@U_Zero_then_variadic_args_t@1@@Z 100190c0 f i globalrec.obj
 0001:000180c0       ??$?0$$V@?$_Compressed_pair@U?$_Wrap_alloc@V?$allocator@PAVformula_t@xlslib_core@@@std@@@std@@V?$_Vector_val@U?$_Simple_types@PAVformula_t@xlslib_core@@@std@@@2@$00@std@@QAE@U_Zero_then_variadic_args_t@1@@Z 100190c0 f i sheetrec.obj
 0001:000180c0       ??$?0$$V@?$_Compressed_pair@U?$_Wrap_alloc@V?$allocator@N@std@@@std@@V?$_Vector_val@U?$_Simple_types@N@std@@@2@$00@std@@QAE@U_Zero_then_variadic_args_t@1@@Z 100190c0 f i cbridge.obj
 0001:000180c0       ??$?0$$V@?$_Compressed_pair@U?$_Wrap_alloc@V?$allocator@PAVfont_t@xlslib_core@@@std@@@std@@V?$_Vector_val@U?$_Simple_types@PAVfont_t@xlslib_core@@@std@@@2@$00@std@@QAE@U_Zero_then_variadic_args_t@1@@Z 100190c0 f i globalrec.obj
 0001:000180c0       ??$?0$$V@?$_Compressed_pair@U?$_Wrap_alloc@V?$allocator@Urowblocksize_t@xlslib_core@@@std@@@std@@V?$_Vector_val@U?$_Simple_types@Urowblocksize_t@xlslib_core@@@std@@@2@$00@std@@QAE@U_Zero_then_variadic_args_t@1@@Z 100190c0 f i sheetrec.obj
 0001:000180c0       ??$?0$$V@?$_Compressed_pair@U?$_Wrap_alloc@V?$allocator@PAUHyperLink@xlslib_core@@@std@@@std@@V?$_Vector_val@U?$_Simple_types@PAUHyperLink@xlslib_core@@@std@@@2@$00@std@@QAE@U_Zero_then_variadic_args_t@1@@Z 100190c0 f i sheetrec.obj
 0001:000180c0       ??$?0$$V@?$_Compressed_pair@U?$_Wrap_alloc@V?$allocator@PBVlabel_t@xlslib_core@@@std@@@std@@V?$_Vector_val@U?$_Simple_types@PBVlabel_t@xlslib_core@@@std@@@2@$00@std@@QAE@U_Zero_then_variadic_args_t@1@@Z 100190c0 f i globalrec.obj
 0001:000180c0       ??$?0$$V@?$_Compressed_pair@U?$_Wrap_alloc@V?$allocator@VCUnitStore@xlslib_core@@@std@@@std@@V?$_Vector_val@U?$_Simple_types@VCUnitStore@xlslib_core@@@std@@@2@$00@std@@QAE@U_Zero_then_variadic_args_t@1@@Z 100190c0 f i datast.obj
 0001:000180c0       ??$?0$$V@?$_Compressed_pair@U?$_Wrap_alloc@V?$allocator@PAUstyle_t@xlslib_core@@@std@@@std@@V?$_Vector_val@U?$_Simple_types@PAUstyle_t@xlslib_core@@@std@@@2@$00@std@@QAE@U_Zero_then_variadic_args_t@1@@Z 100190c0 f i globalrec.obj
 0001:000180c0       ??$?0$$V@?$_Compressed_pair@U?$_Wrap_alloc@V?$allocator@PAVrange@xlslib_core@@@std@@@std@@V?$_Vector_val@U?$_Simple_types@PAVrange@xlslib_core@@@std@@@2@$00@std@@QAE@U_Zero_then_variadic_args_t@1@@Z 100190c0 f i sheetrec.obj
 0001:000180c0       ??$?0$$V@?$_Compressed_pair@U?$_Wrap_alloc@V?$allocator@PAVxf_t@xlslib_core@@@std@@@std@@V?$_Vector_val@U?$_Simple_types@PAVxf_t@xlslib_core@@@std@@@2@$00@std@@QAE@U_Zero_then_variadic_args_t@1@@Z 100190c0 f i globalrec.obj
 0001:000180c0       ??$?0$$V@?$_Compressed_pair@U?$_Wrap_alloc@V?$allocator@PAVCUnit@xlslib_core@@@std@@@std@@V?$_Vector_val@U?$_Simple_types@PAVCUnit@xlslib_core@@@std@@@2@$00@std@@QAE@U_Zero_then_variadic_args_t@1@@Z 100190c0 f i datast.obj
 0001:000180c0       ??$?0$$V@?$_Compressed_pair@U?$_Wrap_alloc@V?$allocator@I@std@@@std@@V?$_Vector_val@U?$_Simple_types@I@std@@@2@$00@std@@QAE@U_Zero_then_variadic_args_t@1@@Z 100190c0 f i sheetrec.obj
 0001:000180c0       ??$?0$$V@?$_Compressed_pair@U?$_Wrap_alloc@V?$allocator@PAVboundsheet_t@xlslib_core@@@std@@@std@@V?$_Vector_val@U?$_Simple_types@PAVboundsheet_t@xlslib_core@@@std@@@2@$00@std@@QAE@U_Zero_then_variadic_args_t@1@@Z 100190c0 f i globalrec.obj
 0001:000180c0       ??$?0$$V@?$_Compressed_pair@U?$_Wrap_alloc@V?$allocator@V?$basic_string@_WU?$char_traits@_W@std@@V?$allocator@_W@2@@std@@@std@@@std@@V?$_Vector_val@U?$_Simple_types@V?$basic_string@_WU?$char_traits@_W@std@@V?$allocator@_W@2@@std@@@std@@@2@$00@std@@QAE@U_Zero_then_variadic_args_t@1@@Z 100190c0 f i cbridge.obj
 0001:000180c0       ??$?0$$V@?$_Compressed_pair@U?$_Wrap_alloc@V?$allocator@V?$basic_string@DU?$char_traits@D@std@@V?$allocator@D@2@@std@@@std@@@std@@V?$_Vector_val@U?$_Simple_types@V?$basic_string@DU?$char_traits@D@std@@V?$allocator@D@2@@std@@@std@@@2@$00@std@@QAE@U_Zero_then_variadic_args_t@1@@Z 100190c0 f i cbridge.obj
 0001:000180c0       ??$?0$$V@?$_Compressed_pair@U?$_Wrap_alloc@V?$allocator@PAVCOleProp@xlslib_core@@@std@@@std@@V?$_Vector_val@U?$_Simple_types@PAVCOleProp@xlslib_core@@@std@@@2@$00@std@@QAE@U_Zero_then_variadic_args_t@1@@Z 100190c0 f i oledoc.obj
 0001:000180e0       ??$_Umove@PAPAVrange@xlslib_core@@@?$vector@PAVrange@xlslib_core@@V?$allocator@PAVrange@xlslib_core@@@std@@@std@@IAEPAPAVrange@xlslib_core@@PAPAV23@00@Z 100190e0 f i sheetrec.obj
 0001:000180e0       ??$_Umove@PAI@?$vector@IV?$allocator@I@std@@@std@@IAEPAIPAI00@Z 100190e0 f i sheetrec.obj
 0001:000180e0       ??$_Umove@PAPBVlabel_t@xlslib_core@@@?$vector@PBVlabel_t@xlslib_core@@V?$allocator@PBVlabel_t@xlslib_core@@@std@@@std@@IAEPAPBVlabel_t@xlslib_core@@PAPBV23@00@Z 100190e0 f i globalrec.obj
 0001:000180e0       ??$_Umove@PAN@?$vector@NV?$allocator@N@std@@@std@@IAEPANPAN00@Z 100190e0 f i cbridge.obj
 0001:000180e0       ??$_Umove@PAPAVfont_t@xlslib_core@@@?$vector@PAVfont_t@xlslib_core@@V?$allocator@PAVfont_t@xlslib_core@@@std@@@std@@IAEPAPAVfont_t@xlslib_core@@PAPAV23@00@Z 100190e0 f i globalrec.obj
 0001:000180e0       ??$_Umove@PAPAVformula_t@xlslib_core@@@?$vector@PAVformula_t@xlslib_core@@V?$allocator@PAVformula_t@xlslib_core@@@std@@@std@@IAEPAPAVformula_t@xlslib_core@@PAPAV23@00@Z 100190e0 f i sheetrec.obj
 0001:000180e0       ??$_Umove@PAPAVxf_t@xlslib_core@@@?$vector@PAVxf_t@xlslib_core@@V?$allocator@PAVxf_t@xlslib_core@@@std@@@std@@IAEPAPAVxf_t@xlslib_core@@PAPAV23@00@Z 100190e0 f i globalrec.obj
 0001:000180e0       ??$_Umove@PAPAUDataValidation@xlslib_core@@@?$vector@PAUDataValidation@xlslib_core@@V?$allocator@PAUDataValidation@xlslib_core@@@std@@@std@@IAEPAPAUDataValidation@xlslib_core@@PAPAU23@00@Z 100190e0 f i sheetrec.obj
 0001:000180e0       ??$_Umove@PAPAVCOleProp@xlslib_core@@@?$vector@PAVCOleProp@xlslib_core@@V?$allocator@PAVCOleProp@xlslib_core@@@std@@@std@@IAEPAPAVCOleProp@xlslib_core@@PAPAV23@00@Z 100190e0 f i olefs.obj
 0001:000180e0       ??$_Umove@PAPAVformat_t@xlslib_core@@@?$vector@PAVformat_t@xlslib_core@@V?$allocator@PAVformat_t@xlslib_core@@@std@@@std@@IAEPAPAVformat_t@xlslib_core@@PAPAV23@00@Z 100190e0 f i globalrec.obj
 0001:000180e0       ??$_Umove@PAPAVworksheet@xlslib_core@@@?$vector@PAVworksheet@xlslib_core@@V?$allocator@PAVworksheet@xlslib_core@@@std@@@std@@IAEPAPAVworksheet@xlslib_core@@PAPAV23@00@Z 100190e0 f i workbook.obj
 0001:000180e0       ??$_Umove@PAPAVboundsheet_t@xlslib_core@@@?$vector@PAVboundsheet_t@xlslib_core@@V?$allocator@PAVboundsheet_t@xlslib_core@@@std@@@std@@IAEPAPAVboundsheet_t@xlslib_core@@PAPAV23@00@Z 100190e0 f i globalrec.obj
 0001:000180e0       ??$_Umove@PAPAVCUnit@xlslib_core@@@?$vector@PAVCUnit@xlslib_core@@V?$allocator@PAVCUnit@xlslib_core@@@std@@@std@@IAEPAPAVCUnit@xlslib_core@@PAPAV23@00@Z 100190e0 f i datast.obj
 0001:000180e0       ??$_Umove@PAPAVrange_t@xlslib_core@@@?$vector@PAVrange_t@xlslib_core@@V?$allocator@PAVrange_t@xlslib_core@@@std@@@std@@IAEPAPAVrange_t@xlslib_core@@PAPAV23@00@Z 100190e0 f i sheetrec.obj
 0001:000180e0       ??$_Umove@PAPAUHyperLink@xlslib_core@@@?$vector@PAUHyperLink@xlslib_core@@V?$allocator@PAUHyperLink@xlslib_core@@@std@@@std@@IAEPAPAUHyperLink@xlslib_core@@PAPAU23@00@Z 100190e0 f i sheetrec.obj
 0001:000180e0       ??$_Umove@PAPAUstyle_t@xlslib_core@@@?$vector@PAUstyle_t@xlslib_core@@V?$allocator@PAUstyle_t@xlslib_core@@@std@@@std@@IAEPAPAUstyle_t@xlslib_core@@PAPAU23@00@Z 100190e0 f i globalrec.obj
 0001:00018110       ??$_Umove@PAV?$basic_string@_WU?$char_traits@_W@std@@V?$allocator@_W@2@@std@@@?$vector@V?$basic_string@_WU?$char_traits@_W@std@@V?$allocator@_W@2@@std@@V?$allocator@V?$basic_string@_WU?$char_traits@_W@std@@V?$allocator@_W@2@@std@@@2@@std@@IAEPAV?$basic_string@_WU?$char_traits@_W@std@@V?$allocator@_W@2@@1@PAV21@00@Z 10019110 f i cbridge.obj
 0001:00018140       ??$_Destroy_range@V?$allocator@V?$basic_string@_WU?$char_traits@_W@std@@V?$allocator@_W@2@@std@@@std@@PAV?$basic_string@_WU?$char_traits@_W@std@@V?$allocator@_W@2@@2@@std@@YAXPAV?$basic_string@_WU?$char_traits@_W@std@@V?$allocator@_W@2@@0@0AAU?$_Wrap_alloc@V?$allocator@V?$basic_string@_WU?$char_traits@_W@std@@V?$allocator@_W@2@@std@@@std@@@0@@Z 10019140 f i cbridge.obj
 0001:00018160       ??$_Umove@PAV?$basic_string@DU?$char_traits@D@std@@V?$allocator@D@2@@std@@@?$vector@V?$basic_string@DU?$char_traits@D@std@@V?$allocator@D@2@@std@@V?$allocator@V?$basic_string@DU?$char_traits@D@std@@V?$allocator@D@2@@std@@@2@@std@@IAEPAV?$basic_string@DU?$char_traits@D@std@@V?$allocator@D@2@@1@PAV21@00@Z 10019160 f i cbridge.obj
 0001:00018190       ??$_Destroy_range@V?$allocator@V?$basic_string@DU?$char_traits@D@std@@V?$allocator@D@2@@std@@@std@@PAV?$basic_string@DU?$char_traits@D@std@@V?$allocator@D@2@@2@@std@@YAXPAV?$basic_string@DU?$char_traits@D@std@@V?$allocator@D@2@@0@0AAU?$_Wrap_alloc@V?$allocator@V?$basic_string@DU?$char_traits@D@std@@V?$allocator@D@2@@std@@@std@@@0@@Z 10019190 f i cbridge.obj
 0001:000181b0       ??0?$basic_string@_WU?$char_traits@_W@std@@V?$allocator@_W@2@@std@@QAE@$$QAV01@@Z 100191b0 f i cbridge.obj
 0001:000181e0       ??$construct@NAAN@?$allocator_traits@V?$allocator@N@std@@@std@@SAXAAV?$allocator@N@1@PANAAN@Z 100191e0 f i cbridge.obj
 0001:000181e0       ??$construct@NABN@?$allocator_traits@V?$allocator@N@std@@@std@@SAXAAV?$allocator@N@1@PANABN@Z 100191e0 f i cbridge.obj
 0001:000181f0       ??$construct@V?$basic_string@_WU?$char_traits@_W@std@@V?$allocator@_W@2@@std@@ABV12@@?$allocator_traits@V?$allocator@V?$basic_string@_WU?$char_traits@_W@std@@V?$allocator@_W@2@@std@@@std@@@std@@SAXAAV?$allocator@V?$basic_string@_WU?$char_traits@_W@std@@V?$allocator@_W@2@@std@@@1@PAV?$basic_string@_WU?$char_traits@_W@std@@V?$allocator@_W@2@@1@ABV31@@Z 100191f0 f i cbridge.obj
 0001:000181f0       ??$construct@V?$basic_string@_WU?$char_traits@_W@std@@V?$allocator@_W@2@@std@@AAV12@@?$allocator_traits@V?$allocator@V?$basic_string@_WU?$char_traits@_W@std@@V?$allocator@_W@2@@std@@@std@@@std@@SAXAAV?$allocator@V?$basic_string@_WU?$char_traits@_W@std@@V?$allocator@_W@2@@std@@@1@PAV?$basic_string@_WU?$char_traits@_W@std@@V?$allocator@_W@2@@1@AAV31@@Z 100191f0 f i cbridge.obj
 0001:00018250       ??$construct@V?$basic_string@DU?$char_traits@D@std@@V?$allocator@D@2@@std@@AAV12@@?$allocator_traits@V?$allocator@V?$basic_string@DU?$char_traits@D@std@@V?$allocator@D@2@@std@@@std@@@std@@SAXAAV?$allocator@V?$basic_string@DU?$char_traits@D@std@@V?$allocator@D@2@@std@@@1@PAV?$basic_string@DU?$char_traits@D@std@@V?$allocator@D@2@@1@AAV31@@Z 10019250 f i cbridge.obj
 0001:00018250       ??$construct@V?$basic_string@DU?$char_traits@D@std@@V?$allocator@D@2@@std@@ABV12@@?$allocator_traits@V?$allocator@V?$basic_string@DU?$char_traits@D@std@@V?$allocator@D@2@@std@@@std@@@std@@SAXAAV?$allocator@V?$basic_string@DU?$char_traits@D@std@@V?$allocator@D@2@@std@@@1@PAV?$basic_string@DU?$char_traits@D@std@@V?$allocator@D@2@@1@ABV31@@Z 10019250 f i cbridge.obj
 0001:000182b0       ??$_Uninitialized_move_al_unchecked1@PAVrange_t@xlslib_core@@PAV12@V?$allocator@PAVrange_t@xlslib_core@@@std@@@std@@YAPAPAVrange_t@xlslib_core@@PAPAV12@00AAU?$_Wrap_alloc@V?$allocator@PAVrange_t@xlslib_core@@@std@@@0@U_Really_trivial_ptr_iterator_tag@0@U?$integral_constant@_N$00@0@@Z 100192b0 f i sheetrec.obj
 0001:000182b0       ??$_Move_unchecked1@PAPBVlabel_t@xlslib_core@@PAPBV12@@std@@YAPAPBVlabel_t@xlslib_core@@PAPBV12@00U_Trivially_copyable_ptr_iterator_tag@0@@Z 100192b0 f i globalrec.obj
 0001:000182b0       ??$_Uninitialized_move@PAPAVfont_t@xlslib_core@@PAPAV12@V?$allocator@PAVfont_t@xlslib_core@@@std@@@std@@YAPAPAVfont_t@xlslib_core@@PAPAV12@00AAU?$_Wrap_alloc@V?$allocator@PAVfont_t@xlslib_core@@@std@@@0@@Z 100192b0 f i globalrec.obj
 0001:000182b0       ??$_Uninitialized_move@PAPAVxf_t@xlslib_core@@PAPAV12@V?$allocator@PAVxf_t@xlslib_core@@@std@@@std@@YAPAPAVxf_t@xlslib_core@@PAPAV12@00AAU?$_Wrap_alloc@V?$allocator@PAVxf_t@xlslib_core@@@std@@@0@@Z 100192b0 f i globalrec.obj
 0001:000182b0       ??$_Copy_memmove@PANPAN@std@@YAPANPAN00@Z 100192b0 f i cbridge.obj
 0001:000182b0       ??$_Uninitialized_move_al_unchecked1@PAVxf_t@xlslib_core@@PAV12@V?$allocator@PAVxf_t@xlslib_core@@@std@@@std@@YAPAPAVxf_t@xlslib_core@@PAPAV12@00AAU?$_Wrap_alloc@V?$allocator@PAVxf_t@xlslib_core@@@std@@@0@U_Really_trivial_ptr_iterator_tag@0@U?$integral_constant@_N$00@0@@Z 100192b0 f i globalrec.obj
 0001:000182b0       ??$_Uninitialized_move@PANPANV?$allocator@N@std@@@std@@YAPANPAN00AAU?$_Wrap_alloc@V?$allocator@N@std@@@0@@Z 100192b0 f i cbridge.obj
 0001:000182b0       ??$_Uninitialized_move_al_unchecked@PAPAUstyle_t@xlslib_core@@PAPAU12@V?$allocator@PAUstyle_t@xlslib_core@@@std@@@std@@YAPAPAUstyle_t@xlslib_core@@PAPAU12@00AAU?$_Wrap_alloc@V?$allocator@PAUstyle_t@xlslib_core@@@std@@@0@@Z 100192b0 f i globalrec.obj
 0001:000182b0       ??$_Uninitialized_move_al_unchecked@PAPAUHyperLink@xlslib_core@@PAPAU12@V?$allocator@PAUHyperLink@xlslib_core@@@std@@@std@@YAPAPAUHyperLink@xlslib_core@@PAPAU12@00AAU?$_Wrap_alloc@V?$allocator@PAUHyperLink@xlslib_core@@@std@@@0@@Z 100192b0 f i sheetrec.obj
 0001:000182b0       ??$_Move_unchecked@PAPBVlabel_t@xlslib_core@@PAPBV12@@std@@YAPAPBVlabel_t@xlslib_core@@PAPBV12@00@Z 100192b0 f i globalrec.obj
 0001:000182b0       ??$_Copy_memmove@PAPAUHyperLink@xlslib_core@@PAPAU12@@std@@YAPAPAUHyperLink@xlslib_core@@PAPAU12@00@Z 100192b0 f i sheetrec.obj
 0001:000182b0       ??$_Copy_memmove@PAPAVrange_t@xlslib_core@@PAPAV12@@std@@YAPAPAVrange_t@xlslib_core@@PAPAV12@00@Z 100192b0 f i sheetrec.obj
 0001:000182b0       ??$_Uninitialized_move@PAPAVrange@xlslib_core@@PAPAV12@V?$allocator@PAVrange@xlslib_core@@@std@@@std@@YAPAPAVrange@xlslib_core@@PAPAV12@00AAU?$_Wrap_alloc@V?$allocator@PAVrange@xlslib_core@@@std@@@0@@Z 100192b0 f i sheetrec.obj
 0001:000182b0       ??$_Uninitialized_move_al_unchecked@PANPANV?$allocator@N@std@@@std@@YAPANPAN00AAU?$_Wrap_alloc@V?$allocator@N@std@@@0@@Z 100192b0 f i cbridge.obj
 0001:000182b0       ??$_Copy_memmove@PAPAVrange@xlslib_core@@PAPAV12@@std@@YAPAPAVrange@xlslib_core@@PAPAV12@00@Z 100192b0 f i sheetrec.obj
 0001:000182b0       ??$_Uninitialized_move@PAPAVformat_t@xlslib_core@@PAPAV12@V?$allocator@PAVformat_t@xlslib_core@@@std@@@std@@YAPAPAVformat_t@xlslib_core@@PAPAV12@00AAU?$_Wrap_alloc@V?$allocator@PAVformat_t@xlslib_core@@@std@@@0@@Z 100192b0 f i globalrec.obj
 0001:000182b0       ??$_Copy_memmove@PAPAVformula_t@xlslib_core@@PAPAV12@@std@@YAPAPAVformula_t@xlslib_core@@PAPAV12@00@Z 100192b0 f i sheetrec.obj
 0001:000182b0       ??$_Uninitialized_move@PAPAVworksheet@xlslib_core@@PAPAV12@V?$allocator@PAVworksheet@xlslib_core@@@std@@@std@@YAPAPAVworksheet@xlslib_core@@PAPAV12@00AAU?$_Wrap_alloc@V?$allocator@PAVworksheet@xlslib_core@@@std@@@0@@Z 100192b0 f i workbook.obj
 0001:000182b0       ??$_Copy_memmove@PAPAUstyle_t@xlslib_core@@PAPAU12@@std@@YAPAPAUstyle_t@xlslib_core@@PAPAU12@00@Z 100192b0 f i globalrec.obj
 0001:000182b0       ??$_Uninitialized_move_al_unchecked@PAPBVlabel_t@xlslib_core@@PAPBV12@V?$allocator@PBVlabel_t@xlslib_core@@@std@@@std@@YAPAPBVlabel_t@xlslib_core@@PAPBV12@00AAU?$_Wrap_alloc@V?$allocator@PBVlabel_t@xlslib_core@@@std@@@0@@Z 100192b0 f i globalrec.obj
 0001:000182b0       ??$_Uninitialized_move_al_unchecked1@NNV?$allocator@N@std@@@std@@YAPANPAN00AAU?$_Wrap_alloc@V?$allocator@N@std@@@0@U_Really_trivial_ptr_iterator_tag@0@U?$integral_constant@_N$00@0@@Z 100192b0 f i cbridge.obj
 0001:000182b0       ??$_Uninitialized_move_al_unchecked1@PAVCUnit@xlslib_core@@PAV12@V?$allocator@PAVCUnit@xlslib_core@@@std@@@std@@YAPAPAVCUnit@xlslib_core@@PAPAV12@00AAU?$_Wrap_alloc@V?$allocator@PAVCUnit@xlslib_core@@@std@@@0@U_Really_trivial_ptr_iterator_tag@0@U?$integral_constant@_N$00@0@@Z 100192b0 f i datast.obj
 0001:000182b0       ??$_Copy_memmove@PAPAVworksheet@xlslib_core@@PAPAV12@@std@@YAPAPAVworksheet@xlslib_core@@PAPAV12@00@Z 100192b0 f i workbook.obj
 0001:000182b0       ??$_Uninitialized_move@PAPAVrange_t@xlslib_core@@PAPAV12@V?$allocator@PAVrange_t@xlslib_core@@@std@@@std@@YAPAPAVrange_t@xlslib_core@@PAPAV12@00AAU?$_Wrap_alloc@V?$allocator@PAVrange_t@xlslib_core@@@std@@@0@@Z 100192b0 f i sheetrec.obj
 0001:000182b0       ??$_Uninitialized_move_al_unchecked@PAIPAIV?$allocator@I@std@@@std@@YAPAIPAI00AAU?$_Wrap_alloc@V?$allocator@I@std@@@0@@Z 100192b0 f i sheetrec.obj
 0001:000182b0       ??$_Uninitialized_move_al_unchecked1@PAUstyle_t@xlslib_core@@PAU12@V?$allocator@PAUstyle_t@xlslib_core@@@std@@@std@@YAPAPAUstyle_t@xlslib_core@@PAPAU12@00AAU?$_Wrap_alloc@V?$allocator@PAUstyle_t@xlslib_core@@@std@@@0@U_Really_trivial_ptr_iterator_tag@0@U?$integral_constant@_N$00@0@@Z 100192b0 f i globalrec.obj
 0001:000182b0       ??$_Uninitialized_move@PAPAVCOleProp@xlslib_core@@PAPAV12@V?$allocator@PAVCOleProp@xlslib_core@@@std@@@std@@YAPAPAVCOleProp@xlslib_core@@PAPAV12@00AAU?$_Wrap_alloc@V?$allocator@PAVCOleProp@xlslib_core@@@std@@@0@@Z 100192b0 f i olefs.obj
 0001:000182b0       ??$_Copy_memmove@PAIPAI@std@@YAPAIPAI00@Z 100192b0 f i sheetrec.obj
 0001:000182b0       ??$_Uninitialized_move_al_unchecked@PAPAUDataValidation@xlslib_core@@PAPAU12@V?$allocator@PAUDataValidation@xlslib_core@@@std@@@std@@YAPAPAUDataValidation@xlslib_core@@PAPAU12@00AAU?$_Wrap_alloc@V?$allocator@PAUDataValidation@xlslib_core@@@std@@@0@@Z 100192b0 f i sheetrec.obj
 0001:000182b0       ??$_Uninitialized_move_al_unchecked1@PAVformula_t@xlslib_core@@PAV12@V?$allocator@PAVformula_t@xlslib_core@@@std@@@std@@YAPAPAVformula_t@xlslib_core@@PAPAV12@00AAU?$_Wrap_alloc@V?$allocator@PAVformula_t@xlslib_core@@@std@@@0@U_Really_trivial_ptr_iterator_tag@0@U?$integral_constant@_N$00@0@@Z 100192b0 f i sheetrec.obj
 0001:000182b0       ??$_Uninitialized_move@PAPAVCUnit@xlslib_core@@PAPAV12@V?$allocator@PAVCUnit@xlslib_core@@@std@@@std@@YAPAPAVCUnit@xlslib_core@@PAPAV12@00AAU?$_Wrap_alloc@V?$allocator@PAVCUnit@xlslib_core@@@std@@@0@@Z 100192b0 f i datast.obj
 0001:000182b0       ??$_Copy_memmove@PAPAUDataValidation@xlslib_core@@PAPAU12@@std@@YAPAPAUDataValidation@xlslib_core@@PAPAU12@00@Z 100192b0 f i sheetrec.obj
 0001:000182b0       ??$_Uninitialized_move_al_unchecked1@PBVlabel_t@xlslib_core@@PBV12@V?$allocator@PBVlabel_t@xlslib_core@@@std@@@std@@YAPAPBVlabel_t@xlslib_core@@PAPBV12@00AAU?$_Wrap_alloc@V?$allocator@PBVlabel_t@xlslib_core@@@std@@@0@U_Really_trivial_ptr_iterator_tag@0@U?$integral_constant@_N$00@0@@Z 100192b0 f i globalrec.obj
 0001:000182b0       ??$_Uninitialized_move_al_unchecked1@PAUDataValidation@xlslib_core@@PAU12@V?$allocator@PAUDataValidation@xlslib_core@@@std@@@std@@YAPAPAUDataValidation@xlslib_core@@PAPAU12@00AAU?$_Wrap_alloc@V?$allocator@PAUDataValidation@xlslib_core@@@std@@@0@U_Really_trivial_ptr_iterator_tag@0@U?$integral_constant@_N$00@0@@Z 100192b0 f i sheetrec.obj
 0001:000182b0       ??$_Uninitialized_move_al_unchecked1@PAVrange@xlslib_core@@PAV12@V?$allocator@PAVrange@xlslib_core@@@std@@@std@@YAPAPAVrange@xlslib_core@@PAPAV12@00AAU?$_Wrap_alloc@V?$allocator@PAVrange@xlslib_core@@@std@@@0@U_Really_trivial_ptr_iterator_tag@0@U?$integral_constant@_N$00@0@@Z 100192b0 f i sheetrec.obj
 0001:000182b0       ??$_Copy_memmove@PAPBVlabel_t@xlslib_core@@PAPBV12@@std@@YAPAPBVlabel_t@xlslib_core@@PAPBV12@00@Z 100192b0 f i globalrec.obj
 0001:000182b0       ??$_Uninitialized_move_al_unchecked@PAPAVxf_t@xlslib_core@@PAPAV12@V?$allocator@PAVxf_t@xlslib_core@@@std@@@std@@YAPAPAVxf_t@xlslib_core@@PAPAV12@00AAU?$_Wrap_alloc@V?$allocator@PAVxf_t@xlslib_core@@@std@@@0@@Z 100192b0 f i globalrec.obj
 0001:000182b0       ??$_Uninitialized_move@PAIPAIV?$allocator@I@std@@@std@@YAPAIPAI00AAU?$_Wrap_alloc@V?$allocator@I@std@@@0@@Z 100192b0 f i sheetrec.obj
 0001:000182b0       ??$_Uninitialized_move_al_unchecked@PAPAVformula_t@xlslib_core@@PAPAV12@V?$allocator@PAVformula_t@xlslib_core@@@std@@@std@@YAPAPAVformula_t@xlslib_core@@PAPAV12@00AAU?$_Wrap_alloc@V?$allocator@PAVformula_t@xlslib_core@@@std@@@0@@Z 100192b0 f i sheetrec.obj
 0001:000182b0       ??$_Uninitialized_move_al_unchecked1@PAVCOleProp@xlslib_core@@PAV12@V?$allocator@PAVCOleProp@xlslib_core@@@std@@@std@@YAPAPAVCOleProp@xlslib_core@@PAPAV12@00AAU?$_Wrap_alloc@V?$allocator@PAVCOleProp@xlslib_core@@@std@@@0@U_Really_trivial_ptr_iterator_tag@0@U?$integral_constant@_N$00@0@@Z 100192b0 f i olefs.obj
 0001:000182b0       ??$_Uninitialized_move_al_unchecked@PAPAVfont_t@xlslib_core@@PAPAV12@V?$allocator@PAVfont_t@xlslib_core@@@std@@@std@@YAPAPAVfont_t@xlslib_core@@PAPAV12@00AAU?$_Wrap_alloc@V?$allocator@PAVfont_t@xlslib_core@@@std@@@0@@Z 100192b0 f i globalrec.obj
 0001:000182b0       ??$_Uninitialized_move_al_unchecked@PAPAVCUnit@xlslib_core@@PAPAV12@V?$allocator@PAVCUnit@xlslib_core@@@std@@@std@@YAPAPAVCUnit@xlslib_core@@PAPAV12@00AAU?$_Wrap_alloc@V?$allocator@PAVCUnit@xlslib_core@@@std@@@0@@Z 100192b0 f i datast.obj
 0001:000182b0       ??$_Uninitialized_move_al_unchecked@PAPAVrange@xlslib_core@@PAPAV12@V?$allocator@PAVrange@xlslib_core@@@std@@@std@@YAPAPAVrange@xlslib_core@@PAPAV12@00AAU?$_Wrap_alloc@V?$allocator@PAVrange@xlslib_core@@@std@@@0@@Z 100192b0 f i sheetrec.obj
 0001:000182b0       ??$_Uninitialized_move@PAPAUHyperLink@xlslib_core@@PAPAU12@V?$allocator@PAUHyperLink@xlslib_core@@@std@@@std@@YAPAPAUHyperLink@xlslib_core@@PAPAU12@00AAU?$_Wrap_alloc@V?$allocator@PAUHyperLink@xlslib_core@@@std@@@0@@Z 100192b0 f i sheetrec.obj
 0001:000182b0       ??$_Uninitialized_move_al_unchecked@PAPAVworksheet@xlslib_core@@PAPAV12@V?$allocator@PAVworksheet@xlslib_core@@@std@@@std@@YAPAPAVworksheet@xlslib_core@@PAPAV12@00AAU?$_Wrap_alloc@V?$allocator@PAVworksheet@xlslib_core@@@std@@@0@@Z 100192b0 f i workbook.obj
 0001:000182b0       ??$_Uninitialized_move_al_unchecked1@PAVfont_t@xlslib_core@@PAV12@V?$allocator@PAVfont_t@xlslib_core@@@std@@@std@@YAPAPAVfont_t@xlslib_core@@PAPAV12@00AAU?$_Wrap_alloc@V?$allocator@PAVfont_t@xlslib_core@@@std@@@0@U_Really_trivial_ptr_iterator_tag@0@U?$integral_constant@_N$00@0@@Z 100192b0 f i globalrec.obj
 0001:000182b0       ??$_Uninitialized_move@PAPAUDataValidation@xlslib_core@@PAPAU12@V?$allocator@PAUDataValidation@xlslib_core@@@std@@@std@@YAPAPAUDataValidation@xlslib_core@@PAPAU12@00AAU?$_Wrap_alloc@V?$allocator@PAUDataValidation@xlslib_core@@@std@@@0@@Z 100192b0 f i sheetrec.obj
 0001:000182b0       ??$_Uninitialized_move@PAPAUstyle_t@xlslib_core@@PAPAU12@V?$allocator@PAUstyle_t@xlslib_core@@@std@@@std@@YAPAPAUstyle_t@xlslib_core@@PAPAU12@00AAU?$_Wrap_alloc@V?$allocator@PAUstyle_t@xlslib_core@@@std@@@0@@Z 100192b0 f i globalrec.obj
 0001:000182b0       ??$_Copy_memmove@PAPAVCOleProp@xlslib_core@@PAPAV12@@std@@YAPAPAVCOleProp@xlslib_core@@PAPAV12@00@Z 100192b0 f i olefs.obj
 0001:000182b0       ??$_Uninitialized_move_al_unchecked1@IIV?$allocator@I@std@@@std@@YAPAIPAI00AAU?$_Wrap_alloc@V?$allocator@I@std@@@0@U_Really_trivial_ptr_iterator_tag@0@U?$integral_constant@_N$00@0@@Z 100192b0 f i sheetrec.obj
 0001:000182b0       ??$_Uninitialized_move_al_unchecked@PAPAVformat_t@xlslib_core@@PAPAV12@V?$allocator@PAVformat_t@xlslib_core@@@std@@@std@@YAPAPAVformat_t@xlslib_core@@PAPAV12@00AAU?$_Wrap_alloc@V?$allocator@PAVformat_t@xlslib_core@@@std@@@0@@Z 100192b0 f i globalrec.obj
 0001:000182b0       ??$_Uninitialized_move_al_unchecked1@PAVboundsheet_t@xlslib_core@@PAV12@V?$allocator@PAVboundsheet_t@xlslib_core@@@std@@@std@@YAPAPAVboundsheet_t@xlslib_core@@PAPAV12@00AAU?$_Wrap_alloc@V?$allocator@PAVboundsheet_t@xlslib_core@@@std@@@0@U_Really_trivial_ptr_iterator_tag@0@U?$integral_constant@_N$00@0@@Z 100192b0 f i globalrec.obj
 0001:000182b0       ??$_Uninitialized_move@PAPAVformula_t@xlslib_core@@PAPAV12@V?$allocator@PAVformula_t@xlslib_core@@@std@@@std@@YAPAPAVformula_t@xlslib_core@@PAPAV12@00AAU?$_Wrap_alloc@V?$allocator@PAVformula_t@xlslib_core@@@std@@@0@@Z 100192b0 f i sheetrec.obj
 0001:000182b0       ??$_Uninitialized_move_al_unchecked@PAPAVboundsheet_t@xlslib_core@@PAPAV12@V?$allocator@PAVboundsheet_t@xlslib_core@@@std@@@std@@YAPAPAVboundsheet_t@xlslib_core@@PAPAV12@00AAU?$_Wrap_alloc@V?$allocator@PAVboundsheet_t@xlslib_core@@@std@@@0@@Z 100192b0 f i globalrec.obj
 0001:000182b0       ??$_Uninitialized_move_al_unchecked@PAPAVrange_t@xlslib_core@@PAPAV12@V?$allocator@PAVrange_t@xlslib_core@@@std@@@std@@YAPAPAVrange_t@xlslib_core@@PAPAV12@00AAU?$_Wrap_alloc@V?$allocator@PAVrange_t@xlslib_core@@@std@@@0@@Z 100192b0 f i sheetrec.obj
 0001:000182b0       ??$_Uninitialized_move@PAPBVlabel_t@xlslib_core@@PAPBV12@V?$allocator@PBVlabel_t@xlslib_core@@@std@@@std@@YAPAPBVlabel_t@xlslib_core@@PAPBV12@00AAU?$_Wrap_alloc@V?$allocator@PBVlabel_t@xlslib_core@@@std@@@0@@Z 100192b0 f i globalrec.obj
 0001:000182b0       ??$_Uninitialized_move_al_unchecked@PAPAVCOleProp@xlslib_core@@PAPAV12@V?$allocator@PAVCOleProp@xlslib_core@@@std@@@std@@YAPAPAVCOleProp@xlslib_core@@PAPAV12@00AAU?$_Wrap_alloc@V?$allocator@PAVCOleProp@xlslib_core@@@std@@@0@@Z 100192b0 f i olefs.obj
 0001:000182b0       ??$_Copy_memmove@PAPAVboundsheet_t@xlslib_core@@PAPAV12@@std@@YAPAPAVboundsheet_t@xlslib_core@@PAPAV12@00@Z 100192b0 f i globalrec.obj
 0001:000182b0       ??$_Uninitialized_move_al_unchecked1@PAUHyperLink@xlslib_core@@PAU12@V?$allocator@PAUHyperLink@xlslib_core@@@std@@@std@@YAPAPAUHyperLink@xlslib_core@@PAPAU12@00AAU?$_Wrap_alloc@V?$allocator@PAUHyperLink@xlslib_core@@@std@@@0@U_Really_trivial_ptr_iterator_tag@0@U?$integral_constant@_N$00@0@@Z 100192b0 f i sheetrec.obj
 0001:000182b0       ??$_Uninitialized_move_al_unchecked1@PAVworksheet@xlslib_core@@PAV12@V?$allocator@PAVworksheet@xlslib_core@@@std@@@std@@YAPAPAVworksheet@xlslib_core@@PAPAV12@00AAU?$_Wrap_alloc@V?$allocator@PAVworksheet@xlslib_core@@@std@@@0@U_Really_trivial_ptr_iterator_tag@0@U?$integral_constant@_N$00@0@@Z 100192b0 f i workbook.obj
 0001:000182b0       ??$_Copy_memmove@PAPAVformat_t@xlslib_core@@PAPAV12@@std@@YAPAPAVformat_t@xlslib_core@@PAPAV12@00@Z 100192b0 f i globalrec.obj
 0001:000182b0       ??$_Copy_memmove@PAPAVCUnit@xlslib_core@@PAPAV12@@std@@YAPAPAVCUnit@xlslib_core@@PAPAV12@00@Z 100192b0 f i datast.obj
 0001:000182b0       ??$_Uninitialized_move_al_unchecked1@PAVformat_t@xlslib_core@@PAV12@V?$allocator@PAVformat_t@xlslib_core@@@std@@@std@@YAPAPAVformat_t@xlslib_core@@PAPAV12@00AAU?$_Wrap_alloc@V?$allocator@PAVformat_t@xlslib_core@@@std@@@0@U_Really_trivial_ptr_iterator_tag@0@U?$integral_constant@_N$00@0@@Z 100192b0 f i globalrec.obj
 0001:000182b0       ??$_Copy_memmove@PAPAVfont_t@xlslib_core@@PAPAV12@@std@@YAPAPAVfont_t@xlslib_core@@PAPAV12@00@Z 100192b0 f i globalrec.obj
 0001:000182b0       ??$_Copy_memmove@PAPAVxf_t@xlslib_core@@PAPAV12@@std@@YAPAPAVxf_t@xlslib_core@@PAPAV12@00@Z 100192b0 f i globalrec.obj
 0001:000182b0       ??$_Uninitialized_move@PAPAVboundsheet_t@xlslib_core@@PAPAV12@V?$allocator@PAVboundsheet_t@xlslib_core@@@std@@@std@@YAPAPAVboundsheet_t@xlslib_core@@PAPAV12@00AAU?$_Wrap_alloc@V?$allocator@PAVboundsheet_t@xlslib_core@@@std@@@0@@Z 100192b0 f i globalrec.obj
 0001:000182d0       ??$_Uninitialized_move@PAV?$basic_string@_WU?$char_traits@_W@std@@V?$allocator@_W@2@@std@@PAV12@V?$allocator@V?$basic_string@_WU?$char_traits@_W@std@@V?$allocator@_W@2@@std@@@2@@std@@YAPAV?$basic_string@_WU?$char_traits@_W@std@@V?$allocator@_W@2@@0@PAV10@00AAU?$_Wrap_alloc@V?$allocator@V?$basic_string@_WU?$char_traits@_W@std@@V?$allocator@_W@2@@std@@@std@@@0@@Z 100192d0 f i cbridge.obj
 0001:000182d0       ??$_Uninitialized_move_al_unchecked@PAV?$basic_string@_WU?$char_traits@_W@std@@V?$allocator@_W@2@@std@@PAV12@V?$allocator@V?$basic_string@_WU?$char_traits@_W@std@@V?$allocator@_W@2@@std@@@2@@std@@YAPAV?$basic_string@_WU?$char_traits@_W@std@@V?$allocator@_W@2@@0@PAV10@00AAU?$_Wrap_alloc@V?$allocator@V?$basic_string@_WU?$char_traits@_W@std@@V?$allocator@_W@2@@std@@@std@@@0@@Z 100192d0 f i cbridge.obj
 0001:000182f0       ??$_Destroy_range1@V?$allocator@V?$basic_string@_WU?$char_traits@_W@std@@V?$allocator@_W@2@@std@@@std@@PAV?$basic_string@_WU?$char_traits@_W@std@@V?$allocator@_W@2@@2@@std@@YAXPAV?$basic_string@_WU?$char_traits@_W@std@@V?$allocator@_W@2@@0@0AAU?$_Wrap_alloc@V?$allocator@V?$basic_string@_WU?$char_traits@_W@std@@V?$allocator@_W@2@@std@@@std@@@0@U?$integral_constant@_N$0A@@0@@Z 100192f0 f i cbridge.obj
 0001:00018380       ??$_Uninitialized_move@PAV?$basic_string@DU?$char_traits@D@std@@V?$allocator@D@2@@std@@PAV12@V?$allocator@V?$basic_string@DU?$char_traits@D@std@@V?$allocator@D@2@@std@@@2@@std@@YAPAV?$basic_string@DU?$char_traits@D@std@@V?$allocator@D@2@@0@PAV10@00AAU?$_Wrap_alloc@V?$allocator@V?$basic_string@DU?$char_traits@D@std@@V?$allocator@D@2@@std@@@std@@@0@@Z 10019380 f i cbridge.obj
 0001:00018380       ??$_Uninitialized_move_al_unchecked@PAV?$basic_string@DU?$char_traits@D@std@@V?$allocator@D@2@@std@@PAV12@V?$allocator@V?$basic_string@DU?$char_traits@D@std@@V?$allocator@D@2@@std@@@2@@std@@YAPAV?$basic_string@DU?$char_traits@D@std@@V?$allocator@D@2@@0@PAV10@00AAU?$_Wrap_alloc@V?$allocator@V?$basic_string@DU?$char_traits@D@std@@V?$allocator@D@2@@std@@@std@@@0@@Z 10019380 f i cbridge.obj
 0001:000183a0       ??$_Destroy_range1@V?$allocator@V?$basic_string@DU?$char_traits@D@std@@V?$allocator@D@2@@std@@@std@@PAV?$basic_string@DU?$char_traits@D@std@@V?$allocator@D@2@@2@@std@@YAXPAV?$basic_string@DU?$char_traits@D@std@@V?$allocator@D@2@@0@0AAU?$_Wrap_alloc@V?$allocator@V?$basic_string@DU?$char_traits@D@std@@V?$allocator@D@2@@std@@@std@@@0@U?$integral_constant@_N$0A@@0@@Z 100193a0 f i cbridge.obj
 0001:00018420       ??$_Rechecked@V?$_Vector_val@U?$_Simple_types@VCUnitStore@xlslib_core@@@std@@@std@@@std@@YAAAV?$_Vector_iterator@V?$_Vector_val@U?$_Simple_types@VCUnitStore@xlslib_core@@@std@@@std@@@0@AAV10@PAVCUnitStore@xlslib_core@@@Z 10019420 f i datast.obj
 0001:00018420       ??$_Rechecked@PAVCUnitStore@xlslib_core@@PAV12@@std@@YAAAPAVCUnitStore@xlslib_core@@AAPAV12@PAV12@@Z 10019420 f i datast.obj
 0001:00018420       ??$_Rechecked@PAPAVworksheet@xlslib_core@@PAPAV12@@std@@YAAAPAPAVworksheet@xlslib_core@@AAPAPAV12@PAPAV12@@Z 10019420 f i workbook.obj
 0001:00018420       ??$_Rechecked@PAPAUDataValidation@xlslib_core@@PAPAU12@@std@@YAAAPAPAUDataValidation@xlslib_core@@AAPAPAU12@PAPAU12@@Z 10019420 f i sheetrec.obj
 0001:00018420       ??$_Rechecked@PAPAVrange@xlslib_core@@PAPAV12@@std@@YAAAPAPAVrange@xlslib_core@@AAPAPAV12@PAPAV12@@Z 10019420 f i sheetrec.obj
 0001:00018420       ??$_Rechecked@PAPAVCUnit@xlslib_core@@PAPAV12@@std@@YAAAPAPAVCUnit@xlslib_core@@AAPAPAV12@PAPAV12@@Z 10019420 f i datast.obj
 0001:00018420       ??$_Rechecked@PAPAUHyperLink@xlslib_core@@PAPAU12@@std@@YAAAPAPAUHyperLink@xlslib_core@@AAPAPAU12@PAPAU12@@Z 10019420 f i sheetrec.obj
 0001:00018420       ??$_Rechecked@PAV?$basic_string@DU?$char_traits@D@std@@V?$allocator@D@2@@std@@PAV12@@std@@YAAAPAV?$basic_string@DU?$char_traits@D@std@@V?$allocator@D@2@@0@AAPAV10@PAV10@@Z 10019420 f i cbridge.obj
 0001:00018420       ??$_Rechecked@PAUrowblocksize_t@xlslib_core@@PAU12@@std@@YAAAPAUrowblocksize_t@xlslib_core@@AAPAU12@PAU12@@Z 10019420 f i sheetrec.obj
 0001:00018420       ??$_Rechecked@PAIPAI@std@@YAAAPAIAAPAIPAI@Z 10019420 f i sheetrec.obj
 0001:00018420       ??$_Rechecked@PANPAN@std@@YAAAPANAAPANPAN@Z 10019420 f i cbridge.obj
 0001:00018420       ??$_Rechecked@PAPAVfont_t@xlslib_core@@PAPAV12@@std@@YAAAPAPAVfont_t@xlslib_core@@AAPAPAV12@PAPAV12@@Z 10019420 f i globalrec.obj
 0001:00018420       ??$_Rechecked@PAPAVxf_t@xlslib_core@@PAPAV12@@std@@YAAAPAPAVxf_t@xlslib_core@@AAPAPAV12@PAPAV12@@Z 10019420 f i globalrec.obj
 0001:00018420       ??$_Rechecked@PAPAVCOleProp@xlslib_core@@PAPAV12@@std@@YAAAPAPAVCOleProp@xlslib_core@@AAPAPAV12@PAPAV12@@Z 10019420 f i olefs.obj
 0001:00018420       ??$_Rechecked@PAPAVrange_t@xlslib_core@@PAPAV12@@std@@YAAAPAPAVrange_t@xlslib_core@@AAPAPAV12@PAPAV12@@Z 10019420 f i sheetrec.obj
 0001:00018420       ??$_Rechecked@PAV?$basic_string@_WU?$char_traits@_W@std@@V?$allocator@_W@2@@std@@PAV12@@std@@YAAAPAV?$basic_string@_WU?$char_traits@_W@std@@V?$allocator@_W@2@@0@AAPAV10@PAV10@@Z 10019420 f i cbridge.obj
 0001:00018420       ??$_Rechecked@PAPAVboundsheet_t@xlslib_core@@PAPAV12@@std@@YAAAPAPAVboundsheet_t@xlslib_core@@AAPAPAV12@PAPAV12@@Z 10019420 f i globalrec.obj
 0001:00018420       ??$_Rechecked@PAPAVformat_t@xlslib_core@@PAPAV12@@std@@YAAAPAPAVformat_t@xlslib_core@@AAPAPAV12@PAPAV12@@Z 10019420 f i globalrec.obj
 0001:00018420       ??$_Rechecked@PAPBVlabel_t@xlslib_core@@PAPBV12@@std@@YAAAPAPBVlabel_t@xlslib_core@@AAPAPBV12@PAPBV12@@Z 10019420 f i globalrec.obj
 0001:00018420       ??$_Rechecked@PAPAUstyle_t@xlslib_core@@PAPAU12@@std@@YAAAPAPAUstyle_t@xlslib_core@@AAPAPAU12@PAPAU12@@Z 10019420 f i globalrec.obj
 0001:00018420       ??$_Rechecked@PAPAVformula_t@xlslib_core@@PAPAV12@@std@@YAAAPAPAVformula_t@xlslib_core@@AAPAPAV12@PAPAV12@@Z 10019420 f i sheetrec.obj
 0001:00018430       ??$destroy@V?$basic_string@_WU?$char_traits@_W@std@@V?$allocator@_W@2@@std@@@?$_Wrap_alloc@V?$allocator@V?$basic_string@_WU?$char_traits@_W@std@@V?$allocator@_W@2@@std@@@std@@@std@@QAEXPAV?$basic_string@_WU?$char_traits@_W@std@@V?$allocator@_W@2@@1@@Z 10019430 f i cbridge.obj
 0001:00018430       ??$destroy@V?$basic_string@_WU?$char_traits@_W@std@@V?$allocator@_W@2@@std@@@?$allocator@V?$basic_string@_WU?$char_traits@_W@std@@V?$allocator@_W@2@@std@@@std@@QAEXPAV?$basic_string@_WU?$char_traits@_W@std@@V?$allocator@_W@2@@1@@Z 10019430 f i cbridge.obj
 0001:00018480       ??$destroy@V?$basic_string@DU?$char_traits@D@std@@V?$allocator@D@2@@std@@@?$allocator@V?$basic_string@DU?$char_traits@D@std@@V?$allocator@D@2@@std@@@std@@QAEXPAV?$basic_string@DU?$char_traits@D@std@@V?$allocator@D@2@@1@@Z 10019480 f i cbridge.obj
 0001:00018480       ??$destroy@V?$basic_string@DU?$char_traits@D@std@@V?$allocator@D@2@@std@@@?$_Wrap_alloc@V?$allocator@V?$basic_string@DU?$char_traits@D@std@@V?$allocator@D@2@@std@@@std@@@std@@QAEXPAV?$basic_string@DU?$char_traits@D@std@@V?$allocator@D@2@@1@@Z 10019480 f i cbridge.obj
 0001:000184c0       ??0?$basic_string@_WU?$char_traits@_W@std@@V?$allocator@_W@2@@std@@QAE@ABV01@@Z 100194c0 f i cbridge.obj
 0001:000184f0       ?Is_In_1904_Mode@CDateMode@xlslib_core@@SA_NXZ 100194f0 f i recdef.obj
 0001:000184f0       ??$_Ptr_move_cat@V?$basic_string@_WU?$char_traits@_W@std@@V?$allocator@_W@2@@std@@V12@@std@@YA?AU_General_ptr_iterator_tag@0@ABQAV?$basic_string@_WU?$char_traits@_W@std@@V?$allocator@_W@2@@0@0@Z 100194f0 f i cbridge.obj
 0001:000184f0       ??$?9V?$allocator@D@std@@V01@@std@@YA_NABU?$_Wrap_alloc@V?$allocator@D@std@@@0@0@Z 100194f0 f i font.obj
 0001:000184f0       ??$_Ptr_move_cat@VCUnitStore@xlslib_core@@V12@@std@@YA?AU_General_ptr_iterator_tag@0@ABQAVCUnitStore@xlslib_core@@0@Z 100194f0 f i datast.obj
 0001:000184f0       ??$_Ptr_move_cat@V?$basic_string@DU?$char_traits@D@std@@V?$allocator@D@2@@std@@V12@@std@@YA?AU_General_ptr_iterator_tag@0@ABQAV?$basic_string@DU?$char_traits@D@std@@V?$allocator@D@2@@0@0@Z 100194f0 f i cbridge.obj
 0001:000184f0       ??$?9V?$allocator@_S@std@@V01@@std@@YA_NABU?$_Wrap_alloc@V?$allocator@_S@std@@@0@0@Z 100194f0 f i formula_estimate.obj
 0001:00018500       ??$_Uninitialized_move_al_unchecked1@PAV?$basic_string@_WU?$char_traits@_W@std@@V?$allocator@_W@2@@std@@PAV12@V?$allocator@V?$basic_string@_WU?$char_traits@_W@std@@V?$allocator@_W@2@@std@@@2@@std@@YAPAV?$basic_string@_WU?$char_traits@_W@std@@V?$allocator@_W@2@@0@PAV10@00AAU?$_Wrap_alloc@V?$allocator@V?$basic_string@_WU?$char_traits@_W@std@@V?$allocator@_W@2@@std@@@std@@@0@U_General_ptr_iterator_tag@0@U_Any_tag@0@@Z 10019500 f i cbridge.obj
 0001:000185a0       ??$destroy@V?$basic_string@_WU?$char_traits@_W@std@@V?$allocator@_W@2@@std@@@?$allocator_traits@V?$allocator@V?$basic_string@_WU?$char_traits@_W@std@@V?$allocator@_W@2@@std@@@std@@@std@@SAXAAV?$allocator@V?$basic_string@_WU?$char_traits@_W@std@@V?$allocator@_W@2@@std@@@1@PAV?$basic_string@_WU?$char_traits@_W@std@@V?$allocator@_W@2@@1@@Z 100195a0 f i cbridge.obj
 0001:000185e0       ??$_Uninitialized_move_al_unchecked1@PAV?$basic_string@DU?$char_traits@D@std@@V?$allocator@D@2@@std@@PAV12@V?$allocator@V?$basic_string@DU?$char_traits@D@std@@V?$allocator@D@2@@std@@@2@@std@@YAPAV?$basic_string@DU?$char_traits@D@std@@V?$allocator@D@2@@0@PAV10@00AAU?$_Wrap_alloc@V?$allocator@V?$basic_string@DU?$char_traits@D@std@@V?$allocator@D@2@@std@@@std@@@0@U_General_ptr_iterator_tag@0@U_Any_tag@0@@Z 100195e0 f i cbridge.obj
 0001:00018680       ??$destroy@V?$basic_string@DU?$char_traits@D@std@@V?$allocator@D@2@@std@@@?$allocator_traits@V?$allocator@V?$basic_string@DU?$char_traits@D@std@@V?$allocator@D@2@@std@@@std@@@std@@SAXAAV?$allocator@V?$basic_string@DU?$char_traits@D@std@@V?$allocator@D@2@@std@@@1@PAV?$basic_string@DU?$char_traits@D@std@@V?$allocator@D@2@@1@@Z 10019680 f i cbridge.obj
 0001:000186c0       ??$construct@V?$basic_string@_WU?$char_traits@_W@std@@V?$allocator@_W@2@@std@@V12@@?$_Wrap_alloc@V?$allocator@V?$basic_string@_WU?$char_traits@_W@std@@V?$allocator@_W@2@@std@@@std@@@std@@QAEXPAV?$basic_string@_WU?$char_traits@_W@std@@V?$allocator@_W@2@@1@$$QAV21@@Z 100196c0 f i cbridge.obj
 0001:000186c0       ??$construct@V?$basic_string@_WU?$char_traits@_W@std@@V?$allocator@_W@2@@std@@V12@@?$allocator@V?$basic_string@_WU?$char_traits@_W@std@@V?$allocator@_W@2@@std@@@std@@QAEXPAV?$basic_string@_WU?$char_traits@_W@std@@V?$allocator@_W@2@@1@$$QAV21@@Z 100196c0 f i cbridge.obj
 0001:000186f0       ??$construct@V?$basic_string@DU?$char_traits@D@std@@V?$allocator@D@2@@std@@V12@@?$allocator@V?$basic_string@DU?$char_traits@D@std@@V?$allocator@D@2@@std@@@std@@QAEXPAV?$basic_string@DU?$char_traits@D@std@@V?$allocator@D@2@@1@$$QAV21@@Z 100196f0 f i cbridge.obj
 0001:000186f0       ??$construct@V?$basic_string@DU?$char_traits@D@std@@V?$allocator@D@2@@std@@V12@@?$_Wrap_alloc@V?$allocator@V?$basic_string@DU?$char_traits@D@std@@V?$allocator@D@2@@std@@@std@@@std@@QAEXPAV?$basic_string@DU?$char_traits@D@std@@V?$allocator@D@2@@1@$$QAV21@@Z 100196f0 f i cbridge.obj
 0001:00018710       ??_G?$basic_string@_WU?$char_traits@_W@std@@V?$allocator@_W@2@@std@@QAEPAXI@Z 10019710 f i cbridge.obj
 0001:00018750       ??_G?$basic_string@DU?$char_traits@D@std@@V?$allocator@D@2@@std@@QAEPAXI@Z 10019750 f i cbridge.obj
 0001:000187a0       ??$construct@V?$basic_string@_WU?$char_traits@_W@std@@V?$allocator@_W@2@@std@@V12@@?$allocator_traits@V?$allocator@V?$basic_string@_WU?$char_traits@_W@std@@V?$allocator@_W@2@@std@@@std@@@std@@SAXAAV?$allocator@V?$basic_string@_WU?$char_traits@_W@std@@V?$allocator@_W@2@@std@@@1@PAV?$basic_string@_WU?$char_traits@_W@std@@V?$allocator@_W@2@@1@$$QAV31@@Z 100197a0 f i cbridge.obj
 0001:000187d0       ??$construct@V?$basic_string@DU?$char_traits@D@std@@V?$allocator@D@2@@std@@V12@@?$allocator_traits@V?$allocator@V?$basic_string@DU?$char_traits@D@std@@V?$allocator@D@2@@std@@@std@@@std@@SAXAAV?$allocator@V?$basic_string@DU?$char_traits@D@std@@V?$allocator@D@2@@std@@@1@PAV?$basic_string@DU?$char_traits@D@std@@V?$allocator@D@2@@1@$$QAV31@@Z 100197d0 f i cbridge.obj
 0001:000187f0       ?fontDup@font_t@xlslib_core@@SAPAV12@PBV12@@Z 100197f0 f i cell.obj
 0001:00018850       ?xfDup@xf_t@xlslib_core@@SAPAV12@PBV12@@Z 10019850 f i cell.obj
 0001:000188b0       ?GetIndex@xf_t@xlslib_core@@QBEGXZ 100198b0 f i cell.obj
 0001:000188c0       ??0cell_t@xlslib_core@@IAE@AAVCGlobalRecords@1@IIPAVxf_t@1@@Z 100198c0 f   cell.obj
 0001:00018900       ?set_xf_common@cell_t@xlslib_core@@AAEXXZ 10019900 f   cell.obj
 0001:000189b0       ?borderstyle@cell_t@xlslib_core@@QAEXW4border_side_t@2@W4border_style_t@2@@Z 100199b0 f   cell.obj
 0001:00018aa0       ?bordercolor@cell_t@xlslib_core@@QAEXW4border_side_t@2@W4color_name_t@2@@Z 10019aa0 f   cell.obj
 0001:00018b80       ?bordercolor@cell_t@xlslib_core@@QAEXW4border_side_t@2@E@Z 10019b80 f   cell.obj
 0001:00018c60       ?font@cell_t@xlslib_core@@QAEXPAVfont_t@2@@Z 10019c60 f   cell.obj
 0001:00018d50       ?format@cell_t@xlslib_core@@QAEXW4format_number_t@2@@Z 10019d50 f   cell.obj
 0001:00018e40       ?format@cell_t@xlslib_core@@QAEXPAVformat_t@2@@Z 10019e40 f   cell.obj
 0001:00018f30       ?halign@cell_t@xlslib_core@@QAEXW4halign_option_t@2@@Z 10019f30 f   cell.obj
 0001:00019010       ?valign@cell_t@xlslib_core@@QAEXW4valign_option_t@2@@Z 1001a010 f   cell.obj
 0001:000190f0       ?indent@cell_t@xlslib_core@@QAEXW4indent_option_t@2@@Z 1001a0f0 f   cell.obj
 0001:000191d0       ?orientation@cell_t@xlslib_core@@QAEXW4txtori_option_t@2@@Z 1001a1d0 f   cell.obj
 0001:000192b0       ?fillfgcolor@cell_t@xlslib_core@@QAEXW4color_name_t@2@@Z 1001a2b0 f   cell.obj
 0001:00019390       ?fillfgcolor@cell_t@xlslib_core@@QAEXE@Z 1001a390 f   cell.obj
 0001:00019460       ?fillbgcolor@cell_t@xlslib_core@@QAEXW4color_name_t@2@@Z 1001a460 f   cell.obj
 0001:00019540       ?fillbgcolor@cell_t@xlslib_core@@QAEXE@Z 1001a540 f   cell.obj
 0001:00019610       ?fillstyle@cell_t@xlslib_core@@QAEXW4fill_option_t@2@@Z 1001a610 f   cell.obj
 0001:000196f0       ?locked@cell_t@xlslib_core@@QAEX_N@Z 1001a6f0 f   cell.obj
 0001:000197d0       ?hidden@cell_t@xlslib_core@@QAEX_N@Z 1001a7d0 f   cell.obj
 0001:000198b0       ?wrap@cell_t@xlslib_core@@QAEX_N@Z 1001a8b0 f   cell.obj
 0001:00019990       ?set_cell_font@cell_t@xlslib_core@@AAEXXZ 1001a990 f   cell.obj
 0001:00019ad0       ?fontname@cell_t@xlslib_core@@QAEXABV?$basic_string@DU?$char_traits@D@std@@V?$allocator@D@2@@std@@@Z 1001aad0 f   cell.obj
 0001:00019b00       ?fontheight@cell_t@xlslib_core@@QAEXG@Z 1001ab00 f   cell.obj
 0001:00019b20       ?fontbold@cell_t@xlslib_core@@QAEXW4boldness_option_t@2@@Z 1001ab20 f   cell.obj
 0001:00019b50       ?fontunderline@cell_t@xlslib_core@@QAEXW4underline_option_t@2@@Z 1001ab50 f   cell.obj
 0001:00019b80       ?fontscript@cell_t@xlslib_core@@QAEXW4script_option_t@2@@Z 1001ab80 f   cell.obj
 0001:00019bb0       ?fontcolor@cell_t@xlslib_core@@QAEXW4color_name_t@2@@Z 1001abb0 f   cell.obj
 0001:00019be0       ?fontcolor@cell_t@xlslib_core@@QAEXE@Z 1001abe0 f   cell.obj
 0001:00019c00       ?fontitalic@cell_t@xlslib_core@@QAEX_N@Z 1001ac00 f   cell.obj
 0001:00019c30       ?fontstrikeout@cell_t@xlslib_core@@QAEX_N@Z 1001ac30 f   cell.obj
 0001:00019c60       ?fontoutline@cell_t@xlslib_core@@QAEX_N@Z 1001ac60 f   cell.obj
 0001:00019c90       ?fontshadow@cell_t@xlslib_core@@QAEX_N@Z 1001ac90 f   cell.obj
 0001:00019cc0       ?SetXF@cell_t@xlslib_core@@QAEXPAVxf_t@2@@Z 1001acc0 f   cell.obj
 0001:00019d20       ?GetXF@cell_t@xlslib_core@@QBEPAVxf_t@2@XZ 1001ad20 f   cell.obj
 0001:00019d20       ?GetRowNum@rowheight_t@xlslib_core@@QAEIXZ 1001ad20 f   sheetrec.obj
 0001:00019d20       ?GetIndex@CUnit@xlslib_core@@QBEHXZ 1001ad20 f   datast.obj
 0001:00019d30       ??0CColInfo@xlslib_core@@IAE@AAVCDataStorage@1@PBUcolinfo_t@1@@Z 1001ad30 f   colinfo.obj
 0001:00019eb0       ??0?$_Vector_iterator@V?$_Vector_val@U?$_Simple_types@PAUHyperLink@xlslib_core@@@std@@@std@@@std@@QAE@XZ 1001aeb0 f   sheetrec.obj
 0001:00019eb0       ??0?$_Vector_iterator@V?$_Vector_val@U?$_Simple_types@VCUnitStore@xlslib_core@@@std@@@std@@@std@@QAE@XZ 1001aeb0 f   datast.obj
 0001:00019eb0       ??0?$_Vector_const_iterator@V?$_Vector_val@U?$_Simple_types@PAUHyperLink@xlslib_core@@@std@@@std@@@std@@QAE@XZ 1001aeb0 f   sheetrec.obj
 0001:00019eb0       ??0?$_Vector_iterator@V?$_Vector_val@U?$_Simple_types@PAUstyle_t@xlslib_core@@@std@@@std@@@std@@QAE@XZ 1001aeb0 f   globalrec.obj
 0001:00019eb0       ??0?$_Vector_iterator@V?$_Vector_val@U?$_Simple_types@PAUDataValidation@xlslib_core@@@std@@@std@@@std@@QAE@XZ 1001aeb0 f   sheetrec.obj
 0001:00019eb0       ??0?$_Vector_const_iterator@V?$_Vector_val@U?$_Simple_types@Urowblocksize_t@xlslib_core@@@std@@@std@@@std@@QAE@XZ 1001aeb0 f   sheetrec.obj
 0001:00019eb0       ??0colors_t@xlslib_core@@QAE@XZ 1001aeb0 f   colors.obj
 0001:00019eb0       ??0?$_Vector_iterator@V?$_Vector_val@U?$_Simple_types@Urowblocksize_t@xlslib_core@@@std@@@std@@@std@@QAE@XZ 1001aeb0 f   sheetrec.obj
 0001:00019eb0       ??0?$_Vector_iterator@V?$_Vector_val@U?$_Simple_types@PAVworksheet@xlslib_core@@@std@@@std@@@std@@QAE@XZ 1001aeb0 f   workbook.obj
 0001:00019eb0       ??0?$_Vector_const_iterator@V?$_Vector_val@U?$_Simple_types@PAVworksheet@xlslib_core@@@std@@@std@@@std@@QAE@XZ 1001aeb0 f   workbook.obj
 0001:00019eb0       ??0?$_Vector_iterator@V?$_Vector_val@U?$_Simple_types@I@std@@@std@@@std@@QAE@XZ 1001aeb0 f   sheetrec.obj
 0001:00019eb0       ??0?$_Vector_const_iterator@V?$_Vector_val@U?$_Simple_types@PBVlabel_t@xlslib_core@@@std@@@std@@@std@@QAE@XZ 1001aeb0 f   globalrec.obj
 0001:00019eb0       ??0?$_Vector_iterator@V?$_Vector_val@U?$_Simple_types@PAVformat_t@xlslib_core@@@std@@@std@@@std@@QAE@XZ 1001aeb0 f   globalrec.obj
 0001:00019eb0       ??0?$_Tree_const_iterator@V?$_Tree_val@U?$_Tree_simple_types@U?$pair@PAVxf_t@xlslib_core@@UborderedXft@2@@std@@@std@@@std@@@std@@QAE@XZ 1001aeb0 f   range.obj
 0001:00019eb0       ??0?$_Tree_unchecked_const_iterator@V?$_Tree_val@U?$_Tree_simple_types@PAVrowheight_t@xlslib_core@@@std@@@std@@U_Iterator_base0@2@@std@@QAE@XZ 1001aeb0 f   sheetrec.obj
 0001:00019eb0       ??0?$_Vector_iterator@V?$_Vector_val@U?$_Simple_types@PAVfont_t@xlslib_core@@@std@@@std@@@std@@QAE@XZ 1001aeb0 f   globalrec.obj
 0001:00019eb0       ??0?$_Vector_const_iterator@V?$_Vector_val@U?$_Simple_types@PAVxf_t@xlslib_core@@@std@@@std@@@std@@QAE@XZ 1001aeb0 f   globalrec.obj
 0001:00019eb0       ??0?$_Vector_const_iterator@V?$_Vector_val@U?$_Simple_types@PAVrange_t@xlslib_core@@@std@@@std@@@std@@QAE@XZ 1001aeb0 f   sheetrec.obj
 0001:00019eb0       ??0?$_String_const_iterator@V?$_String_val@U?$_Simple_types@_S@std@@@std@@@std@@QAE@XZ 1001aeb0 f   globalrec.obj
 0001:00019eb0       ??0?$_Tree_unchecked_const_iterator@V?$_Tree_val@U?$_Tree_simple_types@PAVHPSFitem@xlslib_core@@@std@@@std@@U_Iterator_base0@2@@std@@QAE@XZ 1001aeb0 f   HPSF.obj
 0001:00019eb0       ??0?$_Tree_const_iterator@V?$_Tree_val@U?$_Tree_simple_types@PAUcolinfo_t@xlslib_core@@@std@@@std@@@std@@QAE@XZ 1001aeb0 f   sheetrec.obj
 0001:00019eb0       ??0?$_Vector_const_iterator@V?$_Vector_val@U?$_Simple_types@PAVformat_t@xlslib_core@@@std@@@std@@@std@@QAE@XZ 1001aeb0 f   globalrec.obj
 0001:00019eb0       ??0?$_Vector_const_iterator@V?$_Vector_val@U?$_Simple_types@PAUDataValidation@xlslib_core@@@std@@@std@@@std@@QAE@XZ 1001aeb0 f   sheetrec.obj
 0001:00019eb0       ??0?$_Tree_const_iterator@V?$_Tree_val@U?$_Tree_simple_types@PAVrowheight_t@xlslib_core@@@std@@@std@@@std@@QAE@XZ 1001aeb0 f   sheetrec.obj
 0001:00019eb0       ??0?$_Vector_iterator@V?$_Vector_val@U?$_Simple_types@PBVlabel_t@xlslib_core@@@std@@@std@@@std@@QAE@XZ 1001aeb0 f   globalrec.obj
 0001:00019eb0       ??0?$_Vector_const_iterator@V?$_Vector_val@U?$_Simple_types@VCUnitStore@xlslib_core@@@std@@@std@@@std@@QAE@XZ 1001aeb0 f   datast.obj
 0001:00019eb0       ??0?$_Vector_const_iterator@V?$_Vector_val@U?$_Simple_types@PAVCOleProp@xlslib_core@@@std@@@std@@@std@@QAE@XZ 1001aeb0 f   olefs.obj
 0001:00019eb0       ??0?$_Vector_iterator@V?$_Vector_val@U?$_Simple_types@PAVCOleProp@xlslib_core@@@std@@@std@@@std@@QAE@XZ 1001aeb0 f   olefs.obj
 0001:00019eb0       ??0?$_Vector_iterator@V?$_Vector_val@U?$_Simple_types@PAVxf_t@xlslib_core@@@std@@@std@@@std@@QAE@XZ 1001aeb0 f   globalrec.obj
 0001:00019eb0       ??0?$_Vector_const_iterator@V?$_Vector_val@U?$_Simple_types@PAUstyle_t@xlslib_core@@@std@@@std@@@std@@QAE@XZ 1001aeb0 f   globalrec.obj
 0001:00019eb0       ??0?$_Tree_unchecked_const_iterator@V?$_Tree_val@U?$_Tree_simple_types@PAUcolinfo_t@xlslib_core@@@std@@@std@@U_Iterator_base0@2@@std@@QAE@XZ 1001aeb0 f   sheetrec.obj
 0001:00019eb0       ??0?$_String_const_iterator@V?$_String_val@U?$_Simple_types@D@std@@@std@@@std@@QAE@XZ 1001aeb0 f   globalrec.obj
 0001:00019eb0       ??0?$_Vector_const_iterator@V?$_Vector_val@U?$_Simple_types@PAVboundsheet_t@xlslib_core@@@std@@@std@@@std@@QAE@XZ 1001aeb0 f   globalrec.obj
 0001:00019eb0       ??0?$_Tree_unchecked_const_iterator@V?$_Tree_val@U?$_Tree_simple_types@PAVcell_t@xlslib_core@@@std@@@std@@U_Iterator_base0@2@@std@@QAE@XZ 1001aeb0 f   sheetrec.obj
 0001:00019eb0       ??0?$_Tree_unchecked_const_iterator@V?$_Tree_val@U?$_Tree_simple_types@U?$pair@PAVxf_t@xlslib_core@@UborderedXft@2@@std@@@std@@@std@@U_Iterator_base0@2@@std@@QAE@XZ 1001aeb0 f   range.obj
 0001:00019eb0       ??0?$_Vector_iterator@V?$_Vector_val@U?$_Simple_types@PAVrange_t@xlslib_core@@@std@@@std@@@std@@QAE@XZ 1001aeb0 f   sheetrec.obj
 0001:00019eb0       ??0?$_Vector_iterator@V?$_Vector_val@U?$_Simple_types@PAVboundsheet_t@xlslib_core@@@std@@@std@@@std@@QAE@XZ 1001aeb0 f   globalrec.obj
 0001:00019eb0       ??0?$_Tree_const_iterator@V?$_Tree_val@U?$_Tree_simple_types@PAVHPSFitem@xlslib_core@@@std@@@std@@@std@@QAE@XZ 1001aeb0 f   HPSF.obj
 0001:00019eb0       ??0?$_Vector_const_iterator@V?$_Vector_val@U?$_Simple_types@I@std@@@std@@@std@@QAE@XZ 1001aeb0 f   sheetrec.obj
 0001:00019eb0       ??0?$_Vector_const_iterator@V?$_Vector_val@U?$_Simple_types@PAVfont_t@xlslib_core@@@std@@@std@@@std@@QAE@XZ 1001aeb0 f   globalrec.obj
 0001:00019eb0       ??0?$_Tree_const_iterator@V?$_Tree_val@U?$_Tree_simple_types@PAVcell_t@xlslib_core@@@std@@@std@@@std@@QAE@XZ 1001aeb0 f   sheetrec.obj
 0001:00019ec0       ?setColor@colors_t@xlslib_core@@QAE_NEEEE@Z 1001aec0 f   colors.obj
 0001:00019f30       ?GetData@colors_t@xlslib_core@@QBEPAVCUnit@2@AAVCDataStorage@2@@Z 1001af30 f   colors.obj
 0001:00019fa0       ??1colors_t@xlslib_core@@QAE@XZ 1001afa0 f   colors.obj
 0001:00019fb0       ??0CPalette@xlslib_core@@IAE@AAVCDataStorage@1@PBUcolor_entry_t@1@@Z 1001afb0 f   colors.obj
 0001:0001a0c0       ?size@?$_Tree@V?$_Tset_traits@PAVHPSFitem@xlslib_core@@Vinsertsort2@2@V?$allocator@PAVHPSFitem@xlslib_core@@@std@@$0A@@std@@@std@@QBEIXZ 1001b0c0 f i HPSF.obj
 0001:0001a0c0       ?DataStore@CUnit@xlslib_core@@QAEAAVCDataStorage@2@XZ 1001b0c0 f i continue.obj
 0001:0001a0c0       ?size@?$_Tree@V?$_Tset_traits@PAVcell_t@xlslib_core@@Vinsertsort@2@V?$allocator@PAVcell_t@xlslib_core@@@std@@$0A@@std@@@std@@QBEIXZ 1001b0c0 f i sheetrec.obj
 0001:0001a0c0       ?size@?$_Tree@V?$_Tset_traits@PAUcolinfo_t@xlslib_core@@Vcolinfosort@2@V?$allocator@PAUcolinfo_t@xlslib_core@@@std@@$0A@@std@@@std@@QBEIXZ 1001b0c0 f i sheetrec.obj
 0001:0001a0c0       ?GetGlobalRecords@cell_t@xlslib_core@@QBEAAVCGlobalRecords@2@XZ 1001b0c0 f i formula_cell.obj
 0001:0001a0c0       ?size@?$list@PAV?$basic_string@DU?$char_traits@D@std@@V?$allocator@D@2@@std@@V?$allocator@PAV?$basic_string@DU?$char_traits@D@std@@V?$allocator@D@2@@std@@@2@@std@@QBEIXZ 1001b0c0 f i olefs.obj
 0001:0001a0c0       ?GetGlobalRecords@font_t@xlslib_core@@QBEAAVCGlobalRecords@2@XZ 1001b0c0 f i font.obj
 0001:0001a0c0       ?size@?$_Tree@V?$_Tset_traits@PAVrowheight_t@xlslib_core@@Vrowheightsort@2@V?$allocator@PAVrowheight_t@xlslib_core@@@std@@$0A@@std@@@std@@QBEIXZ 1001b0c0 f i sheetrec.obj
 0001:0001a0c0       ?GetXF@rowheight_t@xlslib_core@@QBEPAVxf_t@2@XZ 1001b0c0 f i sheetrec.obj
 0001:0001a0d0       ?GetRowHeight@rowheight_t@xlslib_core@@QAEGXZ 1001b0d0 f i sheetrec.obj
 0001:0001a0d0       ?GetActiveSheet@window1@xlslib_core@@QBEGXZ 1001b0d0 f i sheetrec.obj
 0001:0001a0d0       ?BackPatchingLevel@CUnit@xlslib_core@@QBEGXZ 1001b0d0 f i continue.obj
 0001:0001a0e0       ??0CContinue@xlslib_core@@IAE@PAVCUnit@1@PBEI@Z 1001b0e0 f   continue.obj
 0001:0001a1e0       ?SetAlreadyContinued@CUnit@xlslib_core@@IAEX_N@Z 1001b1e0 f i datast.obj
 0001:0001a1f0       ?GetBuffer@CUnitStore@xlslib_core@@QAEPAEXZ 1001b1f0 f i datast.obj
 0001:0001a200       ?SetDataSize@CUnitStore@xlslib_core@@QAEXI@Z 1001b200 f i datast.obj
 0001:0001a220       ?GetDataSize@CUnitStore@xlslib_core@@QBEIXZ 1001b220 f i datast.obj
 0001:0001a230       ?MakeSticky@CUnitStore@xlslib_core@@QAEXXZ 1001b230 f i datast.obj
 0001:0001a240       ?GetAuthor@note_t@xlslib_core@@QBEABV?$basic_string@_SU?$char_traits@_S@std@@V?$allocator@_S@2@@std@@XZ 1001b240 f i note.obj
 0001:0001a240       ?GetStrLabel@label_t@xlslib_core@@QBEABV?$basic_string@_SU?$char_traits@_S@std@@V?$allocator@_S@2@@std@@XZ 1001b240 f i datast.obj
 0001:0001a250       ??0CDataStorage@xlslib_core@@QAE@XZ 1001b250 f   datast.obj
 0001:0001a310       ??_ECDataStorage@xlslib_core@@UAEPAXI@Z 1001b310 f i * CIL library *:* CIL module *
 0001:0001a310       ??_GCDataStorage@xlslib_core@@UAEPAXI@Z 1001b310 f i datast.obj
 0001:0001a340       ??0CDataStorage@xlslib_core@@QAE@I@Z 1001b340 f   datast.obj
 0001:0001a410       ??1CDataStorage@xlslib_core@@UAE@XZ 1001b410 f   datast.obj
 0001:0001a5e0       ??YCDataStorage@xlslib_core@@QAEXPAVCUnit@1@@Z 1001b5e0 f   datast.obj
 0001:0001a630       ?end@?$vector@PAUstyle_t@xlslib_core@@V?$allocator@PAUstyle_t@xlslib_core@@@std@@@std@@QAE?AV?$_Vector_iterator@V?$_Vector_val@U?$_Simple_types@PAUstyle_t@xlslib_core@@@std@@@std@@@2@XZ 1001b630 f   globalrec.obj
 0001:0001a630       ?end@?$vector@PAVformula_t@xlslib_core@@V?$allocator@PAVformula_t@xlslib_core@@@std@@@std@@QAE?AV?$_Vector_iterator@V?$_Vector_val@U?$_Simple_types@PAVformula_t@xlslib_core@@@std@@@std@@@2@XZ 1001b630 f   sheetrec.obj
 0001:0001a630       ?end@?$vector@PAVworksheet@xlslib_core@@V?$allocator@PAVworksheet@xlslib_core@@@std@@@std@@QAE?AV?$_Vector_iterator@V?$_Vector_val@U?$_Simple_types@PAVworksheet@xlslib_core@@@std@@@std@@@2@XZ 1001b630 f   workbook.obj
 0001:0001a630       ?end@?$vector@PBVlabel_t@xlslib_core@@V?$allocator@PBVlabel_t@xlslib_core@@@std@@@std@@QAE?AV?$_Vector_iterator@V?$_Vector_val@U?$_Simple_types@PBVlabel_t@xlslib_core@@@std@@@std@@@2@XZ 1001b630 f   globalrec.obj
 0001:0001a630       ?begin@CDataStorage@xlslib_core@@QAE?AV?$_Vector_iterator@V?$_Vector_val@U?$_Simple_types@VCUnitStore@xlslib_core@@@std@@@std@@@std@@XZ 1001b630 f   datast.obj
 0001:0001a630       ?end@?$vector@PAVCUnit@xlslib_core@@V?$allocator@PAVCUnit@xlslib_core@@@std@@@std@@QAE?AV?$_Vector_iterator@V?$_Vector_val@U?$_Simple_types@PAVCUnit@xlslib_core@@@std@@@std@@@2@XZ 1001b630 f   datast.obj
 0001:0001a630       ?end@?$vector@PAUHyperLink@xlslib_core@@V?$allocator@PAUHyperLink@xlslib_core@@@std@@@std@@QAE?AV?$_Vector_iterator@V?$_Vector_val@U?$_Simple_types@PAUHyperLink@xlslib_core@@@std@@@std@@@2@XZ 1001b630 f   sheetrec.obj
 0001:0001a630       ?end@?$vector@IV?$allocator@I@std@@@std@@QAE?AV?$_Vector_iterator@V?$_Vector_val@U?$_Simple_types@I@std@@@std@@@2@XZ 1001b630 f   sheetrec.obj
 0001:0001a630       ?end@?$vector@VCUnitStore@xlslib_core@@V?$allocator@VCUnitStore@xlslib_core@@@std@@@std@@QAE?AV?$_Vector_iterator@V?$_Vector_val@U?$_Simple_types@VCUnitStore@xlslib_core@@@std@@@std@@@2@XZ 1001b630 f   datast.obj
 0001:0001a630       ?end@?$vector@Urowblocksize_t@xlslib_core@@V?$allocator@Urowblocksize_t@xlslib_core@@@std@@@std@@QAE?AV?$_Vector_iterator@V?$_Vector_val@U?$_Simple_types@Urowblocksize_t@xlslib_core@@@std@@@std@@@2@XZ 1001b630 f   sheetrec.obj
 0001:0001a630       ?end@?$vector@PAVformat_t@xlslib_core@@V?$allocator@PAVformat_t@xlslib_core@@@std@@@std@@QAE?AV?$_Vector_iterator@V?$_Vector_val@U?$_Simple_types@PAVformat_t@xlslib_core@@@std@@@std@@@2@XZ 1001b630 f   globalrec.obj
 0001:0001a630       ?end@?$vector@PAVboundsheet_t@xlslib_core@@V?$allocator@PAVboundsheet_t@xlslib_core@@@std@@@std@@QAE?AV?$_Vector_iterator@V?$_Vector_val@U?$_Simple_types@PAVboundsheet_t@xlslib_core@@@std@@@std@@@2@XZ 1001b630 f   globalrec.obj
 0001:0001a630       ?end@?$vector@PAVfont_t@xlslib_core@@V?$allocator@PAVfont_t@xlslib_core@@@std@@@std@@QAE?AV?$_Vector_iterator@V?$_Vector_val@U?$_Simple_types@PAVfont_t@xlslib_core@@@std@@@std@@@2@XZ 1001b630 f   globalrec.obj
 0001:0001a630       ?end@?$vector@PAUDataValidation@xlslib_core@@V?$allocator@PAUDataValidation@xlslib_core@@@std@@@std@@QAE?AV?$_Vector_iterator@V?$_Vector_val@U?$_Simple_types@PAUDataValidation@xlslib_core@@@std@@@std@@@2@XZ 1001b630 f   sheetrec.obj
 0001:0001a630       ?end@?$vector@PAVxf_t@xlslib_core@@V?$allocator@PAVxf_t@xlslib_core@@@std@@@std@@QAE?AV?$_Vector_iterator@V?$_Vector_val@U?$_Simple_types@PAVxf_t@xlslib_core@@@std@@@std@@@2@XZ 1001b630 f   globalrec.obj
 0001:0001a630       ?end@?$vector@PBVlabel_t@xlslib_core@@V?$allocator@PBVlabel_t@xlslib_core@@@std@@@std@@QBE?AV?$_Vector_const_iterator@V?$_Vector_val@U?$_Simple_types@PBVlabel_t@xlslib_core@@@std@@@std@@@2@XZ 1001b630 f   datast.obj
 0001:0001a630       ?end@?$vector@PAVboundsheet_t@xlslib_core@@V?$allocator@PAVboundsheet_t@xlslib_core@@@std@@@std@@QBE?AV?$_Vector_const_iterator@V?$_Vector_val@U?$_Simple_types@PAVboundsheet_t@xlslib_core@@@std@@@std@@@2@XZ 1001b630 f   datast.obj
 0001:0001a630       ?end@?$vector@PAVCOleProp@xlslib_core@@V?$allocator@PAVCOleProp@xlslib_core@@@std@@@std@@QAE?AV?$_Vector_iterator@V?$_Vector_val@U?$_Simple_types@PAVCOleProp@xlslib_core@@@std@@@std@@@2@XZ 1001b630 f   oledoc.obj
 0001:0001a630       ?end@?$vector@PAVrange_t@xlslib_core@@V?$allocator@PAVrange_t@xlslib_core@@@std@@@std@@QAE?AV?$_Vector_iterator@V?$_Vector_val@U?$_Simple_types@PAVrange_t@xlslib_core@@@std@@@std@@@2@XZ 1001b630 f   sheetrec.obj
 0001:0001a630       ?end@?$vector@PAVrange@xlslib_core@@V?$allocator@PAVrange@xlslib_core@@@std@@@std@@QAE?AV?$_Vector_iterator@V?$_Vector_val@U?$_Simple_types@PAVrange@xlslib_core@@@std@@@std@@@2@XZ 1001b630 f   sheetrec.obj
 0001:0001a640       ?end@CDataStorage@xlslib_core@@QAE?AV?$_Vector_iterator@V?$_Vector_val@U?$_Simple_types@VCUnitStore@xlslib_core@@@std@@@std@@@std@@XZ 1001b640 f   datast.obj
 0001:0001a650       ?RequestIndex@CDataStorage@xlslib_core@@QAEHI@Z 1001b650 f   datast.obj
 0001:0001a760       ??ACDataStorage@xlslib_core@@QAEAAVCUnitStore@1@H@Z 1001b760 f   datast.obj
 0001:0001a7a0       ?Push@CDataStorage@xlslib_core@@QAEXPAVCUnit@2@@Z 1001b7a0 f   datast.obj
 0001:0001a810       ?Clip@CDataStorage@xlslib_core@@QAEIPAVCUnit@2@@Z 1001b810 f   datast.obj
 0001:0001a870       ?FlushEm@CDataStorage@xlslib_core@@QAEXG@Z 1001b870 f   datast.obj
 0001:0001a920       ?FlushLowerLevelUnits@CDataStorage@xlslib_core@@QAEXPBVCUnit@2@@Z 1001b920 f   datast.obj
 0001:0001a950       ?MakeCUnit@CDataStorage@xlslib_core@@QAEPAVCUnit@2@XZ 1001b950 f   datast.obj
 0001:0001a9d0       ?MakeCRecord@CDataStorage@xlslib_core@@QAEPAVCRecord@2@XZ 1001b9d0 f   datast.obj
 0001:0001aa60       ?MakeCRow@CDataStorage@xlslib_core@@QAEPAVCRow@2@IIIGPBVxf_t@2@@Z 1001ba60 f   datast.obj
 0001:0001aad0       ?MakeCBof@CDataStorage@xlslib_core@@QAEPAVCBof@2@G@Z 1001bad0 f   datast.obj
 0001:0001ab30       ?MakeCEof@CDataStorage@xlslib_core@@QAEPAVCEof@2@XZ 1001bb30 f   datast.obj
 0001:0001ab90       ?MakeCDimension@CDataStorage@xlslib_core@@QAEPAVCDimension@2@IIII@Z 1001bb90 f   datast.obj
 0001:0001abf0       ?MakeCWindow1@CDataStorage@xlslib_core@@QAEPAVCWindow1@2@ABVwindow1@2@@Z 1001bbf0 f   datast.obj
 0001:0001ac50       ?MakeCWindow2@CDataStorage@xlslib_core@@QAEPAVCWindow2@2@_N@Z 1001bc50 f   datast.obj
 0001:0001acb0       ?MakeCDateMode@CDataStorage@xlslib_core@@QAEPAVCDateMode@2@XZ 1001bcb0 f   datast.obj
 0001:0001ad10       ?MakeCStyle@CDataStorage@xlslib_core@@QAEPAVCStyle@2@PBUstyle_t@2@@Z 1001bd10 f   datast.obj
 0001:0001ad70       ?MakeCBSheet@CDataStorage@xlslib_core@@QAEPAVCBSheet@2@PBVboundsheet_t@2@@Z 1001bd70 f   datast.obj
 0001:0001add0       ?MakeCFormat@CDataStorage@xlslib_core@@QAEPAVCFormat@2@PBVformat_t@2@@Z 1001bdd0 f   datast.obj
 0001:0001ae30       ?MakeCFont@CDataStorage@xlslib_core@@QAEPAVCFont@2@PBVfont_t@2@@Z 1001be30 f   datast.obj
 0001:0001ae90       ?MakeCNumber@CDataStorage@xlslib_core@@QAEPAVCNumber@2@ABVnumber_t@2@@Z 1001be90 f   datast.obj
 0001:0001aef0       ?MakeCBoolean@CDataStorage@xlslib_core@@QAEPAVCBoolean@2@ABVboolean_t@2@@Z 1001bef0 f   datast.obj
 0001:0001af50       ?MakeCErr@CDataStorage@xlslib_core@@QAEPAVCErr@2@ABVerr_t@2@@Z 1001bf50 f   datast.obj
 0001:0001afb0       ?MakeCNote@CDataStorage@xlslib_core@@QAEPAVCNote@2@ABVnote_t@2@@Z 1001bfb0 f   datast.obj
 0001:0001b010       ?MakeCFormula@CDataStorage@xlslib_core@@QAEPAVCFormula@2@ABVformula_cell_t@2@@Z 1001c010 f   datast.obj
 0001:0001b070       ?MakeCMergedCells@CDataStorage@xlslib_core@@QAEPAVCMergedCells@2@XZ 1001c070 f   datast.obj
 0001:0001b0d0       ?MakeCLabel@CDataStorage@xlslib_core@@QAEPAVCLabel@2@ABVlabel_t@2@@Z 1001c0d0 f   datast.obj
 0001:0001b130       ?MakeCIndex@CDataStorage@xlslib_core@@QAEPAVCIndex@2@II@Z 1001c130 f   datast.obj
 0001:0001b190       ?MakeCExtFormat@CDataStorage@xlslib_core@@QAEPAVCExtFormat@2@PBVxf_t@2@@Z 1001c190 f   datast.obj
 0001:0001b1f0       ?MakeCContinue@CDataStorage@xlslib_core@@QAEPAVCContinue@2@PAVCUnit@2@PBEI@Z 1001c1f0 f   datast.obj
 0001:0001b250       ?MakeCPalette@CDataStorage@xlslib_core@@QAEPAVCPalette@2@PBUcolor_entry_t@2@@Z 1001c250 f   datast.obj
 0001:0001b2b0       ?MakeCColInfo@CDataStorage@xlslib_core@@QAEPAVCColInfo@2@PBUcolinfo_t@2@@Z 1001c2b0 f   datast.obj
 0001:0001b310       ?MakeCBlank@CDataStorage@xlslib_core@@QAEPAVCBlank@2@ABVblank_t@2@@Z 1001c310 f   datast.obj
 0001:0001b370       ?MakeCCodePage@CDataStorage@xlslib_core@@QAEPAVCCodePage@2@G@Z 1001c370 f   datast.obj
 0001:0001b3d0       ?MakeCDBCell@CDataStorage@xlslib_core@@QAEPAVCDBCell@2@I@Z 1001c3d0 f   datast.obj
 0001:0001b430       ?MakeCHPSFdoc@CDataStorage@xlslib_core@@QAEPAVCHPSFdoc@2@ABVhpsf_doc_t@2@@Z 1001c430 f   datast.obj
 0001:0001b490       ?MakeCExternBook@CDataStorage@xlslib_core@@QAEPAVCUnit@2@G@Z 1001c490 f   datast.obj
 0001:0001b5f0       ?MakeDrawingGroup@CDataStorage@xlslib_core@@QAEPAVCUnit@2@ABV?$vector@PAVboundsheet_t@xlslib_core@@V?$allocator@PAVboundsheet_t@xlslib_core@@@std@@@std@@@Z 1001c5f0 f   datast.obj
 0001:0001b860       ?MakeCExternSheet@CDataStorage@xlslib_core@@QAEPAVCUnit@2@ABV?$vector@PAVboundsheet_t@xlslib_core@@V?$allocator@PAVboundsheet_t@xlslib_core@@@std@@@std@@@Z 1001c860 f   datast.obj
 0001:0001ba00       ?MakeSST@CDataStorage@xlslib_core@@QAEPAVCUnit@2@ABV?$vector@PBVlabel_t@xlslib_core@@V?$allocator@PBVlabel_t@xlslib_core@@@std@@@std@@@Z 1001ca00 f   datast.obj
 0001:0001bf50       ??0CUnitStore@xlslib_core@@QAE@XZ 1001cf50 f   datast.obj
 0001:0001bf70       ??1CUnitStore@xlslib_core@@QAE@XZ 1001cf70 f   datast.obj
 0001:0001bf70       ?Reset@CUnitStore@xlslib_core@@QAEXXZ 1001cf70 f   datast.obj
 0001:0001bfb0       ??0CUnitStore@xlslib_core@@QAE@ABV01@@Z 1001cfb0 f   datast.obj
 0001:0001c070       ?Prepare@CUnitStore@xlslib_core@@QAEDI@Z 1001d070 f   datast.obj
 0001:0001c0f0       ?Resize@CUnitStore@xlslib_core@@QAEDI@Z 1001d0f0 f   datast.obj
 0001:0001c1a0       ?Init@CUnitStore@xlslib_core@@QAEDPBEII@Z 1001d1a0 f   datast.obj
 0001:0001c1f0       ?InitWithValue@CUnitStore@xlslib_core@@QAEDEI@Z 1001d1f0 f   datast.obj
 0001:0001c240       ??9?$_Vector_const_iterator@V?$_Vector_val@U?$_Simple_types@PAVboundsheet_t@xlslib_core@@@std@@@std@@@std@@QBE_NABV01@@Z 1001d240 f i datast.obj
 0001:0001c240       ??9?$_Vector_const_iterator@V?$_Vector_val@U?$_Simple_types@PAUstyle_t@xlslib_core@@@std@@@std@@@std@@QBE_NABV01@@Z 1001d240 f i globalrec.obj
 0001:0001c240       ??9?$_Tree_const_iterator@V?$_Tree_val@U?$_Tree_simple_types@PAVrowheight_t@xlslib_core@@@std@@@std@@@std@@QBE_NABV01@@Z 1001d240 f i sheetrec.obj
 0001:0001c240       ??9?$_Vector_const_iterator@V?$_Vector_val@U?$_Simple_types@PAVCUnit@xlslib_core@@@std@@@std@@@std@@QBE_NABV01@@Z 1001d240 f i datast.obj
 0001:0001c240       ??9?$_String_const_iterator@V?$_String_val@U?$_Simple_types@_S@std@@@std@@@std@@QBE_NABV01@@Z 1001d240 f i globalrec.obj
 0001:0001c240       ??9?$_Tree_const_iterator@V?$_Tree_val@U?$_Tree_simple_types@PAUcolinfo_t@xlslib_core@@@std@@@std@@@std@@QBE_NABV01@@Z 1001d240 f i sheetrec.obj
 0001:0001c240       ??9?$_Vector_const_iterator@V?$_Vector_val@U?$_Simple_types@PAUDataValidation@xlslib_core@@@std@@@std@@@std@@QBE_NABV01@@Z 1001d240 f i sheetrec.obj
 0001:0001c240       ??9?$_Tree_const_iterator@V?$_Tree_val@U?$_Tree_simple_types@PAVcell_t@xlslib_core@@@std@@@std@@@std@@QBE_NABV01@@Z 1001d240 f i sheetrec.obj
 0001:0001c240       ??9?$_Vector_const_iterator@V?$_Vector_val@U?$_Simple_types@PAVfont_t@xlslib_core@@@std@@@std@@@std@@QBE_NABV01@@Z 1001d240 f i globalrec.obj
 0001:0001c240       ??9?$_String_const_iterator@V?$_String_val@U?$_Simple_types@D@std@@@std@@@std@@QBE_NABV01@@Z 1001d240 f i globalrec.obj
 0001:0001c240       ??9?$_Vector_const_iterator@V?$_Vector_val@U?$_Simple_types@VCUnitStore@xlslib_core@@@std@@@std@@@std@@QBE_NABV01@@Z 1001d240 f i datast.obj
 0001:0001c240       ??9?$_Vector_const_iterator@V?$_Vector_val@U?$_Simple_types@PAVCOleProp@xlslib_core@@@std@@@std@@@std@@QBE_NABV01@@Z 1001d240 f i oledoc.obj
 0001:0001c240       ??9?$_Vector_const_iterator@V?$_Vector_val@U?$_Simple_types@PBVlabel_t@xlslib_core@@@std@@@std@@@std@@QBE_NABV01@@Z 1001d240 f i datast.obj
 0001:0001c240       ??9?$_Vector_const_iterator@V?$_Vector_val@U?$_Simple_types@PAVformula_t@xlslib_core@@@std@@@std@@@std@@QBE_NABV01@@Z 1001d240 f i sheetrec.obj
 0001:0001c240       ??9?$_Vector_const_iterator@V?$_Vector_val@U?$_Simple_types@PAVxf_t@xlslib_core@@@std@@@std@@@std@@QBE_NABV01@@Z 1001d240 f i globalrec.obj
 0001:0001c240       ??9?$_Vector_const_iterator@V?$_Vector_val@U?$_Simple_types@PAVrange@xlslib_core@@@std@@@std@@@std@@QBE_NABV01@@Z 1001d240 f i sheetrec.obj
 0001:0001c240       ??9?$_Vector_const_iterator@V?$_Vector_val@U?$_Simple_types@PAVformat_t@xlslib_core@@@std@@@std@@@std@@QBE_NABV01@@Z 1001d240 f i globalrec.obj
 0001:0001c240       ??9?$_Vector_const_iterator@V?$_Vector_val@U?$_Simple_types@PAVrange_t@xlslib_core@@@std@@@std@@@std@@QBE_NABV01@@Z 1001d240 f i sheetrec.obj
 0001:0001c240       ??9?$_List_const_iterator@V?$_List_val@U?$_List_simple_types@PAV?$basic_string@DU?$char_traits@D@std@@V?$allocator@D@2@@std@@@std@@@std@@@std@@QBE_NABV01@@Z 1001d240 f i olefs.obj
 0001:0001c240       ??9?$_Tree_const_iterator@V?$_Tree_val@U?$_Tree_simple_types@U?$pair@PAVxf_t@xlslib_core@@UborderedXft@2@@std@@@std@@@std@@@std@@QBE_NABV01@@Z 1001d240 f i range.obj
 0001:0001c240       ??9?$_Vector_const_iterator@V?$_Vector_val@U?$_Simple_types@PAUHyperLink@xlslib_core@@@std@@@std@@@std@@QBE_NABV01@@Z 1001d240 f i sheetrec.obj
 0001:0001c240       ??9?$_Vector_const_iterator@V?$_Vector_val@U?$_Simple_types@I@std@@@std@@@std@@QBE_NABV01@@Z 1001d240 f i sheetrec.obj
 0001:0001c240       ??9?$_Tree_const_iterator@V?$_Tree_val@U?$_Tree_simple_types@PAVHPSFitem@xlslib_core@@@std@@@std@@@std@@QBE_NABV01@@Z 1001d240 f i HPSF.obj
 0001:0001c260       ??E?$_Vector_iterator@V?$_Vector_val@U?$_Simple_types@PAVxf_t@xlslib_core@@@std@@@std@@@std@@QAEAAV01@XZ 1001d260 f i globalrec.obj
 0001:0001c260       ??E?$_Vector_iterator@V?$_Vector_val@U?$_Simple_types@PAVformula_t@xlslib_core@@@std@@@std@@@std@@QAEAAV01@XZ 1001d260 f i sheetrec.obj
 0001:0001c260       ??E?$_Vector_iterator@V?$_Vector_val@U?$_Simple_types@PAUHyperLink@xlslib_core@@@std@@@std@@@std@@QAEAAV01@XZ 1001d260 f i sheetrec.obj
 0001:0001c260       ??E?$_Vector_const_iterator@V?$_Vector_val@U?$_Simple_types@PAVrange@xlslib_core@@@std@@@std@@@std@@QAEAAV01@XZ 1001d260 f i sheetrec.obj
 0001:0001c260       ??E?$_Vector_const_iterator@V?$_Vector_val@U?$_Simple_types@PAVxf_t@xlslib_core@@@std@@@std@@@std@@QAEAAV01@XZ 1001d260 f i globalrec.obj
 0001:0001c260       ??E?$_Vector_const_iterator@V?$_Vector_val@U?$_Simple_types@PAUHyperLink@xlslib_core@@@std@@@std@@@std@@QAEAAV01@XZ 1001d260 f i sheetrec.obj
 0001:0001c260       ??E?$_Vector_const_iterator@V?$_Vector_val@U?$_Simple_types@PAVCOleProp@xlslib_core@@@std@@@std@@@std@@QAEAAV01@XZ 1001d260 f i oledoc.obj
 0001:0001c260       ??E?$_Vector_const_iterator@V?$_Vector_val@U?$_Simple_types@PAVformula_t@xlslib_core@@@std@@@std@@@std@@QAEAAV01@XZ 1001d260 f i sheetrec.obj
 0001:0001c260       ??E?$_Vector_iterator@V?$_Vector_val@U?$_Simple_types@PAVCUnit@xlslib_core@@@std@@@std@@@std@@QAEAAV01@XZ 1001d260 f i datast.obj
 0001:0001c260       ??E?$_Vector_iterator@V?$_Vector_val@U?$_Simple_types@PAVfont_t@xlslib_core@@@std@@@std@@@std@@QAEAAV01@XZ 1001d260 f i globalrec.obj
 0001:0001c260       ??E?$_Vector_iterator@V?$_Vector_val@U?$_Simple_types@PAUstyle_t@xlslib_core@@@std@@@std@@@std@@QAEAAV01@XZ 1001d260 f i globalrec.obj
 0001:0001c260       ??E?$_Vector_iterator@V?$_Vector_val@U?$_Simple_types@PAVworksheet@xlslib_core@@@std@@@std@@@std@@QAEAAV01@XZ 1001d260 f i workbook.obj
 0001:0001c260       ??E?$_Vector_iterator@V?$_Vector_val@U?$_Simple_types@PAVrange_t@xlslib_core@@@std@@@std@@@std@@QAEAAV01@XZ 1001d260 f i sheetrec.obj
 0001:0001c260       ??E?$_Vector_const_iterator@V?$_Vector_val@U?$_Simple_types@PBVlabel_t@xlslib_core@@@std@@@std@@@std@@QAEAAV01@XZ 1001d260 f i datast.obj
 0001:0001c260       ??E?$_Vector_const_iterator@V?$_Vector_val@U?$_Simple_types@PAVCUnit@xlslib_core@@@std@@@std@@@std@@QAEAAV01@XZ 1001d260 f i datast.obj
 0001:0001c260       ??E?$_Vector_const_iterator@V?$_Vector_val@U?$_Simple_types@PAUDataValidation@xlslib_core@@@std@@@std@@@std@@QAEAAV01@XZ 1001d260 f i sheetrec.obj
 0001:0001c260       ??E?$_Vector_iterator@V?$_Vector_val@U?$_Simple_types@PBVlabel_t@xlslib_core@@@std@@@std@@@std@@QAEAAV01@XZ 1001d260 f i globalrec.obj
 0001:0001c260       ??E?$_Vector_iterator@V?$_Vector_val@U?$_Simple_types@PAVboundsheet_t@xlslib_core@@@std@@@std@@@std@@QAEAAV01@XZ 1001d260 f i globalrec.obj
 0001:0001c260       ??E?$_Vector_const_iterator@V?$_Vector_val@U?$_Simple_types@PAVrange_t@xlslib_core@@@std@@@std@@@std@@QAEAAV01@XZ 1001d260 f i sheetrec.obj
 0001:0001c260       ??E?$_Vector_const_iterator@V?$_Vector_val@U?$_Simple_types@PAUstyle_t@xlslib_core@@@std@@@std@@@std@@QAEAAV01@XZ 1001d260 f i globalrec.obj
 0001:0001c260       ??E?$_Vector_iterator@V?$_Vector_val@U?$_Simple_types@PAVrange@xlslib_core@@@std@@@std@@@std@@QAEAAV01@XZ 1001d260 f i sheetrec.obj
 0001:0001c260       ??E?$_Vector_iterator@V?$_Vector_val@U?$_Simple_types@I@std@@@std@@@std@@QAEAAV01@XZ 1001d260 f i sheetrec.obj
 0001:0001c260       ??E?$_Vector_const_iterator@V?$_Vector_val@U?$_Simple_types@PAVboundsheet_t@xlslib_core@@@std@@@std@@@std@@QAEAAV01@XZ 1001d260 f i datast.obj
 0001:0001c260       ??E?$_Vector_iterator@V?$_Vector_val@U?$_Simple_types@PAVCOleProp@xlslib_core@@@std@@@std@@@std@@QAEAAV01@XZ 1001d260 f i oledoc.obj
 0001:0001c260       ??E?$_Vector_const_iterator@V?$_Vector_val@U?$_Simple_types@PAVformat_t@xlslib_core@@@std@@@std@@@std@@QAEAAV01@XZ 1001d260 f i globalrec.obj
 0001:0001c260       ??E?$_Vector_const_iterator@V?$_Vector_val@U?$_Simple_types@PAVworksheet@xlslib_core@@@std@@@std@@@std@@QAEAAV01@XZ 1001d260 f i workbook.obj
 0001:0001c260       ??E?$_Vector_iterator@V?$_Vector_val@U?$_Simple_types@PAUDataValidation@xlslib_core@@@std@@@std@@@std@@QAEAAV01@XZ 1001d260 f i sheetrec.obj
 0001:0001c260       ??E?$_Vector_iterator@V?$_Vector_val@U?$_Simple_types@PAVformat_t@xlslib_core@@@std@@@std@@@std@@QAEAAV01@XZ 1001d260 f i globalrec.obj
 0001:0001c260       ??E?$_Vector_const_iterator@V?$_Vector_val@U?$_Simple_types@I@std@@@std@@@std@@QAEAAV01@XZ 1001d260 f i sheetrec.obj
 0001:0001c260       ??E?$_Vector_const_iterator@V?$_Vector_val@U?$_Simple_types@PAVfont_t@xlslib_core@@@std@@@std@@@std@@QAEAAV01@XZ 1001d260 f i globalrec.obj
 0001:0001c270       ??D?$_Vector_const_iterator@V?$_Vector_val@U?$_Simple_types@PAVfont_t@xlslib_core@@@std@@@std@@@std@@QBEABQAVfont_t@xlslib_core@@XZ 1001d270 f i globalrec.obj
 0001:0001c270       ??D?$_Vector_const_iterator@V?$_Vector_val@U?$_Simple_types@PAVworksheet@xlslib_core@@@std@@@std@@@std@@QBEABQAVworksheet@xlslib_core@@XZ 1001d270 f i workbook.obj
 0001:0001c270       ??D?$_Vector_iterator@V?$_Vector_val@U?$_Simple_types@PAVxf_t@xlslib_core@@@std@@@std@@@std@@QBEAAPAVxf_t@xlslib_core@@XZ 1001d270 f i globalrec.obj
 0001:0001c270       ??D?$_Vector_const_iterator@V?$_Vector_val@U?$_Simple_types@Urowblocksize_t@xlslib_core@@@std@@@std@@@std@@QBEABUrowblocksize_t@xlslib_core@@XZ 1001d270 f i sheetrec.obj
 0001:0001c270       ??D?$_Vector_iterator@V?$_Vector_val@U?$_Simple_types@PAVformula_t@xlslib_core@@@std@@@std@@@std@@QBEAAPAVformula_t@xlslib_core@@XZ 1001d270 f i sheetrec.obj
 0001:0001c270       ??D?$_Vector_iterator@V?$_Vector_val@U?$_Simple_types@PAVformat_t@xlslib_core@@@std@@@std@@@std@@QBEAAPAVformat_t@xlslib_core@@XZ 1001d270 f i globalrec.obj
 0001:0001c270       ??D?$_String_const_iterator@V?$_String_val@U?$_Simple_types@D@std@@@std@@@std@@QBEABDXZ 1001d270 f i globalrec.obj
 0001:0001c270       ??D?$_Vector_const_iterator@V?$_Vector_val@U?$_Simple_types@PAVCOleProp@xlslib_core@@@std@@@std@@@std@@QBEABQAVCOleProp@xlslib_core@@XZ 1001d270 f i oledoc.obj
 0001:0001c270       ?_Mynode@?$_Tree_unchecked_const_iterator@V?$_Tree_val@U?$_Tree_simple_types@PAVHPSFitem@xlslib_core@@@std@@@std@@U_Iterator_base0@2@@std@@QBEPAU?$_Tree_node@PAVHPSFitem@xlslib_core@@PAX@2@XZ 1001d270 f i HPSF.obj
 0001:0001c270       ??D?$_Vector_iterator@V?$_Vector_val@U?$_Simple_types@I@std@@@std@@@std@@QBEAAIXZ 1001d270 f i sheetrec.obj
 0001:0001c270       ??D?$_Vector_iterator@V?$_Vector_val@U?$_Simple_types@PAUHyperLink@xlslib_core@@@std@@@std@@@std@@QBEAAPAUHyperLink@xlslib_core@@XZ 1001d270 f i sheetrec.obj
 0001:0001c270       ?_Unchecked@?$_Vector_iterator@V?$_Vector_val@U?$_Simple_types@PAVCOleProp@xlslib_core@@@std@@@std@@@std@@QBEPAPAVCOleProp@xlslib_core@@XZ 1001d270 f i olefs.obj
 0001:0001c270       ??D?$_Vector_const_iterator@V?$_Vector_val@U?$_Simple_types@PAUDataValidation@xlslib_core@@@std@@@std@@@std@@QBEABQAUDataValidation@xlslib_core@@XZ 1001d270 f i sheetrec.obj
 0001:0001c270       ??D?$_String_const_iterator@V?$_String_val@U?$_Simple_types@_S@std@@@std@@@std@@QBEAB_SXZ 1001d270 f i globalrec.obj
 0001:0001c270       ??D?$_Vector_iterator@V?$_Vector_val@U?$_Simple_types@PAVworksheet@xlslib_core@@@std@@@std@@@std@@QBEAAPAVworksheet@xlslib_core@@XZ 1001d270 f i workbook.obj
 0001:0001c270       ??D?$_Vector_const_iterator@V?$_Vector_val@U?$_Simple_types@PAUstyle_t@xlslib_core@@@std@@@std@@@std@@QBEABQAUstyle_t@xlslib_core@@XZ 1001d270 f i globalrec.obj
 0001:0001c270       ??C?$_Vector_iterator@V?$_Vector_val@U?$_Simple_types@VCUnitStore@xlslib_core@@@std@@@std@@@std@@QBEPAVCUnitStore@xlslib_core@@XZ 1001d270 f i datast.obj
 0001:0001c270       ??D?$_Vector_iterator@V?$_Vector_val@U?$_Simple_types@PAUDataValidation@xlslib_core@@@std@@@std@@@std@@QBEAAPAUDataValidation@xlslib_core@@XZ 1001d270 f i sheetrec.obj
 0001:0001c270       ??D?$_Vector_const_iterator@V?$_Vector_val@U?$_Simple_types@PAVformat_t@xlslib_core@@@std@@@std@@@std@@QBEABQAVformat_t@xlslib_core@@XZ 1001d270 f i globalrec.obj
 0001:0001c270       ??D?$_Vector_iterator@V?$_Vector_val@U?$_Simple_types@PAVboundsheet_t@xlslib_core@@@std@@@std@@@std@@QBEAAPAVboundsheet_t@xlslib_core@@XZ 1001d270 f i globalrec.obj
 0001:0001c270       ??D?$_Vector_iterator@V?$_Vector_val@U?$_Simple_types@PAVCOleProp@xlslib_core@@@std@@@std@@@std@@QBEAAPAVCOleProp@xlslib_core@@XZ 1001d270 f i oledoc.obj
 0001:0001c270       ?_Lmost@?$_Tree@V?$_Tset_traits@PAVrowheight_t@xlslib_core@@Vrowheightsort@2@V?$allocator@PAVrowheight_t@xlslib_core@@@std@@$0A@@std@@@std@@IBEAAPAU?$_Tree_node@PAVrowheight_t@xlslib_core@@PAX@2@XZ 1001d270 f i sheetrec.obj
 0001:0001c270       ?_Lmost@?$_Tree@V?$_Tset_traits@PAVHPSFitem@xlslib_core@@Vinsertsort2@2@V?$allocator@PAVHPSFitem@xlslib_core@@@std@@$0A@@std@@@std@@IBEAAPAU?$_Tree_node@PAVHPSFitem@xlslib_core@@PAX@2@XZ 1001d270 f i HPSF.obj
 0001:0001c270       ??D?$_Vector_const_iterator@V?$_Vector_val@U?$_Simple_types@I@std@@@std@@@std@@QBEABIXZ 1001d270 f i sheetrec.obj
 0001:0001c270       ??D?$_Vector_iterator@V?$_Vector_val@U?$_Simple_types@PAVfont_t@xlslib_core@@@std@@@std@@@std@@QBEAAPAVfont_t@xlslib_core@@XZ 1001d270 f i globalrec.obj
 0001:0001c270       ??D?$_Vector_const_iterator@V?$_Vector_val@U?$_Simple_types@PAVrange@xlslib_core@@@std@@@std@@@std@@QBEABQAVrange@xlslib_core@@XZ 1001d270 f i sheetrec.obj
 0001:0001c270       ??D?$_Vector_const_iterator@V?$_Vector_val@U?$_Simple_types@PAVxf_t@xlslib_core@@@std@@@std@@@std@@QBEABQAVxf_t@xlslib_core@@XZ 1001d270 f i globalrec.obj
 0001:0001c270       ??D?$_Vector_iterator@V?$_Vector_val@U?$_Simple_types@PAVCUnit@xlslib_core@@@std@@@std@@@std@@QBEAAPAVCUnit@xlslib_core@@XZ 1001d270 f i datast.obj
 0001:0001c270       ??D?$_Vector_const_iterator@V?$_Vector_val@U?$_Simple_types@PAUHyperLink@xlslib_core@@@std@@@std@@@std@@QBEABQAUHyperLink@xlslib_core@@XZ 1001d270 f i sheetrec.obj
 0001:0001c270       ??D?$_Vector_const_iterator@V?$_Vector_val@U?$_Simple_types@PBVlabel_t@xlslib_core@@@std@@@std@@@std@@QBEABQBVlabel_t@xlslib_core@@XZ 1001d270 f i datast.obj
 0001:0001c270       ??D?$_Vector_iterator@V?$_Vector_val@U?$_Simple_types@PBVlabel_t@xlslib_core@@@std@@@std@@@std@@QBEAAPBVlabel_t@xlslib_core@@XZ 1001d270 f i globalrec.obj
 0001:0001c270       ??D?$_Vector_iterator@V?$_Vector_val@U?$_Simple_types@PAVrange@xlslib_core@@@std@@@std@@@std@@QBEAAPAVrange@xlslib_core@@XZ 1001d270 f i sheetrec.obj
 0001:0001c270       ?_Lmost@?$_Tree@V?$_Tset_traits@PAUcolinfo_t@xlslib_core@@Vcolinfosort@2@V?$allocator@PAUcolinfo_t@xlslib_core@@@std@@$0A@@std@@@std@@IBEAAPAU?$_Tree_node@PAUcolinfo_t@xlslib_core@@PAX@2@XZ 1001d270 f i sheetrec.obj
 0001:0001c270       ?_Mynode@?$_Tree_unchecked_const_iterator@V?$_Tree_val@U?$_Tree_simple_types@PAUcolinfo_t@xlslib_core@@@std@@@std@@U_Iterator_base0@2@@std@@QBEPAU?$_Tree_node@PAUcolinfo_t@xlslib_core@@PAX@2@XZ 1001d270 f i sheetrec.obj
 0001:0001c270       ?_Mynode@?$_List_unchecked_const_iterator@V?$_List_val@U?$_List_simple_types@PAV?$basic_string@DU?$char_traits@D@std@@V?$allocator@D@2@@std@@@std@@@std@@U_Iterator_base0@2@@std@@QBEPAU?$_List_node@PAV?$basic_string@DU?$char_traits@D@std@@V?$allocator@D@2@@std@@PAX@2@XZ 1001d270 f i olefs.obj
 0001:0001c270       ??D?$_Vector_iterator@V?$_Vector_val@U?$_Simple_types@Urowblocksize_t@xlslib_core@@@std@@@std@@@std@@QBEAAUrowblocksize_t@xlslib_core@@XZ 1001d270 f i sheetrec.obj
 0001:0001c270       ??D?$_Vector_const_iterator@V?$_Vector_val@U?$_Simple_types@PAVformula_t@xlslib_core@@@std@@@std@@@std@@QBEABQAVformula_t@xlslib_core@@XZ 1001d270 f i sheetrec.obj
 0001:0001c270       ?_Mynode@?$_Tree_unchecked_const_iterator@V?$_Tree_val@U?$_Tree_simple_types@PAVcell_t@xlslib_core@@@std@@@std@@U_Iterator_base0@2@@std@@QBEPAU?$_Tree_node@PAVcell_t@xlslib_core@@PAX@2@XZ 1001d270 f i sheetrec.obj
 0001:0001c270       ?_Mynode@?$_Tree_unchecked_const_iterator@V?$_Tree_val@U?$_Tree_simple_types@PAVrowheight_t@xlslib_core@@@std@@@std@@U_Iterator_base0@2@@std@@QBEPAU?$_Tree_node@PAVrowheight_t@xlslib_core@@PAX@2@XZ 1001d270 f i sheetrec.obj
 0001:0001c270       ?_Unchecked@?$_Vector_iterator@V?$_Vector_val@U?$_Simple_types@VCUnitStore@xlslib_core@@@std@@@std@@@std@@QBEPAVCUnitStore@xlslib_core@@XZ 1001d270 f i datast.obj
 0001:0001c270       ?_Lmost@?$_Tree@V?$_Tset_traits@U?$pair@PAVxf_t@xlslib_core@@UborderedXft@2@@std@@VxfSorter@xlslib_core@@V?$allocator@U?$pair@PAVxf_t@xlslib_core@@UborderedXft@2@@std@@@2@$0A@@std@@@std@@IBEAAPAU?$_Tree_node@U?$pair@PAVxf_t@xlslib_core@@UborderedXft@2@@std@@PAX@2@XZ 1001d270 f i range.obj
 0001:0001c270       ??D?$_String_iterator@V?$_String_val@U?$_Simple_types@D@std@@@std@@@std@@QBEAADXZ 1001d270 f i binfile.obj
 0001:0001c270       ??D?$_Vector_const_iterator@V?$_Vector_val@U?$_Simple_types@PAVCUnit@xlslib_core@@@std@@@std@@@std@@QBEABQAVCUnit@xlslib_core@@XZ 1001d270 f i datast.obj
 0001:0001c270       ??D?$_Vector_const_iterator@V?$_Vector_val@U?$_Simple_types@PAVrange_t@xlslib_core@@@std@@@std@@@std@@QBEABQAVrange_t@xlslib_core@@XZ 1001d270 f i sheetrec.obj
 0001:0001c270       ??D?$_Vector_iterator@V?$_Vector_val@U?$_Simple_types@VCUnitStore@xlslib_core@@@std@@@std@@@std@@QBEAAVCUnitStore@xlslib_core@@XZ 1001d270 f i datast.obj
 0001:0001c270       ?_Lmost@?$_Tree@V?$_Tset_traits@PAVcell_t@xlslib_core@@Vinsertsort@2@V?$allocator@PAVcell_t@xlslib_core@@@std@@$0A@@std@@@std@@IBEAAPAU?$_Tree_node@PAVcell_t@xlslib_core@@PAX@2@XZ 1001d270 f i sheetrec.obj
 0001:0001c270       ??D?$_Vector_const_iterator@V?$_Vector_val@U?$_Simple_types@VCUnitStore@xlslib_core@@@std@@@std@@@std@@QBEABVCUnitStore@xlslib_core@@XZ 1001d270 f i datast.obj
 0001:0001c270       ??D?$_Vector_iterator@V?$_Vector_val@U?$_Simple_types@PAUstyle_t@xlslib_core@@@std@@@std@@@std@@QBEAAPAUstyle_t@xlslib_core@@XZ 1001d270 f i globalrec.obj
 0001:0001c270       ??D?$_Vector_const_iterator@V?$_Vector_val@U?$_Simple_types@PAVboundsheet_t@xlslib_core@@@std@@@std@@@std@@QBEABQAVboundsheet_t@xlslib_core@@XZ 1001d270 f i datast.obj
 0001:0001c270       ??D?$_Vector_iterator@V?$_Vector_val@U?$_Simple_types@PAVrange_t@xlslib_core@@@std@@@std@@@std@@QBEAAPAVrange_t@xlslib_core@@XZ 1001d270 f i sheetrec.obj
 0001:0001c270       ?_Mynode@?$_Tree_unchecked_const_iterator@V?$_Tree_val@U?$_Tree_simple_types@U?$pair@PAVxf_t@xlslib_core@@UborderedXft@2@@std@@@std@@@std@@U_Iterator_base0@2@@std@@QBEPAU?$_Tree_node@U?$pair@PAVxf_t@xlslib_core@@UborderedXft@2@@std@@PAX@2@XZ 1001d270 f i range.obj
 0001:0001c280       ?size@?$vector@PAUstyle_t@xlslib_core@@V?$allocator@PAUstyle_t@xlslib_core@@@std@@@std@@QBEIXZ 1001d280 f i globalrec.obj
 0001:0001c280       ?size@?$vector@PBVlabel_t@xlslib_core@@V?$allocator@PBVlabel_t@xlslib_core@@@std@@@std@@QBEIXZ 1001d280 f i datast.obj
 0001:0001c280       ?size@?$vector@PAVformat_t@xlslib_core@@V?$allocator@PAVformat_t@xlslib_core@@@std@@@std@@QBEIXZ 1001d280 f i globalrec.obj
 0001:0001c280       ?size@?$vector@IV?$allocator@I@std@@@std@@QBEIXZ 1001d280 f i sheetrec.obj
 0001:0001c280       ?size@?$vector@PAUHyperLink@xlslib_core@@V?$allocator@PAUHyperLink@xlslib_core@@@std@@@std@@QBEIXZ 1001d280 f i sheetrec.obj
 0001:0001c280       ?size@?$vector@PAUDataValidation@xlslib_core@@V?$allocator@PAUDataValidation@xlslib_core@@@std@@@std@@QBEIXZ 1001d280 f i sheetrec.obj
 0001:0001c280       ?size@?$vector@PAVxf_t@xlslib_core@@V?$allocator@PAVxf_t@xlslib_core@@@std@@@std@@QBEIXZ 1001d280 f i globalrec.obj
 0001:0001c280       ?size@?$vector@PAVfont_t@xlslib_core@@V?$allocator@PAVfont_t@xlslib_core@@@std@@@std@@QBEIXZ 1001d280 f i globalrec.obj
 0001:0001c280       ?size@?$vector@PAVworksheet@xlslib_core@@V?$allocator@PAVworksheet@xlslib_core@@@std@@@std@@QBEIXZ 1001d280 f i workbook.obj
 0001:0001c280       ?size@?$vector@PAVCOleProp@xlslib_core@@V?$allocator@PAVCOleProp@xlslib_core@@@std@@@std@@QBEIXZ 1001d280 f i olefs.obj
 0001:0001c280       ?size@?$vector@PAVrange_t@xlslib_core@@V?$allocator@PAVrange_t@xlslib_core@@@std@@@std@@QBEIXZ 1001d280 f i sheetrec.obj
 0001:0001c280       ?size@?$vector@PAVrange@xlslib_core@@V?$allocator@PAVrange@xlslib_core@@@std@@@std@@QBEIXZ 1001d280 f i sheetrec.obj
 0001:0001c280       ?size@?$vector@PAVformula_t@xlslib_core@@V?$allocator@PAVformula_t@xlslib_core@@@std@@@std@@QBEIXZ 1001d280 f i sheetrec.obj
 0001:0001c280       ?size@?$vector@PAVboundsheet_t@xlslib_core@@V?$allocator@PAVboundsheet_t@xlslib_core@@@std@@@std@@QBEIXZ 1001d280 f i datast.obj
 0001:0001c280       ?size@?$vector@PAVCUnit@xlslib_core@@V?$allocator@PAVCUnit@xlslib_core@@@std@@@std@@QBEIXZ 1001d280 f i datast.obj
 0001:0001c290       ?end@?$_Tree@V?$_Tset_traits@PAVrowheight_t@xlslib_core@@Vrowheightsort@2@V?$allocator@PAVrowheight_t@xlslib_core@@@std@@$0A@@std@@@std@@QAE?AV?$_Tree_const_iterator@V?$_Tree_val@U?$_Tree_simple_types@PAVrowheight_t@xlslib_core@@@std@@@std@@@2@XZ 1001d290 f i sheetrec.obj
 0001:0001c290       ?begin@?$vector@PAUHyperLink@xlslib_core@@V?$allocator@PAUHyperLink@xlslib_core@@@std@@@std@@QAE?AV?$_Vector_iterator@V?$_Vector_val@U?$_Simple_types@PAUHyperLink@xlslib_core@@@std@@@std@@@2@XZ 1001d290 f i sheetrec.obj
 0001:0001c290       ?end@?$_Tree@V?$_Tset_traits@PAVcell_t@xlslib_core@@Vinsertsort@2@V?$allocator@PAVcell_t@xlslib_core@@@std@@$0A@@std@@@std@@QAE?AV?$_Tree_const_iterator@V?$_Tree_val@U?$_Tree_simple_types@PAVcell_t@xlslib_core@@@std@@@std@@@2@XZ 1001d290 f i sheetrec.obj
 0001:0001c290       ?end@?$list@PAV?$basic_string@DU?$char_traits@D@std@@V?$allocator@D@2@@std@@V?$allocator@PAV?$basic_string@DU?$char_traits@D@std@@V?$allocator@D@2@@std@@@2@@std@@QAE?AV?$_List_iterator@V?$_List_val@U?$_List_simple_types@PAV?$basic_string@DU?$char_traits@D@std@@V?$allocator@D@2@@std@@@std@@@std@@@2@XZ 1001d290 f i olefs.obj
 0001:0001c290       ?begin@?$vector@PAVboundsheet_t@xlslib_core@@V?$allocator@PAVboundsheet_t@xlslib_core@@@std@@@std@@QAE?AV?$_Vector_iterator@V?$_Vector_val@U?$_Simple_types@PAVboundsheet_t@xlslib_core@@@std@@@std@@@2@XZ 1001d290 f i globalrec.obj
 0001:0001c290       ?begin@?$vector@IV?$allocator@I@std@@@std@@QAE?AV?$_Vector_iterator@V?$_Vector_val@U?$_Simple_types@I@std@@@std@@@2@XZ 1001d290 f i sheetrec.obj
 0001:0001c290       ?begin@?$vector@PAVrange_t@xlslib_core@@V?$allocator@PAVrange_t@xlslib_core@@@std@@@std@@QAE?AV?$_Vector_iterator@V?$_Vector_val@U?$_Simple_types@PAVrange_t@xlslib_core@@@std@@@std@@@2@XZ 1001d290 f i sheetrec.obj
 0001:0001c290       ?end@?$_Tree@V?$_Tset_traits@PAVHPSFitem@xlslib_core@@Vinsertsort2@2@V?$allocator@PAVHPSFitem@xlslib_core@@@std@@$0A@@std@@@std@@QBE?AV?$_Tree_const_iterator@V?$_Tree_val@U?$_Tree_simple_types@PAVHPSFitem@xlslib_core@@@std@@@std@@@2@XZ 1001d290 f i HPSF.obj
 0001:0001c290       ?begin@?$vector@PAVCUnit@xlslib_core@@V?$allocator@PAVCUnit@xlslib_core@@@std@@@std@@QAE?AV?$_Vector_iterator@V?$_Vector_val@U?$_Simple_types@PAVCUnit@xlslib_core@@@std@@@std@@@2@XZ 1001d290 f i datast.obj
 0001:0001c290       ?begin@?$vector@PBVlabel_t@xlslib_core@@V?$allocator@PBVlabel_t@xlslib_core@@@std@@@std@@QBE?AV?$_Vector_const_iterator@V?$_Vector_val@U?$_Simple_types@PBVlabel_t@xlslib_core@@@std@@@std@@@2@XZ 1001d290 f i datast.obj
 0001:0001c290       ?begin@?$vector@PAUDataValidation@xlslib_core@@V?$allocator@PAUDataValidation@xlslib_core@@@std@@@std@@QAE?AV?$_Vector_iterator@V?$_Vector_val@U?$_Simple_types@PAUDataValidation@xlslib_core@@@std@@@std@@@2@XZ 1001d290 f i sheetrec.obj
 0001:0001c290       ?end@?$_Tree@V?$_Tset_traits@PAVHPSFitem@xlslib_core@@Vinsertsort2@2@V?$allocator@PAVHPSFitem@xlslib_core@@@std@@$0A@@std@@@std@@QAE?AV?$_Tree_const_iterator@V?$_Tree_val@U?$_Tree_simple_types@PAVHPSFitem@xlslib_core@@@std@@@std@@@2@XZ 1001d290 f i HPSF.obj
 0001:0001c290       ?begin@?$vector@PAVformula_t@xlslib_core@@V?$allocator@PAVformula_t@xlslib_core@@@std@@@std@@QAE?AV?$_Vector_iterator@V?$_Vector_val@U?$_Simple_types@PAVformula_t@xlslib_core@@@std@@@std@@@2@XZ 1001d290 f i sheetrec.obj
 0001:0001c290       ?begin@?$vector@PAVfont_t@xlslib_core@@V?$allocator@PAVfont_t@xlslib_core@@@std@@@std@@QAE?AV?$_Vector_iterator@V?$_Vector_val@U?$_Simple_types@PAVfont_t@xlslib_core@@@std@@@std@@@2@XZ 1001d290 f i globalrec.obj
 0001:0001c290       ?begin@?$vector@PAVworksheet@xlslib_core@@V?$allocator@PAVworksheet@xlslib_core@@@std@@@std@@QAE?AV?$_Vector_iterator@V?$_Vector_val@U?$_Simple_types@PAVworksheet@xlslib_core@@@std@@@std@@@2@XZ 1001d290 f i workbook.obj
 0001:0001c290       ?begin@?$vector@Urowblocksize_t@xlslib_core@@V?$allocator@Urowblocksize_t@xlslib_core@@@std@@@std@@QAE?AV?$_Vector_iterator@V?$_Vector_val@U?$_Simple_types@Urowblocksize_t@xlslib_core@@@std@@@std@@@2@XZ 1001d290 f i sheetrec.obj
 0001:0001c290       ?begin@?$vector@PAVCOleProp@xlslib_core@@V?$allocator@PAVCOleProp@xlslib_core@@@std@@@std@@QAE?AV?$_Vector_iterator@V?$_Vector_val@U?$_Simple_types@PAVCOleProp@xlslib_core@@@std@@@std@@@2@XZ 1001d290 f i oledoc.obj
 0001:0001c290       ?_Unchecked_end@?$list@PAV?$basic_string@DU?$char_traits@D@std@@V?$allocator@D@2@@std@@V?$allocator@PAV?$basic_string@DU?$char_traits@D@std@@V?$allocator@D@2@@std@@@2@@std@@QAE?AV?$_List_unchecked_iterator@V?$_List_val@U?$_List_simple_types@PAV?$basic_string@DU?$char_traits@D@std@@V?$allocator@D@2@@std@@@std@@@std@@@2@XZ 1001d290 f i olefs.obj
 0001:0001c290       ?begin@?$vector@PAVboundsheet_t@xlslib_core@@V?$allocator@PAVboundsheet_t@xlslib_core@@@std@@@std@@QBE?AV?$_Vector_const_iterator@V?$_Vector_val@U?$_Simple_types@PAVboundsheet_t@xlslib_core@@@std@@@std@@@2@XZ 1001d290 f i datast.obj
 0001:0001c290       ?end@?$_Tree@V?$_Tset_traits@PAVcell_t@xlslib_core@@Vinsertsort@2@V?$allocator@PAVcell_t@xlslib_core@@@std@@$0A@@std@@@std@@QBE?AV?$_Tree_const_iterator@V?$_Tree_val@U?$_Tree_simple_types@PAVcell_t@xlslib_core@@@std@@@std@@@2@XZ 1001d290 f i sheetrec.obj
 0001:0001c290       ?begin@?$vector@PAUstyle_t@xlslib_core@@V?$allocator@PAUstyle_t@xlslib_core@@@std@@@std@@QAE?AV?$_Vector_iterator@V?$_Vector_val@U?$_Simple_types@PAUstyle_t@xlslib_core@@@std@@@std@@@2@XZ 1001d290 f i globalrec.obj
 0001:0001c290       ?begin@?$vector@VCUnitStore@xlslib_core@@V?$allocator@VCUnitStore@xlslib_core@@@std@@@std@@QAE?AV?$_Vector_iterator@V?$_Vector_val@U?$_Simple_types@VCUnitStore@xlslib_core@@@std@@@std@@@2@XZ 1001d290 f i datast.obj
 0001:0001c290       ?begin@?$vector@PAVfont_t@xlslib_core@@V?$allocator@PAVfont_t@xlslib_core@@@std@@@std@@QBE?AV?$_Vector_const_iterator@V?$_Vector_val@U?$_Simple_types@PAVfont_t@xlslib_core@@@std@@@std@@@2@XZ 1001d290 f i globalrec.obj
 0001:0001c290       ?end@?$_Tree@V?$_Tset_traits@PAUcolinfo_t@xlslib_core@@Vcolinfosort@2@V?$allocator@PAUcolinfo_t@xlslib_core@@@std@@$0A@@std@@@std@@QAE?AV?$_Tree_const_iterator@V?$_Tree_val@U?$_Tree_simple_types@PAUcolinfo_t@xlslib_core@@@std@@@std@@@2@XZ 1001d290 f i sheetrec.obj
 0001:0001c290       ?begin@?$vector@PAVxf_t@xlslib_core@@V?$allocator@PAVxf_t@xlslib_core@@@std@@@std@@QAE?AV?$_Vector_iterator@V?$_Vector_val@U?$_Simple_types@PAVxf_t@xlslib_core@@@std@@@std@@@2@XZ 1001d290 f i globalrec.obj
 0001:0001c290       ?end@?$_Tree@V?$_Tset_traits@U?$pair@PAVxf_t@xlslib_core@@UborderedXft@2@@std@@VxfSorter@xlslib_core@@V?$allocator@U?$pair@PAVxf_t@xlslib_core@@UborderedXft@2@@std@@@2@$0A@@std@@@std@@QAE?AV?$_Tree_const_iterator@V?$_Tree_val@U?$_Tree_simple_types@U?$pair@PAVxf_t@xlslib_core@@UborderedXft@2@@std@@@std@@@std@@@2@XZ 1001d290 f i range.obj
 0001:0001c290       ?begin@?$vector@PBVlabel_t@xlslib_core@@V?$allocator@PBVlabel_t@xlslib_core@@@std@@@std@@QAE?AV?$_Vector_iterator@V?$_Vector_val@U?$_Simple_types@PBVlabel_t@xlslib_core@@@std@@@std@@@2@XZ 1001d290 f i globalrec.obj
 0001:0001c290       ?begin@?$vector@PAVrange@xlslib_core@@V?$allocator@PAVrange@xlslib_core@@@std@@@std@@QAE?AV?$_Vector_iterator@V?$_Vector_val@U?$_Simple_types@PAVrange@xlslib_core@@@std@@@std@@@2@XZ 1001d290 f i sheetrec.obj
 0001:0001c290       ?begin@?$vector@PAVformat_t@xlslib_core@@V?$allocator@PAVformat_t@xlslib_core@@@std@@@std@@QAE?AV?$_Vector_iterator@V?$_Vector_val@U?$_Simple_types@PAVformat_t@xlslib_core@@@std@@@std@@@2@XZ 1001d290 f i globalrec.obj
 0001:0001c2a0       ??G?$_Vector_const_iterator@V?$_Vector_val@U?$_Simple_types@PAVCUnit@xlslib_core@@@std@@@std@@@std@@QBEHABV01@@Z 1001d2a0 f i datast.obj
 0001:0001c2a0       ??G?$_Vector_iterator@V?$_Vector_val@U?$_Simple_types@PAVCUnit@xlslib_core@@@std@@@std@@@std@@QBEHABV?$_Vector_const_iterator@V?$_Vector_val@U?$_Simple_types@PAVCUnit@xlslib_core@@@std@@@std@@@1@@Z 1001d2a0 f i datast.obj
 0001:0001c2a0       ??G?$_Vector_iterator@V?$_Vector_val@U?$_Simple_types@PAVrange_t@xlslib_core@@@std@@@std@@@std@@QBEHABV?$_Vector_const_iterator@V?$_Vector_val@U?$_Simple_types@PAVrange_t@xlslib_core@@@std@@@std@@@1@@Z 1001d2a0 f i sheetrec.obj
 0001:0001c2a0       ??G?$_Vector_const_iterator@V?$_Vector_val@U?$_Simple_types@PAVrange_t@xlslib_core@@@std@@@std@@@std@@QBEHABV01@@Z 1001d2a0 f i sheetrec.obj
 0001:0001c2c0       ??H?$_Vector_iterator@V?$_Vector_val@U?$_Simple_types@PAVCUnit@xlslib_core@@@std@@@std@@@std@@QBE?AV01@H@Z 1001d2c0 f i datast.obj
 0001:0001c2e0       ??F?$_Vector_iterator@V?$_Vector_val@U?$_Simple_types@PAVxf_t@xlslib_core@@@std@@@std@@@std@@QAE?AV01@H@Z 1001d2e0 f i globalrec.obj
 0001:0001c2e0       ??F?$_Vector_iterator@V?$_Vector_val@U?$_Simple_types@PAVCUnit@xlslib_core@@@std@@@std@@@std@@QAE?AV01@H@Z 1001d2e0 f i datast.obj
 0001:0001c2e0       ??F?$_Vector_iterator@V?$_Vector_val@U?$_Simple_types@PAVCOleProp@xlslib_core@@@std@@@std@@@std@@QAE?AV01@H@Z 1001d2e0 f i olefs.obj
 0001:0001c300       ??E?$_Vector_iterator@V?$_Vector_val@U?$_Simple_types@PAVformat_t@xlslib_core@@@std@@@std@@@std@@QAE?AV01@H@Z 1001d300 f i globalrec.obj
 0001:0001c300       ??E?$_Vector_iterator@V?$_Vector_val@U?$_Simple_types@I@std@@@std@@@std@@QAE?AV01@H@Z 1001d300 f i sheetrec.obj
 0001:0001c300       ??E?$_Vector_iterator@V?$_Vector_val@U?$_Simple_types@PAVCUnit@xlslib_core@@@std@@@std@@@std@@QAE?AV01@H@Z 1001d300 f i datast.obj
 0001:0001c300       ??E?$_Vector_iterator@V?$_Vector_val@U?$_Simple_types@PAUHyperLink@xlslib_core@@@std@@@std@@@std@@QAE?AV01@H@Z 1001d300 f i sheetrec.obj
 0001:0001c300       ??E?$_Vector_iterator@V?$_Vector_val@U?$_Simple_types@PAVrange_t@xlslib_core@@@std@@@std@@@std@@QAE?AV01@H@Z 1001d300 f i sheetrec.obj
 0001:0001c300       ??E?$_Vector_iterator@V?$_Vector_val@U?$_Simple_types@PAVxf_t@xlslib_core@@@std@@@std@@@std@@QAE?AV01@H@Z 1001d300 f i globalrec.obj
 0001:0001c300       ??E?$_Vector_iterator@V?$_Vector_val@U?$_Simple_types@PAVfont_t@xlslib_core@@@std@@@std@@@std@@QAE?AV01@H@Z 1001d300 f i globalrec.obj
 0001:0001c300       ??E?$_Vector_iterator@V?$_Vector_val@U?$_Simple_types@PAVrange@xlslib_core@@@std@@@std@@@std@@QAE?AV01@H@Z 1001d300 f i sheetrec.obj
 0001:0001c300       ??E?$_Vector_iterator@V?$_Vector_val@U?$_Simple_types@PAVboundsheet_t@xlslib_core@@@std@@@std@@@std@@QAE?AV01@H@Z 1001d300 f i globalrec.obj
 0001:0001c300       ??E?$_Vector_iterator@V?$_Vector_val@U?$_Simple_types@PAUstyle_t@xlslib_core@@@std@@@std@@@std@@QAE?AV01@H@Z 1001d300 f i globalrec.obj
 0001:0001c300       ??E?$_Vector_iterator@V?$_Vector_val@U?$_Simple_types@PAVCOleProp@xlslib_core@@@std@@@std@@@std@@QAE?AV01@H@Z 1001d300 f i oledoc.obj
 0001:0001c300       ??E?$_Vector_iterator@V?$_Vector_val@U?$_Simple_types@PAUDataValidation@xlslib_core@@@std@@@std@@@std@@QAE?AV01@H@Z 1001d300 f i sheetrec.obj
 0001:0001c300       ??E?$_Vector_iterator@V?$_Vector_val@U?$_Simple_types@PAVformula_t@xlslib_core@@@std@@@std@@@std@@QAE?AV01@H@Z 1001d300 f i sheetrec.obj
 0001:0001c320       ?push_back@?$vector@PAVCUnit@xlslib_core@@V?$allocator@PAVCUnit@xlslib_core@@@std@@@std@@QAEXABQAVCUnit@xlslib_core@@@Z 1001d320 f i datast.obj
 0001:0001c390       ?resize@?$vector@PAVCUnit@xlslib_core@@V?$allocator@PAVCUnit@xlslib_core@@@std@@@std@@QAEXI@Z 1001d390 f i datast.obj
 0001:0001c400       ??1?$vector@PBVlabel_t@xlslib_core@@V?$allocator@PBVlabel_t@xlslib_core@@@std@@@std@@QAE@XZ 1001d400 f i globalrec.obj
 0001:0001c400       ??1?$vector@PAVCOleProp@xlslib_core@@V?$allocator@PAVCOleProp@xlslib_core@@@std@@@std@@QAE@XZ 1001d400 f i oledoc.obj
 0001:0001c400       ??1?$vector@PAUstyle_t@xlslib_core@@V?$allocator@PAUstyle_t@xlslib_core@@@std@@@std@@QAE@XZ 1001d400 f i globalrec.obj
 0001:0001c400       ??1?$vector@PAVrange@xlslib_core@@V?$allocator@PAVrange@xlslib_core@@@std@@@std@@QAE@XZ 1001d400 f i sheetrec.obj
 0001:0001c400       ?_Tidy@?$vector@PAUstyle_t@xlslib_core@@V?$allocator@PAUstyle_t@xlslib_core@@@std@@@std@@IAEXXZ 1001d400 f i globalrec.obj
 0001:0001c400       ??1?$vector@IV?$allocator@I@std@@@std@@QAE@XZ 1001d400 f i sheetrec.obj
 0001:0001c400       ?_Tidy@?$vector@PBVlabel_t@xlslib_core@@V?$allocator@PBVlabel_t@xlslib_core@@@std@@@std@@IAEXXZ 1001d400 f i globalrec.obj
 0001:0001c400       ?_Tidy@?$vector@PAVxf_t@xlslib_core@@V?$allocator@PAVxf_t@xlslib_core@@@std@@@std@@IAEXXZ 1001d400 f i globalrec.obj
 0001:0001c400       ?_Tidy@?$vector@PAVCOleProp@xlslib_core@@V?$allocator@PAVCOleProp@xlslib_core@@@std@@@std@@IAEXXZ 1001d400 f i oledoc.obj
 0001:0001c400       ?_Tidy@?$vector@IV?$allocator@I@std@@@std@@IAEXXZ 1001d400 f i sheetrec.obj
 0001:0001c400       ?_Tidy@?$vector@PAVformula_t@xlslib_core@@V?$allocator@PAVformula_t@xlslib_core@@@std@@@std@@IAEXXZ 1001d400 f i sheetrec.obj
 0001:0001c400       ?_Tidy@?$vector@PAVfont_t@xlslib_core@@V?$allocator@PAVfont_t@xlslib_core@@@std@@@std@@IAEXXZ 1001d400 f i globalrec.obj
 0001:0001c400       ?_Tidy@?$vector@PAVformat_t@xlslib_core@@V?$allocator@PAVformat_t@xlslib_core@@@std@@@std@@IAEXXZ 1001d400 f i globalrec.obj
 0001:0001c400       ??1?$vector@PAVworksheet@xlslib_core@@V?$allocator@PAVworksheet@xlslib_core@@@std@@@std@@QAE@XZ 1001d400 f i workbook.obj
 0001:0001c400       ??1?$vector@PAVrange_t@xlslib_core@@V?$allocator@PAVrange_t@xlslib_core@@@std@@@std@@QAE@XZ 1001d400 f i sheetrec.obj
 0001:0001c400       ?_Tidy@?$vector@PAUHyperLink@xlslib_core@@V?$allocator@PAUHyperLink@xlslib_core@@@std@@@std@@IAEXXZ 1001d400 f i sheetrec.obj
 0001:0001c400       ??1?$vector@PAVfont_t@xlslib_core@@V?$allocator@PAVfont_t@xlslib_core@@@std@@@std@@QAE@XZ 1001d400 f i globalrec.obj
 0001:0001c400       ??1?$vector@PAUDataValidation@xlslib_core@@V?$allocator@PAUDataValidation@xlslib_core@@@std@@@std@@QAE@XZ 1001d400 f i sheetrec.obj
 0001:0001c400       ?_Tidy@?$vector@PAVboundsheet_t@xlslib_core@@V?$allocator@PAVboundsheet_t@xlslib_core@@@std@@@std@@IAEXXZ 1001d400 f i globalrec.obj
 0001:0001c400       ??1?$vector@PAVxf_t@xlslib_core@@V?$allocator@PAVxf_t@xlslib_core@@@std@@@std@@QAE@XZ 1001d400 f i globalrec.obj
 0001:0001c400       ??1?$vector@PAVboundsheet_t@xlslib_core@@V?$allocator@PAVboundsheet_t@xlslib_core@@@std@@@std@@QAE@XZ 1001d400 f i globalrec.obj
 0001:0001c400       ??1?$vector@PAUHyperLink@xlslib_core@@V?$allocator@PAUHyperLink@xlslib_core@@@std@@@std@@QAE@XZ 1001d400 f i sheetrec.obj
 0001:0001c400       ?_Tidy@?$vector@PAVrange@xlslib_core@@V?$allocator@PAVrange@xlslib_core@@@std@@@std@@IAEXXZ 1001d400 f i sheetrec.obj
 0001:0001c400       ?_Tidy@?$vector@PAVCUnit@xlslib_core@@V?$allocator@PAVCUnit@xlslib_core@@@std@@@std@@IAEXXZ 1001d400 f i datast.obj
 0001:0001c400       ?_Tidy@?$vector@PAVworksheet@xlslib_core@@V?$allocator@PAVworksheet@xlslib_core@@@std@@@std@@IAEXXZ 1001d400 f i workbook.obj
 0001:0001c400       ??1?$vector@PAVCUnit@xlslib_core@@V?$allocator@PAVCUnit@xlslib_core@@@std@@@std@@QAE@XZ 1001d400 f i datast.obj
 0001:0001c400       ??1?$vector@PAVformat_t@xlslib_core@@V?$allocator@PAVformat_t@xlslib_core@@@std@@@std@@QAE@XZ 1001d400 f i globalrec.obj
 0001:0001c400       ?_Tidy@?$vector@PAVrange_t@xlslib_core@@V?$allocator@PAVrange_t@xlslib_core@@@std@@@std@@IAEXXZ 1001d400 f i sheetrec.obj
 0001:0001c400       ?_Tidy@?$vector@PAUDataValidation@xlslib_core@@V?$allocator@PAUDataValidation@xlslib_core@@@std@@@std@@IAEXXZ 1001d400 f i sheetrec.obj
 0001:0001c400       ??1?$vector@PAVformula_t@xlslib_core@@V?$allocator@PAVformula_t@xlslib_core@@@std@@@std@@QAE@XZ 1001d400 f i sheetrec.obj
 0001:0001c430       ??E?$_Vector_iterator@V?$_Vector_val@U?$_Simple_types@VCUnitStore@xlslib_core@@@std@@@std@@@std@@QAEAAV01@XZ 1001d430 f i datast.obj
 0001:0001c430       ??E?$_Vector_const_iterator@V?$_Vector_val@U?$_Simple_types@VCUnitStore@xlslib_core@@@std@@@std@@@std@@QAEAAV01@XZ 1001d430 f i datast.obj
 0001:0001c440       ??A?$vector@VCUnitStore@xlslib_core@@V?$allocator@VCUnitStore@xlslib_core@@@std@@@std@@QAEAAVCUnitStore@xlslib_core@@I@Z 1001d440 f i datast.obj
 0001:0001c460       ?empty@?$vector@PBVlabel_t@xlslib_core@@V?$allocator@PBVlabel_t@xlslib_core@@@std@@@std@@QBE_NXZ 1001d460 f i globalrec.obj
 0001:0001c460       ?empty@?$vector@PAVCOleProp@xlslib_core@@V?$allocator@PAVCOleProp@xlslib_core@@@std@@@std@@QBE_NXZ 1001d460 f i olefs.obj
 0001:0001c460       ?empty@?$vector@PAUHyperLink@xlslib_core@@V?$allocator@PAUHyperLink@xlslib_core@@@std@@@std@@QBE_NXZ 1001d460 f i sheetrec.obj
 0001:0001c460       ?empty@?$vector@PAVboundsheet_t@xlslib_core@@V?$allocator@PAVboundsheet_t@xlslib_core@@@std@@@std@@QBE_NXZ 1001d460 f i globalrec.obj
 0001:0001c460       ?empty@?$vector@PAVfont_t@xlslib_core@@V?$allocator@PAVfont_t@xlslib_core@@@std@@@std@@QBE_NXZ 1001d460 f i globalrec.obj
 0001:0001c460       ?empty@?$vector@PAVxf_t@xlslib_core@@V?$allocator@PAVxf_t@xlslib_core@@@std@@@std@@QBE_NXZ 1001d460 f i globalrec.obj
 0001:0001c460       ?empty@?$vector@PAVformula_t@xlslib_core@@V?$allocator@PAVformula_t@xlslib_core@@@std@@@std@@QBE_NXZ 1001d460 f i sheetrec.obj
 0001:0001c460       ?empty@?$vector@VCUnitStore@xlslib_core@@V?$allocator@VCUnitStore@xlslib_core@@@std@@@std@@QBE_NXZ 1001d460 f i datast.obj
 0001:0001c460       ?empty@?$vector@PAVrange@xlslib_core@@V?$allocator@PAVrange@xlslib_core@@@std@@@std@@QBE_NXZ 1001d460 f i sheetrec.obj
 0001:0001c460       ?empty@?$vector@PAVworksheet@xlslib_core@@V?$allocator@PAVworksheet@xlslib_core@@@std@@@std@@QBE_NXZ 1001d460 f i workbook.obj
 0001:0001c460       ?empty@?$vector@PAVrange_t@xlslib_core@@V?$allocator@PAVrange_t@xlslib_core@@@std@@@std@@QBE_NXZ 1001d460 f i sheetrec.obj
 0001:0001c460       ?empty@?$vector@PAUDataValidation@xlslib_core@@V?$allocator@PAUDataValidation@xlslib_core@@@std@@@std@@QBE_NXZ 1001d460 f i sheetrec.obj
 0001:0001c460       ?empty@?$vector@PAVformat_t@xlslib_core@@V?$allocator@PAVformat_t@xlslib_core@@@std@@@std@@QBE_NXZ 1001d460 f i globalrec.obj
 0001:0001c460       ?empty@?$vector@PAUstyle_t@xlslib_core@@V?$allocator@PAUstyle_t@xlslib_core@@@std@@@std@@QBE_NXZ 1001d460 f i globalrec.obj
 0001:0001c470       ?size@?$vector@VCUnitStore@xlslib_core@@V?$allocator@VCUnitStore@xlslib_core@@@std@@@std@@QBEIXZ 1001d470 f i datast.obj
 0001:0001c490       ?resize@?$vector@VCUnitStore@xlslib_core@@V?$allocator@VCUnitStore@xlslib_core@@@std@@@std@@QAEXI@Z 1001d490 f i datast.obj
 0001:0001c500       ?reserve@?$vector@VCUnitStore@xlslib_core@@V?$allocator@VCUnitStore@xlslib_core@@@std@@@std@@QAEXI@Z 1001d500 f i datast.obj
 0001:0001c550       ?_Tidy@?$vector@VCUnitStore@xlslib_core@@V?$allocator@VCUnitStore@xlslib_core@@@std@@@std@@IAEXXZ 1001d550 f i datast.obj
 0001:0001c550       ??1?$vector@VCUnitStore@xlslib_core@@V?$allocator@VCUnitStore@xlslib_core@@@std@@@std@@QAE@XZ 1001d550 f i datast.obj
 0001:0001c5b0       ?insert@?$vector@VCUnitStore@xlslib_core@@V?$allocator@VCUnitStore@xlslib_core@@@std@@@std@@QAE?AV?$_Vector_iterator@V?$_Vector_val@U?$_Simple_types@VCUnitStore@xlslib_core@@@std@@@std@@@2@V?$_Vector_const_iterator@V?$_Vector_val@U?$_Simple_types@VCUnitStore@xlslib_core@@@std@@@std@@@2@$$QAVCUnitStore@xlslib_core@@@Z 1001d5b0 f i datast.obj
 0001:0001c5d0       ??4?$basic_string@_SU?$char_traits@_S@std@@V?$allocator@_S@2@@std@@QAEAAV01@PB_S@Z 1001d5d0 f i datast.obj
 0001:0001c5d0       ?assign@?$basic_string@_SU?$char_traits@_S@std@@V?$allocator@_S@2@@std@@QAEAAV12@PB_S@Z 1001d5d0 f i datast.obj
 0001:0001c600       ??0?$basic_string@_SU?$char_traits@_S@std@@V?$allocator@_S@2@@std@@QAE@ABV01@@Z 1001d600 f i datast.obj
 0001:0001c630       ??8?$_String_const_iterator@V?$_String_val@U?$_Simple_types@D@std@@@std@@@std@@QBE_NABV01@@Z 1001d630 f i globalrec.obj
 0001:0001c630       ??8?$_Vector_const_iterator@V?$_Vector_val@U?$_Simple_types@PAVrange_t@xlslib_core@@@std@@@std@@@std@@QBE_NABV01@@Z 1001d630 f i sheetrec.obj
 0001:0001c630       ??8?$_List_const_iterator@V?$_List_val@U?$_List_simple_types@PAV?$basic_string@DU?$char_traits@D@std@@V?$allocator@D@2@@std@@@std@@@std@@@std@@QBE_NABV01@@Z 1001d630 f i olefs.obj
 0001:0001c630       ??8?$_Tree_const_iterator@V?$_Tree_val@U?$_Tree_simple_types@U?$pair@PAVxf_t@xlslib_core@@UborderedXft@2@@std@@@std@@@std@@@std@@QBE_NABV01@@Z 1001d630 f i range.obj
 0001:0001c630       ??8?$_Vector_const_iterator@V?$_Vector_val@U?$_Simple_types@PAVCUnit@xlslib_core@@@std@@@std@@@std@@QBE_NABV01@@Z 1001d630 f i datast.obj
 0001:0001c630       ??8?$_Tree_const_iterator@V?$_Tree_val@U?$_Tree_simple_types@PAUcolinfo_t@xlslib_core@@@std@@@std@@@std@@QBE_NABV01@@Z 1001d630 f i sheetrec.obj
 0001:0001c630       ??8?$_String_const_iterator@V?$_String_val@U?$_Simple_types@_S@std@@@std@@@std@@QBE_NABV01@@Z 1001d630 f i globalrec.obj
 0001:0001c630       ??8?$_Vector_const_iterator@V?$_Vector_val@U?$_Simple_types@PAVformat_t@xlslib_core@@@std@@@std@@@std@@QBE_NABV01@@Z 1001d630 f i globalrec.obj
 0001:0001c630       ??8?$_Vector_const_iterator@V?$_Vector_val@U?$_Simple_types@PAVrange@xlslib_core@@@std@@@std@@@std@@QBE_NABV01@@Z 1001d630 f i sheetrec.obj
 0001:0001c630       ??8?$_Vector_const_iterator@V?$_Vector_val@U?$_Simple_types@PAVboundsheet_t@xlslib_core@@@std@@@std@@@std@@QBE_NABV01@@Z 1001d630 f i datast.obj
 0001:0001c630       ??8?$_Vector_const_iterator@V?$_Vector_val@U?$_Simple_types@PAUHyperLink@xlslib_core@@@std@@@std@@@std@@QBE_NABV01@@Z 1001d630 f i sheetrec.obj
 0001:0001c630       ??8?$_Vector_const_iterator@V?$_Vector_val@U?$_Simple_types@VCUnitStore@xlslib_core@@@std@@@std@@@std@@QBE_NABV01@@Z 1001d630 f i datast.obj
 0001:0001c630       ??8?$_Vector_const_iterator@V?$_Vector_val@U?$_Simple_types@PAUstyle_t@xlslib_core@@@std@@@std@@@std@@QBE_NABV01@@Z 1001d630 f i globalrec.obj
 0001:0001c630       ??8?$_Vector_const_iterator@V?$_Vector_val@U?$_Simple_types@PAVCOleProp@xlslib_core@@@std@@@std@@@std@@QBE_NABV01@@Z 1001d630 f i oledoc.obj
 0001:0001c630       ??8?$_Vector_const_iterator@V?$_Vector_val@U?$_Simple_types@PAVfont_t@xlslib_core@@@std@@@std@@@std@@QBE_NABV01@@Z 1001d630 f i globalrec.obj
 0001:0001c630       ??8?$_Vector_const_iterator@V?$_Vector_val@U?$_Simple_types@PBVlabel_t@xlslib_core@@@std@@@std@@@std@@QBE_NABV01@@Z 1001d630 f i datast.obj
 0001:0001c630       ??8?$_Vector_const_iterator@V?$_Vector_val@U?$_Simple_types@PAUDataValidation@xlslib_core@@@std@@@std@@@std@@QBE_NABV01@@Z 1001d630 f i sheetrec.obj
 0001:0001c630       ??8?$_Tree_const_iterator@V?$_Tree_val@U?$_Tree_simple_types@PAVcell_t@xlslib_core@@@std@@@std@@@std@@QBE_NABV01@@Z 1001d630 f i sheetrec.obj
 0001:0001c630       ??8?$_Tree_const_iterator@V?$_Tree_val@U?$_Tree_simple_types@PAVrowheight_t@xlslib_core@@@std@@@std@@@std@@QBE_NABV01@@Z 1001d630 f i sheetrec.obj
 0001:0001c630       ??8?$_Tree_const_iterator@V?$_Tree_val@U?$_Tree_simple_types@PAVHPSFitem@xlslib_core@@@std@@@std@@@std@@QBE_NABV01@@Z 1001d630 f i HPSF.obj
 0001:0001c630       ??8?$_Vector_const_iterator@V?$_Vector_val@U?$_Simple_types@PAVxf_t@xlslib_core@@@std@@@std@@@std@@QBE_NABV01@@Z 1001d630 f i globalrec.obj
 0001:0001c630       ??8?$_Vector_const_iterator@V?$_Vector_val@U?$_Simple_types@PAVformula_t@xlslib_core@@@std@@@std@@@std@@QBE_NABV01@@Z 1001d630 f i sheetrec.obj
 0001:0001c630       ??8?$_Vector_const_iterator@V?$_Vector_val@U?$_Simple_types@I@std@@@std@@@std@@QBE_NABV01@@Z 1001d630 f i sheetrec.obj
 0001:0001c630       ??8?$_Vector_const_iterator@V?$_Vector_val@U?$_Simple_types@Urowblocksize_t@xlslib_core@@@std@@@std@@@std@@QBE_NABV01@@Z 1001d630 f i sheetrec.obj
 0001:0001c650       ??0?$_Vector_const_iterator@V?$_Vector_val@U?$_Simple_types@PAVformat_t@xlslib_core@@@std@@@std@@@std@@QAE@PAPAVformat_t@xlslib_core@@PBU_Container_base0@1@@Z 1001d650 f i globalrec.obj
 0001:0001c650       ??0?$_String_const_iterator@V?$_String_val@U?$_Simple_types@_S@std@@@std@@@std@@QAE@PB_SPBU_Container_base0@1@@Z 1001d650 f i globalrec.obj
 0001:0001c650       ??0?$_List_iterator@V?$_List_val@U?$_List_simple_types@PAV?$basic_string@DU?$char_traits@D@std@@V?$allocator@D@2@@std@@@std@@@std@@@std@@QAE@PAU?$_List_node@PAV?$basic_string@DU?$char_traits@D@std@@V?$allocator@D@2@@std@@PAX@1@PBV?$_List_val@U?$_List_simple_types@PAV?$basic_string@DU?$char_traits@D@std@@V?$allocator@D@2@@std@@@std@@@1@@Z 1001d650 f i olefs.obj
 0001:0001c650       ??0?$_Vector_iterator@V?$_Vector_val@U?$_Simple_types@PAVfont_t@xlslib_core@@@std@@@std@@@std@@QAE@PAPAVfont_t@xlslib_core@@PBU_Container_base0@1@@Z 1001d650 f i globalrec.obj
 0001:0001c650       ??0?$_List_unchecked_const_iterator@V?$_List_val@U?$_List_simple_types@PAV?$basic_string@DU?$char_traits@D@std@@V?$allocator@D@2@@std@@@std@@@std@@U_Iterator_base0@2@@std@@QAE@PAU?$_List_node@PAV?$basic_string@DU?$char_traits@D@std@@V?$allocator@D@2@@std@@PAX@1@PBV?$_List_val@U?$_List_simple_types@PAV?$basic_string@DU?$char_traits@D@std@@V?$allocator@D@2@@std@@@std@@@1@@Z 1001d650 f i olefs.obj
 0001:0001c650       ??0?$_Vector_iterator@V?$_Vector_val@U?$_Simple_types@PAVworksheet@xlslib_core@@@std@@@std@@@std@@QAE@PAPAVworksheet@xlslib_core@@PBU_Container_base0@1@@Z 1001d650 f i workbook.obj
 0001:0001c650       ??0?$_Vector_const_iterator@V?$_Vector_val@U?$_Simple_types@PAVrange@xlslib_core@@@std@@@std@@@std@@QAE@PAPAVrange@xlslib_core@@PBU_Container_base0@1@@Z 1001d650 f i sheetrec.obj
 0001:0001c650       ??0?$_Vector_iterator@V?$_Vector_val@U?$_Simple_types@PAVboundsheet_t@xlslib_core@@@std@@@std@@@std@@QAE@PAPAVboundsheet_t@xlslib_core@@PBU_Container_base0@1@@Z 1001d650 f i globalrec.obj
 0001:0001c650       ??0?$_Tree_const_iterator@V?$_Tree_val@U?$_Tree_simple_types@PAVcell_t@xlslib_core@@@std@@@std@@@std@@QAE@PAU?$_Tree_node@PAVcell_t@xlslib_core@@PAX@1@PBV?$_Tree_val@U?$_Tree_simple_types@PAVcell_t@xlslib_core@@@std@@@1@@Z 1001d650 f i sheetrec.obj
 0001:0001c650       ??0?$_Vector_iterator@V?$_Vector_val@U?$_Simple_types@PBVlabel_t@xlslib_core@@@std@@@std@@@std@@QAE@PAPBVlabel_t@xlslib_core@@PBU_Container_base0@1@@Z 1001d650 f i globalrec.obj
 0001:0001c650       ??0?$_Vector_iterator@V?$_Vector_val@U?$_Simple_types@VCUnitStore@xlslib_core@@@std@@@std@@@std@@QAE@PAVCUnitStore@xlslib_core@@PBU_Container_base0@1@@Z 1001d650 f i datast.obj
 0001:0001c650       ??0?$_Vector_iterator@V?$_Vector_val@U?$_Simple_types@PAUstyle_t@xlslib_core@@@std@@@std@@@std@@QAE@PAPAUstyle_t@xlslib_core@@PBU_Container_base0@1@@Z 1001d650 f i globalrec.obj
 0001:0001c650       ??0?$_Tree_unchecked_const_iterator@V?$_Tree_val@U?$_Tree_simple_types@PAUcolinfo_t@xlslib_core@@@std@@@std@@U_Iterator_base0@2@@std@@QAE@PAU?$_Tree_node@PAUcolinfo_t@xlslib_core@@PAX@1@PBV?$_Tree_val@U?$_Tree_simple_types@PAUcolinfo_t@xlslib_core@@@std@@@1@@Z 1001d650 f i sheetrec.obj
 0001:0001c650       ??0?$_Vector_const_iterator@V?$_Vector_val@U?$_Simple_types@PAUDataValidation@xlslib_core@@@std@@@std@@@std@@QAE@PAPAUDataValidation@xlslib_core@@PBU_Container_base0@1@@Z 1001d650 f i sheetrec.obj
 0001:0001c650       ??0?$_Tree_unchecked_const_iterator@V?$_Tree_val@U?$_Tree_simple_types@PAVrowheight_t@xlslib_core@@@std@@@std@@U_Iterator_base0@2@@std@@QAE@PAU?$_Tree_node@PAVrowheight_t@xlslib_core@@PAX@1@PBV?$_Tree_val@U?$_Tree_simple_types@PAVrowheight_t@xlslib_core@@@std@@@1@@Z 1001d650 f i sheetrec.obj
 0001:0001c650       ??0?$_Vector_const_iterator@V?$_Vector_val@U?$_Simple_types@Urowblocksize_t@xlslib_core@@@std@@@std@@@std@@QAE@PAUrowblocksize_t@xlslib_core@@PBU_Container_base0@1@@Z 1001d650 f i sheetrec.obj
 0001:0001c650       ??0?$_String_iterator@V?$_String_val@U?$_Simple_types@D@std@@@std@@@std@@QAE@PADPBU_Container_base0@1@@Z 1001d650 f i binfile.obj
 0001:0001c650       ??0?$_Tree_const_iterator@V?$_Tree_val@U?$_Tree_simple_types@PAVHPSFitem@xlslib_core@@@std@@@std@@@std@@QAE@PAU?$_Tree_node@PAVHPSFitem@xlslib_core@@PAX@1@PBV?$_Tree_val@U?$_Tree_simple_types@PAVHPSFitem@xlslib_core@@@std@@@1@@Z 1001d650 f i HPSF.obj
 0001:0001c650       ??0?$_Vector_const_iterator@V?$_Vector_val@U?$_Simple_types@VCUnitStore@xlslib_core@@@std@@@std@@@std@@QAE@PAVCUnitStore@xlslib_core@@PBU_Container_base0@1@@Z 1001d650 f i datast.obj
 0001:0001c650       ??0?$_Vector_iterator@V?$_Vector_val@U?$_Simple_types@PAVrange_t@xlslib_core@@@std@@@std@@@std@@QAE@PAPAVrange_t@xlslib_core@@PBU_Container_base0@1@@Z 1001d650 f i sheetrec.obj
 0001:0001c650       ??0?$_Vector_const_iterator@V?$_Vector_val@U?$_Simple_types@PAVrange_t@xlslib_core@@@std@@@std@@@std@@QAE@PAPAVrange_t@xlslib_core@@PBU_Container_base0@1@@Z 1001d650 f i sheetrec.obj
 0001:0001c650       ??0?$_Vector_iterator@V?$_Vector_val@U?$_Simple_types@PAUHyperLink@xlslib_core@@@std@@@std@@@std@@QAE@PAPAUHyperLink@xlslib_core@@PBU_Container_base0@1@@Z 1001d650 f i sheetrec.obj
 0001:0001c650       ??0?$_Tree_const_iterator@V?$_Tree_val@U?$_Tree_simple_types@PAVrowheight_t@xlslib_core@@@std@@@std@@@std@@QAE@PAU?$_Tree_node@PAVrowheight_t@xlslib_core@@PAX@1@PBV?$_Tree_val@U?$_Tree_simple_types@PAVrowheight_t@xlslib_core@@@std@@@1@@Z 1001d650 f i sheetrec.obj
 0001:0001c650       ??0?$_Vector_iterator@V?$_Vector_val@U?$_Simple_types@PAUDataValidation@xlslib_core@@@std@@@std@@@std@@QAE@PAPAUDataValidation@xlslib_core@@PBU_Container_base0@1@@Z 1001d650 f i sheetrec.obj
 0001:0001c650       ??0?$_Vector_iterator@V?$_Vector_val@U?$_Simple_types@PAVCUnit@xlslib_core@@@std@@@std@@@std@@QAE@PAPAVCUnit@xlslib_core@@PBU_Container_base0@1@@Z 1001d650 f i datast.obj
 0001:0001c650       ??0?$_Vector_const_iterator@V?$_Vector_val@U?$_Simple_types@PAVxf_t@xlslib_core@@@std@@@std@@@std@@QAE@PAPAVxf_t@xlslib_core@@PBU_Container_base0@1@@Z 1001d650 f i globalrec.obj
 0001:0001c650       ??0?$_Vector_const_iterator@V?$_Vector_val@U?$_Simple_types@PBVlabel_t@xlslib_core@@@std@@@std@@@std@@QAE@PAPBVlabel_t@xlslib_core@@PBU_Container_base0@1@@Z 1001d650 f i datast.obj
 0001:0001c650       ??0?$_Tree_const_iterator@V?$_Tree_val@U?$_Tree_simple_types@U?$pair@PAVxf_t@xlslib_core@@UborderedXft@2@@std@@@std@@@std@@@std@@QAE@PAU?$_Tree_node@U?$pair@PAVxf_t@xlslib_core@@UborderedXft@2@@std@@PAX@1@PBV?$_Tree_val@U?$_Tree_simple_types@U?$pair@PAVxf_t@xlslib_core@@UborderedXft@2@@std@@@std@@@1@@Z 1001d650 f i range.obj
 0001:0001c650       ??0?$_List_const_iterator@V?$_List_val@U?$_List_simple_types@PAV?$basic_string@DU?$char_traits@D@std@@V?$allocator@D@2@@std@@@std@@@std@@@std@@QAE@PAU?$_List_node@PAV?$basic_string@DU?$char_traits@D@std@@V?$allocator@D@2@@std@@PAX@1@PBV?$_List_val@U?$_List_simple_types@PAV?$basic_string@DU?$char_traits@D@std@@V?$allocator@D@2@@std@@@std@@@1@@Z 1001d650 f i olefs.obj
 0001:0001c650       ??0?$_Vector_const_iterator@V?$_Vector_val@U?$_Simple_types@PAVCOleProp@xlslib_core@@@std@@@std@@@std@@QAE@PAPAVCOleProp@xlslib_core@@PBU_Container_base0@1@@Z 1001d650 f i oledoc.obj
 0001:0001c650       ??0?$_Vector_const_iterator@V?$_Vector_val@U?$_Simple_types@PAVfont_t@xlslib_core@@@std@@@std@@@std@@QAE@PAPAVfont_t@xlslib_core@@PBU_Container_base0@1@@Z 1001d650 f i globalrec.obj
 0001:0001c650       ??0?$_Vector_iterator@V?$_Vector_val@U?$_Simple_types@PAVformula_t@xlslib_core@@@std@@@std@@@std@@QAE@PAPAVformula_t@xlslib_core@@PBU_Container_base0@1@@Z 1001d650 f i sheetrec.obj
 0001:0001c650       ??0?$_Vector_iterator@V?$_Vector_val@U?$_Simple_types@PAVxf_t@xlslib_core@@@std@@@std@@@std@@QAE@PAPAVxf_t@xlslib_core@@PBU_Container_base0@1@@Z 1001d650 f i globalrec.obj
 0001:0001c650       ??0?$_Tree_unchecked_const_iterator@V?$_Tree_val@U?$_Tree_simple_types@PAVcell_t@xlslib_core@@@std@@@std@@U_Iterator_base0@2@@std@@QAE@PAU?$_Tree_node@PAVcell_t@xlslib_core@@PAX@1@PBV?$_Tree_val@U?$_Tree_simple_types@PAVcell_t@xlslib_core@@@std@@@1@@Z 1001d650 f i sheetrec.obj
 0001:0001c650       ??0?$_Vector_const_iterator@V?$_Vector_val@U?$_Simple_types@I@std@@@std@@@std@@QAE@PAIPBU_Container_base0@1@@Z 1001d650 f i sheetrec.obj
 0001:0001c650       ??0?$_Vector_iterator@V?$_Vector_val@U?$_Simple_types@Urowblocksize_t@xlslib_core@@@std@@@std@@@std@@QAE@PAUrowblocksize_t@xlslib_core@@PBU_Container_base0@1@@Z 1001d650 f i sheetrec.obj
 0001:0001c650       ??0?$_Vector_const_iterator@V?$_Vector_val@U?$_Simple_types@PAVboundsheet_t@xlslib_core@@@std@@@std@@@std@@QAE@PAPAVboundsheet_t@xlslib_core@@PBU_Container_base0@1@@Z 1001d650 f i datast.obj
 0001:0001c650       ??0?$_Tree_unchecked_const_iterator@V?$_Tree_val@U?$_Tree_simple_types@PAVHPSFitem@xlslib_core@@@std@@@std@@U_Iterator_base0@2@@std@@QAE@PAU?$_Tree_node@PAVHPSFitem@xlslib_core@@PAX@1@PBV?$_Tree_val@U?$_Tree_simple_types@PAVHPSFitem@xlslib_core@@@std@@@1@@Z 1001d650 f i HPSF.obj
 0001:0001c650       ??0?$_Vector_const_iterator@V?$_Vector_val@U?$_Simple_types@PAUstyle_t@xlslib_core@@@std@@@std@@@std@@QAE@PAPAUstyle_t@xlslib_core@@PBU_Container_base0@1@@Z 1001d650 f i globalrec.obj
 0001:0001c650       ??0?$_Vector_const_iterator@V?$_Vector_val@U?$_Simple_types@PAVworksheet@xlslib_core@@@std@@@std@@@std@@QAE@PAPAVworksheet@xlslib_core@@PBU_Container_base0@1@@Z 1001d650 f i workbook.obj
 0001:0001c650       ??0?$_Vector_const_iterator@V?$_Vector_val@U?$_Simple_types@PAUHyperLink@xlslib_core@@@std@@@std@@@std@@QAE@PAPAUHyperLink@xlslib_core@@PBU_Container_base0@1@@Z 1001d650 f i sheetrec.obj
 0001:0001c650       ??0?$_Vector_const_iterator@V?$_Vector_val@U?$_Simple_types@PAVformula_t@xlslib_core@@@std@@@std@@@std@@QAE@PAPAVformula_t@xlslib_core@@PBU_Container_base0@1@@Z 1001d650 f i sheetrec.obj
 0001:0001c650       ??0?$_Tree_const_iterator@V?$_Tree_val@U?$_Tree_simple_types@PAUcolinfo_t@xlslib_core@@@std@@@std@@@std@@QAE@PAU?$_Tree_node@PAUcolinfo_t@xlslib_core@@PAX@1@PBV?$_Tree_val@U?$_Tree_simple_types@PAUcolinfo_t@xlslib_core@@@std@@@1@@Z 1001d650 f i sheetrec.obj
 0001:0001c650       ??0?$_Tree_unchecked_const_iterator@V?$_Tree_val@U?$_Tree_simple_types@U?$pair@PAVxf_t@xlslib_core@@UborderedXft@2@@std@@@std@@@std@@U_Iterator_base0@2@@std@@QAE@PAU?$_Tree_node@U?$pair@PAVxf_t@xlslib_core@@UborderedXft@2@@std@@PAX@1@PBV?$_Tree_val@U?$_Tree_simple_types@U?$pair@PAVxf_t@xlslib_core@@UborderedXft@2@@std@@@std@@@1@@Z 1001d650 f i range.obj
 0001:0001c650       ??0?$_List_unchecked_iterator@V?$_List_val@U?$_List_simple_types@PAV?$basic_string@DU?$char_traits@D@std@@V?$allocator@D@2@@std@@@std@@@std@@@std@@QAE@PAU?$_List_node@PAV?$basic_string@DU?$char_traits@D@std@@V?$allocator@D@2@@std@@PAX@1@PBV?$_List_val@U?$_List_simple_types@PAV?$basic_string@DU?$char_traits@D@std@@V?$allocator@D@2@@std@@@std@@@1@@Z 1001d650 f i olefs.obj
 0001:0001c650       ??0?$_Vector_iterator@V?$_Vector_val@U?$_Simple_types@PAVCOleProp@xlslib_core@@@std@@@std@@@std@@QAE@PAPAVCOleProp@xlslib_core@@PBU_Container_base0@1@@Z 1001d650 f i oledoc.obj
 0001:0001c650       ??0?$_Vector_const_iterator@V?$_Vector_val@U?$_Simple_types@PAVCUnit@xlslib_core@@@std@@@std@@@std@@QAE@PAPAVCUnit@xlslib_core@@PBU_Container_base0@1@@Z 1001d650 f i datast.obj
 0001:0001c650       ??0?$_String_const_iterator@V?$_String_val@U?$_Simple_types@D@std@@@std@@@std@@QAE@PBDPBU_Container_base0@1@@Z 1001d650 f i globalrec.obj
 0001:0001c650       ??0?$_Vector_iterator@V?$_Vector_val@U?$_Simple_types@PAVrange@xlslib_core@@@std@@@std@@@std@@QAE@PAPAVrange@xlslib_core@@PBU_Container_base0@1@@Z 1001d650 f i sheetrec.obj
 0001:0001c650       ??0?$_String_iterator@V?$_String_val@U?$_Simple_types@_S@std@@@std@@@std@@QAE@PA_SPBU_Container_base0@1@@Z 1001d650 f i sheetrec.obj
 0001:0001c650       ??0?$_Vector_iterator@V?$_Vector_val@U?$_Simple_types@PAVformat_t@xlslib_core@@@std@@@std@@@std@@QAE@PAPAVformat_t@xlslib_core@@PBU_Container_base0@1@@Z 1001d650 f i globalrec.obj
 0001:0001c650       ??0?$_Vector_iterator@V?$_Vector_val@U?$_Simple_types@I@std@@@std@@@std@@QAE@PAIPBU_Container_base0@1@@Z 1001d650 f i sheetrec.obj
 0001:0001c660       ??Y?$_Vector_iterator@V?$_Vector_val@U?$_Simple_types@PAVCUnit@xlslib_core@@@std@@@std@@@std@@QAEAAV01@H@Z 1001d660 f i datast.obj
 0001:0001c660       ??Y?$_Vector_const_iterator@V?$_Vector_val@U?$_Simple_types@PAVCUnit@xlslib_core@@@std@@@std@@@std@@QAEAAV01@H@Z 1001d660 f i datast.obj
 0001:0001c680       ??F?$_Vector_iterator@V?$_Vector_val@U?$_Simple_types@PAVCOleProp@xlslib_core@@@std@@@std@@@std@@QAEAAV01@XZ 1001d680 f i olefs.obj
 0001:0001c680       ??F?$_Vector_iterator@V?$_Vector_val@U?$_Simple_types@PAVCUnit@xlslib_core@@@std@@@std@@@std@@QAEAAV01@XZ 1001d680 f i datast.obj
 0001:0001c680       ??F?$_Vector_const_iterator@V?$_Vector_val@U?$_Simple_types@PAVformat_t@xlslib_core@@@std@@@std@@@std@@QAEAAV01@XZ 1001d680 f i globalrec.obj
 0001:0001c680       ??F?$_Vector_const_iterator@V?$_Vector_val@U?$_Simple_types@PAVboundsheet_t@xlslib_core@@@std@@@std@@@std@@QAEAAV01@XZ 1001d680 f i globalrec.obj
 0001:0001c680       ??F?$_Vector_iterator@V?$_Vector_val@U?$_Simple_types@PAUstyle_t@xlslib_core@@@std@@@std@@@std@@QAEAAV01@XZ 1001d680 f i globalrec.obj
 0001:0001c680       ??F?$_Vector_const_iterator@V?$_Vector_val@U?$_Simple_types@PAVCUnit@xlslib_core@@@std@@@std@@@std@@QAEAAV01@XZ 1001d680 f i datast.obj
 0001:0001c680       ??F?$_Vector_const_iterator@V?$_Vector_val@U?$_Simple_types@PAVfont_t@xlslib_core@@@std@@@std@@@std@@QAEAAV01@XZ 1001d680 f i globalrec.obj
 0001:0001c680       ??F?$_Vector_iterator@V?$_Vector_val@U?$_Simple_types@PAVboundsheet_t@xlslib_core@@@std@@@std@@@std@@QAEAAV01@XZ 1001d680 f i globalrec.obj
 0001:0001c680       ??F?$_Vector_const_iterator@V?$_Vector_val@U?$_Simple_types@PAUstyle_t@xlslib_core@@@std@@@std@@@std@@QAEAAV01@XZ 1001d680 f i globalrec.obj
 0001:0001c680       ??F?$_Vector_iterator@V?$_Vector_val@U?$_Simple_types@PAVformat_t@xlslib_core@@@std@@@std@@@std@@QAEAAV01@XZ 1001d680 f i globalrec.obj
 0001:0001c680       ??F?$_Vector_iterator@V?$_Vector_val@U?$_Simple_types@PAVfont_t@xlslib_core@@@std@@@std@@@std@@QAEAAV01@XZ 1001d680 f i globalrec.obj
 0001:0001c680       ??F?$_Vector_iterator@V?$_Vector_val@U?$_Simple_types@PAVxf_t@xlslib_core@@@std@@@std@@@std@@QAEAAV01@XZ 1001d680 f i globalrec.obj
 0001:0001c680       ??F?$_Vector_const_iterator@V?$_Vector_val@U?$_Simple_types@PAVCOleProp@xlslib_core@@@std@@@std@@@std@@QAEAAV01@XZ 1001d680 f i olefs.obj
 0001:0001c680       ??F?$_Vector_const_iterator@V?$_Vector_val@U?$_Simple_types@PAVxf_t@xlslib_core@@@std@@@std@@@std@@QAEAAV01@XZ 1001d680 f i globalrec.obj
 0001:0001c690       ?_Reserve@?$vector@PAVCUnit@xlslib_core@@V?$allocator@PAVCUnit@xlslib_core@@@std@@@std@@IAEXI@Z 1001d690 f i datast.obj
 0001:0001c700       ?_Pop_back_n@?$vector@PAVCUnit@xlslib_core@@V?$allocator@PAVCUnit@xlslib_core@@@std@@@std@@QAEXI@Z 1001d700 f i datast.obj
 0001:0001c720       ?_Reserve@?$vector@VCUnitStore@xlslib_core@@V?$allocator@VCUnitStore@xlslib_core@@@std@@@std@@IAEXI@Z 1001d720 f i datast.obj
 0001:0001c7c0       ?_Reallocate@?$vector@VCUnitStore@xlslib_core@@V?$allocator@VCUnitStore@xlslib_core@@@std@@@std@@IAEXI@Z 1001d7c0 f i datast.obj
 0001:0001c870       ?_Pop_back_n@?$vector@VCUnitStore@xlslib_core@@V?$allocator@VCUnitStore@xlslib_core@@@std@@@std@@QAEXI@Z 1001d870 f i datast.obj
 0001:0001c8b0       ?max_size@?$allocator_traits@V?$allocator@U?$_Tree_node@U?$pair@PAVxf_t@xlslib_core@@UborderedXft@2@@std@@PAX@std@@@std@@@std@@SAIABV?$allocator@U?$_Tree_node@U?$pair@PAVxf_t@xlslib_core@@UborderedXft@2@@std@@PAX@std@@@2@@Z 1001d8b0 f i range.obj
 0001:0001c8b0       ?max_size@?$_Tree@V?$_Tset_traits@U?$pair@PAVxf_t@xlslib_core@@UborderedXft@2@@std@@VxfSorter@xlslib_core@@V?$allocator@U?$pair@PAVxf_t@xlslib_core@@UborderedXft@2@@std@@@2@$0A@@std@@@std@@QBEIXZ 1001d8b0 f i range.obj
 0001:0001c8b0       ?max_size@?$allocator@VCUnitStore@xlslib_core@@@std@@QBEIXZ 1001d8b0 f i datast.obj
 0001:0001c8b0       ?max_size@?$allocator_traits@V?$allocator@VCUnitStore@xlslib_core@@@std@@@std@@SAIABV?$allocator@VCUnitStore@xlslib_core@@@2@@Z 1001d8b0 f i datast.obj
 0001:0001c8b0       ?max_size@?$allocator@U?$_Tree_node@U?$pair@PAVxf_t@xlslib_core@@UborderedXft@2@@std@@PAX@std@@@std@@QBEIXZ 1001d8b0 f i range.obj
 0001:0001c8b0       ?max_size@?$vector@VCUnitStore@xlslib_core@@V?$allocator@VCUnitStore@xlslib_core@@@std@@@std@@QBEIXZ 1001d8b0 f i datast.obj
 0001:0001c8c0       ?capacity@?$vector@VCUnitStore@xlslib_core@@V?$allocator@VCUnitStore@xlslib_core@@@std@@@std@@QBEIXZ 1001d8c0 f i datast.obj
 0001:0001c8e0       ?_Tidy@?$basic_string@_SU?$char_traits@_S@std@@V?$allocator@_S@2@@std@@QAEX_NI@Z 1001d8e0 f i datast.obj
 0001:0001c960       ?assign@?$basic_string@_SU?$char_traits@_S@std@@V?$allocator@_S@2@@std@@QAEAAV12@PB_SI@Z 1001d960 f i datast.obj
 0001:0001ca60       ?assign@?$basic_string@_SU?$char_traits@_S@std@@V?$allocator@_S@2@@std@@QAEAAV12@ABV12@II@Z 1001da60 f i datast.obj
 0001:0001cb90       ?deallocate@?$allocator@PAUDataValidation@xlslib_core@@@std@@QAEXPAPAUDataValidation@xlslib_core@@I@Z 1001db90 f i sheetrec.obj
 0001:0001cb90       ?deallocate@?$allocator@PAUHyperLink@xlslib_core@@@std@@QAEXPAPAUHyperLink@xlslib_core@@I@Z 1001db90 f i sheetrec.obj
 0001:0001cb90       ?deallocate@?$_Wrap_alloc@V?$allocator@PAUDataValidation@xlslib_core@@@std@@@std@@QAEXPAPAUDataValidation@xlslib_core@@I@Z 1001db90 f i sheetrec.obj
 0001:0001cb90       ?deallocate@?$_Wrap_alloc@V?$allocator@PAVboundsheet_t@xlslib_core@@@std@@@std@@QAEXPAPAVboundsheet_t@xlslib_core@@I@Z 1001db90 f i globalrec.obj
 0001:0001cb90       ?deallocate@?$allocator@PAVxf_t@xlslib_core@@@std@@QAEXPAPAVxf_t@xlslib_core@@I@Z 1001db90 f i globalrec.obj
 0001:0001cb90       ?deallocate@?$_Wrap_alloc@V?$allocator@PAVfont_t@xlslib_core@@@std@@@std@@QAEXPAPAVfont_t@xlslib_core@@I@Z 1001db90 f i globalrec.obj
 0001:0001cb90       ?deallocate@?$allocator@PAVworksheet@xlslib_core@@@std@@QAEXPAPAVworksheet@xlslib_core@@I@Z 1001db90 f i workbook.obj
 0001:0001cb90       ?deallocate@?$allocator@PAVformat_t@xlslib_core@@@std@@QAEXPAPAVformat_t@xlslib_core@@I@Z 1001db90 f i globalrec.obj
 0001:0001cb90       ?deallocate@?$allocator@PAVrange@xlslib_core@@@std@@QAEXPAPAVrange@xlslib_core@@I@Z 1001db90 f i sheetrec.obj
 0001:0001cb90       ?deallocate@?$_Wrap_alloc@V?$allocator@I@std@@@std@@QAEXPAII@Z 1001db90 f i sheetrec.obj
 0001:0001cb90       ?deallocate@?$allocator@PAVformula_t@xlslib_core@@@std@@QAEXPAPAVformula_t@xlslib_core@@I@Z 1001db90 f i sheetrec.obj
 0001:0001cb90       ?deallocate@?$allocator@PAVboundsheet_t@xlslib_core@@@std@@QAEXPAPAVboundsheet_t@xlslib_core@@I@Z 1001db90 f i globalrec.obj
 0001:0001cb90       ?deallocate@?$allocator@PAVrange_t@xlslib_core@@@std@@QAEXPAPAVrange_t@xlslib_core@@I@Z 1001db90 f i sheetrec.obj
 0001:0001cb90       ?deallocate@?$_Wrap_alloc@V?$allocator@PAVxf_t@xlslib_core@@@std@@@std@@QAEXPAPAVxf_t@xlslib_core@@I@Z 1001db90 f i globalrec.obj
 0001:0001cb90       ?deallocate@?$_Wrap_alloc@V?$allocator@PAUstyle_t@xlslib_core@@@std@@@std@@QAEXPAPAUstyle_t@xlslib_core@@I@Z 1001db90 f i globalrec.obj
 0001:0001cb90       ?deallocate@?$_Wrap_alloc@V?$allocator@PAVrange@xlslib_core@@@std@@@std@@QAEXPAPAVrange@xlslib_core@@I@Z 1001db90 f i sheetrec.obj
 0001:0001cb90       ?deallocate@?$_Wrap_alloc@V?$allocator@PAVformula_t@xlslib_core@@@std@@@std@@QAEXPAPAVformula_t@xlslib_core@@I@Z 1001db90 f i sheetrec.obj
 0001:0001cb90       ?deallocate@?$allocator@PAVfont_t@xlslib_core@@@std@@QAEXPAPAVfont_t@xlslib_core@@I@Z 1001db90 f i globalrec.obj
 0001:0001cb90       ?deallocate@?$_Wrap_alloc@V?$allocator@PAVworksheet@xlslib_core@@@std@@@std@@QAEXPAPAVworksheet@xlslib_core@@I@Z 1001db90 f i workbook.obj
 0001:0001cb90       ?deallocate@?$_Wrap_alloc@V?$allocator@PAVformat_t@xlslib_core@@@std@@@std@@QAEXPAPAVformat_t@xlslib_core@@I@Z 1001db90 f i globalrec.obj
 0001:0001cb90       ?deallocate@?$_Wrap_alloc@V?$allocator@PAUHyperLink@xlslib_core@@@std@@@std@@QAEXPAPAUHyperLink@xlslib_core@@I@Z 1001db90 f i sheetrec.obj
 0001:0001cb90       ?deallocate@?$_Wrap_alloc@V?$allocator@PAVCUnit@xlslib_core@@@std@@@std@@QAEXPAPAVCUnit@xlslib_core@@I@Z 1001db90 f i datast.obj
 0001:0001cb90       ?deallocate@?$allocator@I@std@@QAEXPAII@Z 1001db90 f i sheetrec.obj
 0001:0001cb90       ?deallocate@?$_Wrap_alloc@V?$allocator@PBVlabel_t@xlslib_core@@@std@@@std@@QAEXPAPBVlabel_t@xlslib_core@@I@Z 1001db90 f i globalrec.obj
 0001:0001cb90       ?deallocate@?$_Wrap_alloc@V?$allocator@PAVrange_t@xlslib_core@@@std@@@std@@QAEXPAPAVrange_t@xlslib_core@@I@Z 1001db90 f i sheetrec.obj
 0001:0001cb90       ?deallocate@?$allocator@PAVCOleProp@xlslib_core@@@std@@QAEXPAPAVCOleProp@xlslib_core@@I@Z 1001db90 f i oledoc.obj
 0001:0001cb90       ?deallocate@?$allocator@PBVlabel_t@xlslib_core@@@std@@QAEXPAPBVlabel_t@xlslib_core@@I@Z 1001db90 f i globalrec.obj
 0001:0001cb90       ?deallocate@?$allocator@PAUstyle_t@xlslib_core@@@std@@QAEXPAPAUstyle_t@xlslib_core@@I@Z 1001db90 f i globalrec.obj
 0001:0001cb90       ?deallocate@?$allocator@PAVCUnit@xlslib_core@@@std@@QAEXPAPAVCUnit@xlslib_core@@I@Z 1001db90 f i datast.obj
 0001:0001cb90       ?deallocate@?$_Wrap_alloc@V?$allocator@PAVCOleProp@xlslib_core@@@std@@@std@@QAEXPAPAVCOleProp@xlslib_core@@I@Z 1001db90 f i oledoc.obj
 0001:0001cbf0       ?_Reallocate@?$vector@PAVrange@xlslib_core@@V?$allocator@PAVrange@xlslib_core@@@std@@@std@@IAEXI@Z 1001dbf0 f i sheetrec.obj
 0001:0001cbf0       ?_Reallocate@?$vector@PAUHyperLink@xlslib_core@@V?$allocator@PAUHyperLink@xlslib_core@@@std@@@std@@IAEXI@Z 1001dbf0 f i sheetrec.obj
 0001:0001cbf0       ?_Reallocate@?$vector@PAVboundsheet_t@xlslib_core@@V?$allocator@PAVboundsheet_t@xlslib_core@@@std@@@std@@IAEXI@Z 1001dbf0 f i globalrec.obj
 0001:0001cbf0       ?_Reallocate@?$vector@PAVfont_t@xlslib_core@@V?$allocator@PAVfont_t@xlslib_core@@@std@@@std@@IAEXI@Z 1001dbf0 f i globalrec.obj
 0001:0001cbf0       ?_Reallocate@?$vector@PAVxf_t@xlslib_core@@V?$allocator@PAVxf_t@xlslib_core@@@std@@@std@@IAEXI@Z 1001dbf0 f i globalrec.obj
 0001:0001cbf0       ?_Reallocate@?$vector@PAVformat_t@xlslib_core@@V?$allocator@PAVformat_t@xlslib_core@@@std@@@std@@IAEXI@Z 1001dbf0 f i globalrec.obj
 0001:0001cbf0       ?_Reallocate@?$vector@PAVformula_t@xlslib_core@@V?$allocator@PAVformula_t@xlslib_core@@@std@@@std@@IAEXI@Z 1001dbf0 f i sheetrec.obj
 0001:0001cbf0       ?_Reallocate@?$vector@PBVlabel_t@xlslib_core@@V?$allocator@PBVlabel_t@xlslib_core@@@std@@@std@@IAEXI@Z 1001dbf0 f i globalrec.obj
 0001:0001cbf0       ?_Reallocate@?$vector@PAUDataValidation@xlslib_core@@V?$allocator@PAUDataValidation@xlslib_core@@@std@@@std@@IAEXI@Z 1001dbf0 f i sheetrec.obj
 0001:0001cbf0       ?_Reallocate@?$vector@PAVworksheet@xlslib_core@@V?$allocator@PAVworksheet@xlslib_core@@@std@@@std@@IAEXI@Z 1001dbf0 f i workbook.obj
 0001:0001cbf0       ?_Reallocate@?$vector@IV?$allocator@I@std@@@std@@IAEXI@Z 1001dbf0 f i sheetrec.obj
 0001:0001cbf0       ?_Reallocate@?$vector@PAVCUnit@xlslib_core@@V?$allocator@PAVCUnit@xlslib_core@@@std@@@std@@IAEXI@Z 1001dbf0 f i datast.obj
 0001:0001cbf0       ?_Reallocate@?$vector@PAUstyle_t@xlslib_core@@V?$allocator@PAUstyle_t@xlslib_core@@@std@@@std@@IAEXI@Z 1001dbf0 f i globalrec.obj
 0001:0001cbf0       ?_Reallocate@?$vector@PAVCOleProp@xlslib_core@@V?$allocator@PAVCOleProp@xlslib_core@@@std@@@std@@IAEXI@Z 1001dbf0 f i olefs.obj
 0001:0001cbf0       ?_Reallocate@?$vector@PAVrange_t@xlslib_core@@V?$allocator@PAVrange_t@xlslib_core@@@std@@@std@@IAEXI@Z 1001dbf0 f i sheetrec.obj
 0001:0001cca0       ?_Grow_to@?$vector@PBVlabel_t@xlslib_core@@V?$allocator@PBVlabel_t@xlslib_core@@@std@@@std@@IBEII@Z 1001dca0 f i globalrec.obj
 0001:0001cca0       ?_Grow_to@?$vector@PAVxf_t@xlslib_core@@V?$allocator@PAVxf_t@xlslib_core@@@std@@@std@@IBEII@Z 1001dca0 f i globalrec.obj
 0001:0001cca0       ?_Grow_to@?$vector@PAVCOleProp@xlslib_core@@V?$allocator@PAVCOleProp@xlslib_core@@@std@@@std@@IBEII@Z 1001dca0 f i olefs.obj
 0001:0001cca0       ?_Grow_to@?$vector@PAUHyperLink@xlslib_core@@V?$allocator@PAUHyperLink@xlslib_core@@@std@@@std@@IBEII@Z 1001dca0 f i sheetrec.obj
 0001:0001cca0       ?_Grow_to@?$vector@PAVfont_t@xlslib_core@@V?$allocator@PAVfont_t@xlslib_core@@@std@@@std@@IBEII@Z 1001dca0 f i globalrec.obj
 0001:0001cca0       ?_Grow_to@?$vector@PAVCUnit@xlslib_core@@V?$allocator@PAVCUnit@xlslib_core@@@std@@@std@@IBEII@Z 1001dca0 f i datast.obj
 0001:0001cca0       ?_Grow_to@?$vector@PAVrange@xlslib_core@@V?$allocator@PAVrange@xlslib_core@@@std@@@std@@IBEII@Z 1001dca0 f i sheetrec.obj
 0001:0001cca0       ?_Grow_to@?$vector@PAVformula_t@xlslib_core@@V?$allocator@PAVformula_t@xlslib_core@@@std@@@std@@IBEII@Z 1001dca0 f i sheetrec.obj
 0001:0001cca0       ?_Grow_to@?$vector@PAUstyle_t@xlslib_core@@V?$allocator@PAUstyle_t@xlslib_core@@@std@@@std@@IBEII@Z 1001dca0 f i globalrec.obj
 0001:0001cca0       ?_Grow_to@?$vector@IV?$allocator@I@std@@@std@@IBEII@Z 1001dca0 f i sheetrec.obj
 0001:0001cca0       ?_Grow_to@?$vector@PAUDataValidation@xlslib_core@@V?$allocator@PAUDataValidation@xlslib_core@@@std@@@std@@IBEII@Z 1001dca0 f i sheetrec.obj
 0001:0001cca0       ?_Grow_to@?$vector@PAVformat_t@xlslib_core@@V?$allocator@PAVformat_t@xlslib_core@@@std@@@std@@IBEII@Z 1001dca0 f i globalrec.obj
 0001:0001cca0       ?_Grow_to@?$vector@PAVboundsheet_t@xlslib_core@@V?$allocator@PAVboundsheet_t@xlslib_core@@@std@@@std@@IBEII@Z 1001dca0 f i globalrec.obj
 0001:0001cca0       ?_Grow_to@?$vector@PAVworksheet@xlslib_core@@V?$allocator@PAVworksheet@xlslib_core@@@std@@@std@@IBEII@Z 1001dca0 f i workbook.obj
 0001:0001cca0       ?_Grow_to@?$vector@PAVrange_t@xlslib_core@@V?$allocator@PAVrange_t@xlslib_core@@@std@@@std@@IBEII@Z 1001dca0 f i sheetrec.obj
 0001:0001ccd0       ?max_size@?$allocator_traits@V?$allocator@PAVxf_t@xlslib_core@@@std@@@std@@SAIABV?$allocator@PAVxf_t@xlslib_core@@@2@@Z 1001dcd0 f i globalrec.obj
 0001:0001ccd0       ?max_size@?$allocator@PAUHyperLink@xlslib_core@@@std@@QBEIXZ 1001dcd0 f i sheetrec.obj
 0001:0001ccd0       ?max_size@?$allocator_traits@V?$allocator@I@std@@@std@@SAIABV?$allocator@I@2@@Z 1001dcd0 f i sheetrec.obj
 0001:0001ccd0       ?max_size@?$vector@PAVrange_t@xlslib_core@@V?$allocator@PAVrange_t@xlslib_core@@@std@@@std@@QBEIXZ 1001dcd0 f i sheetrec.obj
 0001:0001ccd0       ?max_size@?$allocator@PAVworksheet@xlslib_core@@@std@@QBEIXZ 1001dcd0 f i workbook.obj
 0001:0001ccd0       ?max_size@?$allocator_traits@V?$allocator@PAUHyperLink@xlslib_core@@@std@@@std@@SAIABV?$allocator@PAUHyperLink@xlslib_core@@@2@@Z 1001dcd0 f i sheetrec.obj
 0001:0001ccd0       ?max_size@?$allocator@PAVCOleProp@xlslib_core@@@std@@QBEIXZ 1001dcd0 f i olefs.obj
 0001:0001ccd0       ?max_size@?$allocator@I@std@@QBEIXZ 1001dcd0 f i sheetrec.obj
 0001:0001ccd0       ?max_size@?$allocator@PAVformat_t@xlslib_core@@@std@@QBEIXZ 1001dcd0 f i globalrec.obj
 0001:0001ccd0       ?max_size@?$allocator_traits@V?$allocator@PAVfont_t@xlslib_core@@@std@@@std@@SAIABV?$allocator@PAVfont_t@xlslib_core@@@2@@Z 1001dcd0 f i globalrec.obj
 0001:0001ccd0       ?max_size@?$vector@PAVxf_t@xlslib_core@@V?$allocator@PAVxf_t@xlslib_core@@@std@@@std@@QBEIXZ 1001dcd0 f i globalrec.obj
 0001:0001ccd0       ?max_size@?$allocator@PAUDataValidation@xlslib_core@@@std@@QBEIXZ 1001dcd0 f i sheetrec.obj
 0001:0001ccd0       ?max_size@?$allocator@PAVboundsheet_t@xlslib_core@@@std@@QBEIXZ 1001dcd0 f i globalrec.obj
 0001:0001ccd0       ?max_size@?$allocator_traits@V?$allocator@PAVworksheet@xlslib_core@@@std@@@std@@SAIABV?$allocator@PAVworksheet@xlslib_core@@@2@@Z 1001dcd0 f i workbook.obj
 0001:0001ccd0       ?max_size@?$allocator@PAVCUnit@xlslib_core@@@std@@QBEIXZ 1001dcd0 f i datast.obj
 0001:0001ccd0       ?max_size@?$allocator_traits@V?$allocator@PAVCOleProp@xlslib_core@@@std@@@std@@SAIABV?$allocator@PAVCOleProp@xlslib_core@@@2@@Z 1001dcd0 f i olefs.obj
 0001:0001ccd0       ?max_size@?$allocator_traits@V?$allocator@PAVboundsheet_t@xlslib_core@@@std@@@std@@SAIABV?$allocator@PAVboundsheet_t@xlslib_core@@@2@@Z 1001dcd0 f i globalrec.obj
 0001:0001ccd0       ?max_size@?$allocator@PAVfont_t@xlslib_core@@@std@@QBEIXZ 1001dcd0 f i globalrec.obj
 0001:0001ccd0       ?max_size@?$allocator@PAUstyle_t@xlslib_core@@@std@@QBEIXZ 1001dcd0 f i globalrec.obj
 0001:0001ccd0       ?max_size@?$allocator_traits@V?$allocator@PAVformula_t@xlslib_core@@@std@@@std@@SAIABV?$allocator@PAVformula_t@xlslib_core@@@2@@Z 1001dcd0 f i sheetrec.obj
 0001:0001ccd0       ?max_size@?$vector@PAVworksheet@xlslib_core@@V?$allocator@PAVworksheet@xlslib_core@@@std@@@std@@QBEIXZ 1001dcd0 f i workbook.obj
 0001:0001ccd0       ?max_size@?$allocator_traits@V?$allocator@PAVrange_t@xlslib_core@@@std@@@std@@SAIABV?$allocator@PAVrange_t@xlslib_core@@@2@@Z 1001dcd0 f i sheetrec.obj
 0001:0001ccd0       ?max_size@?$allocator@PBVlabel_t@xlslib_core@@@std@@QBEIXZ 1001dcd0 f i globalrec.obj
 0001:0001ccd0       ?max_size@?$allocator@PAVformula_t@xlslib_core@@@std@@QBEIXZ 1001dcd0 f i sheetrec.obj
 0001:0001ccd0       ?max_size@?$vector@PAUHyperLink@xlslib_core@@V?$allocator@PAUHyperLink@xlslib_core@@@std@@@std@@QBEIXZ 1001dcd0 f i sheetrec.obj
 0001:0001ccd0       ?max_size@?$allocator@PAVxf_t@xlslib_core@@@std@@QBEIXZ 1001dcd0 f i globalrec.obj
 0001:0001ccd0       ?max_size@?$allocator@PAVrange@xlslib_core@@@std@@QBEIXZ 1001dcd0 f i sheetrec.obj
 0001:0001ccd0       ?max_size@?$allocator_traits@V?$allocator@PAUDataValidation@xlslib_core@@@std@@@std@@SAIABV?$allocator@PAUDataValidation@xlslib_core@@@2@@Z 1001dcd0 f i sheetrec.obj
 0001:0001ccd0       ?max_size@?$allocator@PAVrange_t@xlslib_core@@@std@@QBEIXZ 1001dcd0 f i sheetrec.obj
 0001:0001ccd0       ?max_size@?$vector@PAVCUnit@xlslib_core@@V?$allocator@PAVCUnit@xlslib_core@@@std@@@std@@QBEIXZ 1001dcd0 f i datast.obj
 0001:0001ccd0       ?max_size@?$allocator_traits@V?$allocator@PAVformat_t@xlslib_core@@@std@@@std@@SAIABV?$allocator@PAVformat_t@xlslib_core@@@2@@Z 1001dcd0 f i globalrec.obj
 0001:0001ccd0       ?max_size@?$vector@PAUDataValidation@xlslib_core@@V?$allocator@PAUDataValidation@xlslib_core@@@std@@@std@@QBEIXZ 1001dcd0 f i sheetrec.obj
 0001:0001ccd0       ?max_size@?$vector@PAUstyle_t@xlslib_core@@V?$allocator@PAUstyle_t@xlslib_core@@@std@@@std@@QBEIXZ 1001dcd0 f i globalrec.obj
 0001:0001ccd0       ?max_size@?$vector@PAVformula_t@xlslib_core@@V?$allocator@PAVformula_t@xlslib_core@@@std@@@std@@QBEIXZ 1001dcd0 f i sheetrec.obj
 0001:0001ccd0       ?max_size@?$vector@PBVlabel_t@xlslib_core@@V?$allocator@PBVlabel_t@xlslib_core@@@std@@@std@@QBEIXZ 1001dcd0 f i globalrec.obj
 0001:0001ccd0       ?max_size@?$allocator_traits@V?$allocator@PAUstyle_t@xlslib_core@@@std@@@std@@SAIABV?$allocator@PAUstyle_t@xlslib_core@@@2@@Z 1001dcd0 f i globalrec.obj
 0001:0001ccd0       ?max_size@?$allocator_traits@V?$allocator@PAVCUnit@xlslib_core@@@std@@@std@@SAIABV?$allocator@PAVCUnit@xlslib_core@@@2@@Z 1001dcd0 f i datast.obj
 0001:0001ccd0       ?max_size@?$vector@IV?$allocator@I@std@@@std@@QBEIXZ 1001dcd0 f i sheetrec.obj
 0001:0001ccd0       ?max_size@?$vector@PAVrange@xlslib_core@@V?$allocator@PAVrange@xlslib_core@@@std@@@std@@QBEIXZ 1001dcd0 f i sheetrec.obj
 0001:0001ccd0       ?max_size@?$vector@PAVformat_t@xlslib_core@@V?$allocator@PAVformat_t@xlslib_core@@@std@@@std@@QBEIXZ 1001dcd0 f i globalrec.obj
 0001:0001ccd0       ?max_size@?$vector@PAVfont_t@xlslib_core@@V?$allocator@PAVfont_t@xlslib_core@@@std@@@std@@QBEIXZ 1001dcd0 f i globalrec.obj
 0001:0001ccd0       ?max_size@?$allocator_traits@V?$allocator@PAVrange@xlslib_core@@@std@@@std@@SAIABV?$allocator@PAVrange@xlslib_core@@@2@@Z 1001dcd0 f i sheetrec.obj
 0001:0001ccd0       ?max_size@?$allocator_traits@V?$allocator@PBVlabel_t@xlslib_core@@@std@@@std@@SAIABV?$allocator@PBVlabel_t@xlslib_core@@@2@@Z 1001dcd0 f i globalrec.obj
 0001:0001ccd0       ?max_size@?$vector@PAVboundsheet_t@xlslib_core@@V?$allocator@PAVboundsheet_t@xlslib_core@@@std@@@std@@QBEIXZ 1001dcd0 f i globalrec.obj
 0001:0001ccd0       ?max_size@?$vector@PAVCOleProp@xlslib_core@@V?$allocator@PAVCOleProp@xlslib_core@@@std@@@std@@QBEIXZ 1001dcd0 f i olefs.obj
 0001:0001cce0       ?_Unused_capacity@?$vector@PAVCOleProp@xlslib_core@@V?$allocator@PAVCOleProp@xlslib_core@@@std@@@std@@QBEIXZ 1001dce0 f i olefs.obj
 0001:0001cce0       ?_Unused_capacity@?$vector@PAVfont_t@xlslib_core@@V?$allocator@PAVfont_t@xlslib_core@@@std@@@std@@QBEIXZ 1001dce0 f i globalrec.obj
 0001:0001cce0       ?_Unused_capacity@?$vector@IV?$allocator@I@std@@@std@@QBEIXZ 1001dce0 f i sheetrec.obj
 0001:0001cce0       ?_Unused_capacity@?$vector@PAVboundsheet_t@xlslib_core@@V?$allocator@PAVboundsheet_t@xlslib_core@@@std@@@std@@QBEIXZ 1001dce0 f i globalrec.obj
 0001:0001cce0       ?_Unused_capacity@?$vector@PAVrange_t@xlslib_core@@V?$allocator@PAVrange_t@xlslib_core@@@std@@@std@@QBEIXZ 1001dce0 f i sheetrec.obj
 0001:0001cce0       ?_Unused_capacity@?$vector@PAVCUnit@xlslib_core@@V?$allocator@PAVCUnit@xlslib_core@@@std@@@std@@QBEIXZ 1001dce0 f i datast.obj
 0001:0001cce0       ?_Unused_capacity@?$vector@PAVformat_t@xlslib_core@@V?$allocator@PAVformat_t@xlslib_core@@@std@@@std@@QBEIXZ 1001dce0 f i globalrec.obj
 0001:0001cce0       ?_Unused_capacity@?$vector@PAVformula_t@xlslib_core@@V?$allocator@PAVformula_t@xlslib_core@@@std@@@std@@QBEIXZ 1001dce0 f i sheetrec.obj
 0001:0001cce0       ?_Unused_capacity@?$vector@PAVrange@xlslib_core@@V?$allocator@PAVrange@xlslib_core@@@std@@@std@@QBEIXZ 1001dce0 f i sheetrec.obj
 0001:0001cce0       ?_Unused_capacity@?$vector@PAUstyle_t@xlslib_core@@V?$allocator@PAUstyle_t@xlslib_core@@@std@@@std@@QBEIXZ 1001dce0 f i globalrec.obj
 0001:0001cce0       ?_Unused_capacity@?$vector@PAUHyperLink@xlslib_core@@V?$allocator@PAUHyperLink@xlslib_core@@@std@@@std@@QBEIXZ 1001dce0 f i sheetrec.obj
 0001:0001cce0       ?_Unused_capacity@?$vector@PBVlabel_t@xlslib_core@@V?$allocator@PBVlabel_t@xlslib_core@@@std@@@std@@QBEIXZ 1001dce0 f i globalrec.obj
 0001:0001cce0       ?_Unused_capacity@?$vector@PAVworksheet@xlslib_core@@V?$allocator@PAVworksheet@xlslib_core@@@std@@@std@@QBEIXZ 1001dce0 f i workbook.obj
 0001:0001cce0       ?_Unused_capacity@?$vector@PAVxf_t@xlslib_core@@V?$allocator@PAVxf_t@xlslib_core@@@std@@@std@@QBEIXZ 1001dce0 f i globalrec.obj
 0001:0001cce0       ?_Unused_capacity@?$vector@PAUDataValidation@xlslib_core@@V?$allocator@PAUDataValidation@xlslib_core@@@std@@@std@@QBEIXZ 1001dce0 f i sheetrec.obj
 0001:0001ccf0       ?max_size@?$_Wrap_alloc@V?$allocator@U?$_Tree_node@U?$pair@PAVxf_t@xlslib_core@@UborderedXft@2@@std@@PAX@std@@@std@@@std@@QBEIU_Nil@2@@Z 1001dcf0 f i range.obj
 0001:0001ccf0       ?max_size@?$_Wrap_alloc@V?$allocator@VCUnitStore@xlslib_core@@@std@@@std@@QBEIU_Nil@2@@Z 1001dcf0 f i datast.obj
 0001:0001cd00       ?deallocate@?$_Wrap_alloc@V?$allocator@VCUnitStore@xlslib_core@@@std@@@std@@QAEXPAVCUnitStore@xlslib_core@@I@Z 1001dd00 f i datast.obj
 0001:0001cd10       ?allocate@?$_Wrap_alloc@V?$allocator@VCUnitStore@xlslib_core@@@std@@@std@@QAEPAVCUnitStore@xlslib_core@@I@Z 1001dd10 f i datast.obj
 0001:0001cd20       ?_Grow_to@?$vector@VCUnitStore@xlslib_core@@V?$allocator@VCUnitStore@xlslib_core@@@std@@@std@@IBEII@Z 1001dd20 f i datast.obj
 0001:0001cd60       ?_Destroy@?$vector@VCUnitStore@xlslib_core@@V?$allocator@VCUnitStore@xlslib_core@@@std@@@std@@IAEXPAVCUnitStore@xlslib_core@@0@Z 1001dd60 f i datast.obj
 0001:0001cd80       ?_Unused_capacity@?$vector@VCUnitStore@xlslib_core@@V?$allocator@VCUnitStore@xlslib_core@@@std@@@std@@QBEIXZ 1001dd80 f i datast.obj
 0001:0001cda0       ?_Grow@?$basic_string@_SU?$char_traits@_S@std@@V?$allocator@_S@2@@std@@QAE_NI_N@Z 1001dda0 f i datast.obj
 0001:0001ce20       ?erase@?$basic_string@_SU?$char_traits@_S@std@@V?$allocator@_S@2@@std@@QAEAAV12@II@Z 1001de20 f i datast.obj
 0001:0001cea0       ?copy@?$_Char_traits@_SG@std@@SAPA_SPA_SPB_SI@Z 1001dea0 f i datast.obj
 0001:0001ced0       ?length@?$_Char_traits@_SG@std@@SAIPB_S@Z 1001ded0 f i datast.obj
 0001:0001cef0       ?max_size@?$_Wrap_alloc@V?$allocator@PAVformat_t@xlslib_core@@@std@@@std@@QBEIU_Nil@2@@Z 1001def0 f i globalrec.obj
 0001:0001cef0       ?max_size@?$_Wrap_alloc@V?$allocator@PAVfont_t@xlslib_core@@@std@@@std@@QBEIU_Nil@2@@Z 1001def0 f i globalrec.obj
 0001:0001cef0       ?max_size@?$_Wrap_alloc@V?$allocator@I@std@@@std@@QBEIU_Nil@2@@Z 1001def0 f i sheetrec.obj
 0001:0001cef0       ?max_size@?$_Wrap_alloc@V?$allocator@PBVlabel_t@xlslib_core@@@std@@@std@@QBEIU_Nil@2@@Z 1001def0 f i globalrec.obj
 0001:0001cef0       ?max_size@?$_Wrap_alloc@V?$allocator@PAUHyperLink@xlslib_core@@@std@@@std@@QBEIU_Nil@2@@Z 1001def0 f i sheetrec.obj
 0001:0001cef0       ?max_size@?$_Wrap_alloc@V?$allocator@PAVCOleProp@xlslib_core@@@std@@@std@@QBEIU_Nil@2@@Z 1001def0 f i olefs.obj
 0001:0001cef0       ?max_size@?$_Wrap_alloc@V?$allocator@PAVboundsheet_t@xlslib_core@@@std@@@std@@QBEIU_Nil@2@@Z 1001def0 f i globalrec.obj
 0001:0001cef0       ?max_size@?$_Wrap_alloc@V?$allocator@PAVformula_t@xlslib_core@@@std@@@std@@QBEIU_Nil@2@@Z 1001def0 f i sheetrec.obj
 0001:0001cef0       ?max_size@?$_Wrap_alloc@V?$allocator@PAVCUnit@xlslib_core@@@std@@@std@@QBEIU_Nil@2@@Z 1001def0 f i datast.obj
 0001:0001cef0       ?max_size@?$_Wrap_alloc@V?$allocator@PAVworksheet@xlslib_core@@@std@@@std@@QBEIU_Nil@2@@Z 1001def0 f i workbook.obj
 0001:0001cef0       ?max_size@?$_Wrap_alloc@V?$allocator@PAUstyle_t@xlslib_core@@@std@@@std@@QBEIU_Nil@2@@Z 1001def0 f i globalrec.obj
 0001:0001cef0       ?max_size@?$_Wrap_alloc@V?$allocator@PAVrange_t@xlslib_core@@@std@@@std@@QBEIU_Nil@2@@Z 1001def0 f i sheetrec.obj
 0001:0001cef0       ?max_size@?$_Wrap_alloc@V?$allocator@PAVxf_t@xlslib_core@@@std@@@std@@QBEIU_Nil@2@@Z 1001def0 f i globalrec.obj
 0001:0001cef0       ?max_size@?$_Wrap_alloc@V?$allocator@PAUDataValidation@xlslib_core@@@std@@@std@@QBEIU_Nil@2@@Z 1001def0 f i sheetrec.obj
 0001:0001cef0       ?max_size@?$_Wrap_alloc@V?$allocator@PAVrange@xlslib_core@@@std@@@std@@QBEIU_Nil@2@@Z 1001def0 f i sheetrec.obj
 0001:0001cf00       ?allocate@?$allocator@I@std@@QAEPAII@Z 1001df00 f i sheetrec.obj
 0001:0001cf00       ?allocate@?$allocator@PAVboundsheet_t@xlslib_core@@@std@@QAEPAPAVboundsheet_t@xlslib_core@@I@Z 1001df00 f i globalrec.obj
 0001:0001cf00       ?allocate@?$_Wrap_alloc@V?$allocator@PAVformula_t@xlslib_core@@@std@@@std@@QAEPAPAVformula_t@xlslib_core@@I@Z 1001df00 f i sheetrec.obj
 0001:0001cf00       ?allocate@?$_Wrap_alloc@V?$allocator@PAVboundsheet_t@xlslib_core@@@std@@@std@@QAEPAPAVboundsheet_t@xlslib_core@@I@Z 1001df00 f i globalrec.obj
 0001:0001cf00       ?allocate@?$_Wrap_alloc@V?$allocator@PAVformat_t@xlslib_core@@@std@@@std@@QAEPAPAVformat_t@xlslib_core@@I@Z 1001df00 f i globalrec.obj
 0001:0001cf00       ?allocate@?$_Wrap_alloc@V?$allocator@PAUstyle_t@xlslib_core@@@std@@@std@@QAEPAPAUstyle_t@xlslib_core@@I@Z 1001df00 f i globalrec.obj
 0001:0001cf00       ?allocate@?$_Wrap_alloc@V?$allocator@PAUDataValidation@xlslib_core@@@std@@@std@@QAEPAPAUDataValidation@xlslib_core@@I@Z 1001df00 f i sheetrec.obj
 0001:0001cf00       ?allocate@?$allocator@PAVCOleProp@xlslib_core@@@std@@QAEPAPAVCOleProp@xlslib_core@@I@Z 1001df00 f i olefs.obj
 0001:0001cf00       ?allocate@?$_Wrap_alloc@V?$allocator@PAVCUnit@xlslib_core@@@std@@@std@@QAEPAPAVCUnit@xlslib_core@@I@Z 1001df00 f i datast.obj
 0001:0001cf00       ?allocate@?$allocator@PBVlabel_t@xlslib_core@@@std@@QAEPAPBVlabel_t@xlslib_core@@I@Z 1001df00 f i globalrec.obj
 0001:0001cf00       ?allocate@?$_Wrap_alloc@V?$allocator@PAVxf_t@xlslib_core@@@std@@@std@@QAEPAPAVxf_t@xlslib_core@@I@Z 1001df00 f i globalrec.obj
 0001:0001cf00       ?allocate@?$allocator@PAUDataValidation@xlslib_core@@@std@@QAEPAPAUDataValidation@xlslib_core@@I@Z 1001df00 f i sheetrec.obj
 0001:0001cf00       ?allocate@?$allocator@PAVxf_t@xlslib_core@@@std@@QAEPAPAVxf_t@xlslib_core@@I@Z 1001df00 f i globalrec.obj
 0001:0001cf00       ?allocate@?$_Wrap_alloc@V?$allocator@PAVworksheet@xlslib_core@@@std@@@std@@QAEPAPAVworksheet@xlslib_core@@I@Z 1001df00 f i workbook.obj
 0001:0001cf00       ?allocate@?$_Wrap_alloc@V?$allocator@PAUHyperLink@xlslib_core@@@std@@@std@@QAEPAPAUHyperLink@xlslib_core@@I@Z 1001df00 f i sheetrec.obj
 0001:0001cf00       ?allocate@?$_Wrap_alloc@V?$allocator@PAVrange_t@xlslib_core@@@std@@@std@@QAEPAPAVrange_t@xlslib_core@@I@Z 1001df00 f i sheetrec.obj
 0001:0001cf00       ?allocate@?$_Wrap_alloc@V?$allocator@PBVlabel_t@xlslib_core@@@std@@@std@@QAEPAPBVlabel_t@xlslib_core@@I@Z 1001df00 f i globalrec.obj
 0001:0001cf00       ?allocate@?$allocator@PAUstyle_t@xlslib_core@@@std@@QAEPAPAUstyle_t@xlslib_core@@I@Z 1001df00 f i globalrec.obj
 0001:0001cf00       ?allocate@?$allocator@PAVrange_t@xlslib_core@@@std@@QAEPAPAVrange_t@xlslib_core@@I@Z 1001df00 f i sheetrec.obj
 0001:0001cf00       ?allocate@?$_Wrap_alloc@V?$allocator@PAVfont_t@xlslib_core@@@std@@@std@@QAEPAPAVfont_t@xlslib_core@@I@Z 1001df00 f i globalrec.obj
 0001:0001cf00       ?allocate@?$allocator@PAVfont_t@xlslib_core@@@std@@QAEPAPAVfont_t@xlslib_core@@I@Z 1001df00 f i globalrec.obj
 0001:0001cf00       ?allocate@?$allocator@PAVrange@xlslib_core@@@std@@QAEPAPAVrange@xlslib_core@@I@Z 1001df00 f i sheetrec.obj
 0001:0001cf00       ?allocate@?$allocator@PAVCUnit@xlslib_core@@@std@@QAEPAPAVCUnit@xlslib_core@@I@Z 1001df00 f i datast.obj
 0001:0001cf00       ?allocate@?$allocator@PAVworksheet@xlslib_core@@@std@@QAEPAPAVworksheet@xlslib_core@@I@Z 1001df00 f i workbook.obj
 0001:0001cf00       ?allocate@?$allocator@PAVformula_t@xlslib_core@@@std@@QAEPAPAVformula_t@xlslib_core@@I@Z 1001df00 f i sheetrec.obj
 0001:0001cf00       ?allocate@?$_Wrap_alloc@V?$allocator@I@std@@@std@@QAEPAII@Z 1001df00 f i sheetrec.obj
 0001:0001cf00       ?allocate@?$allocator@PAUHyperLink@xlslib_core@@@std@@QAEPAPAUHyperLink@xlslib_core@@I@Z 1001df00 f i sheetrec.obj
 0001:0001cf00       ?allocate@?$_Wrap_alloc@V?$allocator@PAVCOleProp@xlslib_core@@@std@@@std@@QAEPAPAVCOleProp@xlslib_core@@I@Z 1001df00 f i olefs.obj
 0001:0001cf00       ?allocate@?$allocator@PAVformat_t@xlslib_core@@@std@@QAEPAPAVformat_t@xlslib_core@@I@Z 1001df00 f i globalrec.obj
 0001:0001cf00       ?allocate@?$_Wrap_alloc@V?$allocator@PAVrange@xlslib_core@@@std@@@std@@QAEPAPAVrange@xlslib_core@@I@Z 1001df00 f i sheetrec.obj
 0001:0001cf60       ?capacity@?$vector@PAUHyperLink@xlslib_core@@V?$allocator@PAUHyperLink@xlslib_core@@@std@@@std@@QBEIXZ 1001df60 f i sheetrec.obj
 0001:0001cf60       ?capacity@?$vector@PAVCOleProp@xlslib_core@@V?$allocator@PAVCOleProp@xlslib_core@@@std@@@std@@QBEIXZ 1001df60 f i olefs.obj
 0001:0001cf60       ?capacity@?$vector@PAVrange@xlslib_core@@V?$allocator@PAVrange@xlslib_core@@@std@@@std@@QBEIXZ 1001df60 f i sheetrec.obj
 0001:0001cf60       ?capacity@?$vector@IV?$allocator@I@std@@@std@@QBEIXZ 1001df60 f i sheetrec.obj
 0001:0001cf60       ?capacity@?$vector@PAVCUnit@xlslib_core@@V?$allocator@PAVCUnit@xlslib_core@@@std@@@std@@QBEIXZ 1001df60 f i datast.obj
 0001:0001cf60       ?capacity@?$vector@PAVformat_t@xlslib_core@@V?$allocator@PAVformat_t@xlslib_core@@@std@@@std@@QBEIXZ 1001df60 f i globalrec.obj
 0001:0001cf60       ?capacity@?$vector@PAVworksheet@xlslib_core@@V?$allocator@PAVworksheet@xlslib_core@@@std@@@std@@QBEIXZ 1001df60 f i workbook.obj
 0001:0001cf60       ?capacity@?$vector@PAVxf_t@xlslib_core@@V?$allocator@PAVxf_t@xlslib_core@@@std@@@std@@QBEIXZ 1001df60 f i globalrec.obj
 0001:0001cf60       ?capacity@?$vector@PAUstyle_t@xlslib_core@@V?$allocator@PAUstyle_t@xlslib_core@@@std@@@std@@QBEIXZ 1001df60 f i globalrec.obj
 0001:0001cf60       ?capacity@?$vector@PAVboundsheet_t@xlslib_core@@V?$allocator@PAVboundsheet_t@xlslib_core@@@std@@@std@@QBEIXZ 1001df60 f i globalrec.obj
 0001:0001cf60       ?capacity@?$vector@PAVformula_t@xlslib_core@@V?$allocator@PAVformula_t@xlslib_core@@@std@@@std@@QBEIXZ 1001df60 f i sheetrec.obj
 0001:0001cf60       ?capacity@?$vector@PBVlabel_t@xlslib_core@@V?$allocator@PBVlabel_t@xlslib_core@@@std@@@std@@QBEIXZ 1001df60 f i globalrec.obj
 0001:0001cf60       ?capacity@?$vector@PAVrange_t@xlslib_core@@V?$allocator@PAVrange_t@xlslib_core@@@std@@@std@@QBEIXZ 1001df60 f i sheetrec.obj
 0001:0001cf60       ?capacity@?$vector@PAUDataValidation@xlslib_core@@V?$allocator@PAUDataValidation@xlslib_core@@@std@@@std@@QBEIXZ 1001df60 f i sheetrec.obj
 0001:0001cf60       ?capacity@?$vector@PAVfont_t@xlslib_core@@V?$allocator@PAVfont_t@xlslib_core@@@std@@@std@@QBEIXZ 1001df60 f i globalrec.obj
 0001:0001cf70       ?allocate@?$allocator@VCUnitStore@xlslib_core@@@std@@QAEPAVCUnitStore@xlslib_core@@I@Z 1001df70 f i datast.obj
 0001:0001cfe0       ?deallocate@?$allocator@VCUnitStore@xlslib_core@@@std@@QAEXPAVCUnitStore@xlslib_core@@I@Z 1001dfe0 f i datast.obj
 0001:0001d050       ?_Copy@?$basic_string@_SU?$char_traits@_S@std@@V?$allocator@_S@2@@std@@QAEXII@Z 1001e050 f i datast.obj
 0001:0001d1e0       ?eq@?$_Char_traits@_SG@std@@SA_NAB_S0@Z 1001e1e0 f i datast.obj
 0001:0001d1f0       ?move@?$_Char_traits@_SG@std@@SAPA_SPA_SPB_SI@Z 1001e1f0 f i datast.obj
 0001:0001d250       ??$_Uninitialized_default_fill_n1@PAPAVCUnit@xlslib_core@@IV?$allocator@PAVCUnit@xlslib_core@@@std@@@std@@YAXPAPAVCUnit@xlslib_core@@IAAU?$_Wrap_alloc@V?$allocator@PAVCUnit@xlslib_core@@@std@@@0@U?$integral_constant@_N$00@0@@Z 1001e250 f i datast.obj
 0001:0001d250       ??$_Uninitialized_default_fill_n@PAPAVCUnit@xlslib_core@@IV?$allocator@PAVCUnit@xlslib_core@@@std@@@std@@YAXPAPAVCUnit@xlslib_core@@IAAU?$_Wrap_alloc@V?$allocator@PAVCUnit@xlslib_core@@@std@@@0@@Z 1001e250 f i datast.obj
 0001:0001d270       ??$_Uninitialized_default_fill_n@PAVCUnitStore@xlslib_core@@IV?$allocator@VCUnitStore@xlslib_core@@@std@@@std@@YAXPAVCUnitStore@xlslib_core@@IAAU?$_Wrap_alloc@V?$allocator@VCUnitStore@xlslib_core@@@std@@@0@@Z 1001e270 f i datast.obj
 0001:0001d290       ??$emplace@VCUnitStore@xlslib_core@@@?$vector@VCUnitStore@xlslib_core@@V?$allocator@VCUnitStore@xlslib_core@@@std@@@std@@QAE?AV?$_Vector_iterator@V?$_Vector_val@U?$_Simple_types@VCUnitStore@xlslib_core@@@std@@@std@@@1@V?$_Vector_const_iterator@V?$_Vector_val@U?$_Simple_types@VCUnitStore@xlslib_core@@@std@@@std@@@1@$$QAVCUnitStore@xlslib_core@@@Z 1001e290 f i datast.obj
 0001:0001d310       ??$_Umove@PAVCUnitStore@xlslib_core@@@?$vector@VCUnitStore@xlslib_core@@V?$allocator@VCUnitStore@xlslib_core@@@std@@@std@@IAEPAVCUnitStore@xlslib_core@@PAV23@00@Z 1001e310 f i datast.obj
 0001:0001d340       ??$_Destroy_range@V?$allocator@VCUnitStore@xlslib_core@@@std@@PAVCUnitStore@xlslib_core@@@std@@YAXPAVCUnitStore@xlslib_core@@0AAU?$_Wrap_alloc@V?$allocator@VCUnitStore@xlslib_core@@@std@@@0@@Z 1001e340 f i datast.obj
 0001:0001d360       ??G?$_Vector_iterator@V?$_Vector_val@U?$_Simple_types@VCUnitStore@xlslib_core@@@std@@@std@@@std@@QBE?AV01@H@Z 1001e360 f i datast.obj
 0001:0001d380       ??H?$_Vector_iterator@V?$_Vector_val@U?$_Simple_types@VCUnitStore@xlslib_core@@@std@@@std@@@std@@QBE?AV01@H@Z 1001e380 f i datast.obj
 0001:0001d3a0       ??Z?$_Vector_iterator@V?$_Vector_val@U?$_Simple_types@VCUnitStore@xlslib_core@@@std@@@std@@@std@@QAEAAV01@H@Z 1001e3a0 f i datast.obj
 0001:0001d3b0       ??Y?$_Vector_iterator@V?$_Vector_val@U?$_Simple_types@VCUnitStore@xlslib_core@@@std@@@std@@@std@@QAEAAV01@H@Z 1001e3b0 f i datast.obj
 0001:0001d3b0       ??Y?$_Vector_const_iterator@V?$_Vector_val@U?$_Simple_types@VCUnitStore@xlslib_core@@@std@@@std@@@std@@QAEAAV01@H@Z 1001e3b0 f i datast.obj
 0001:0001d3d0       ??$_Uninitialized_default_fill_n1@PAVCUnitStore@xlslib_core@@IV?$allocator@VCUnitStore@xlslib_core@@@std@@@std@@YAXPAVCUnitStore@xlslib_core@@IAAU?$_Wrap_alloc@V?$allocator@VCUnitStore@xlslib_core@@@std@@@0@U?$integral_constant@_N$0A@@0@@Z 1001e3d0 f i datast.obj
 0001:0001d400       ??$emplace_back@VCUnitStore@xlslib_core@@@?$vector@VCUnitStore@xlslib_core@@V?$allocator@VCUnitStore@xlslib_core@@@std@@@std@@QAEX$$QAVCUnitStore@xlslib_core@@@Z 1001e400 f i datast.obj
 0001:0001d430       ??$rotate@V?$_Vector_iterator@V?$_Vector_val@U?$_Simple_types@VCUnitStore@xlslib_core@@@std@@@std@@@std@@@std@@YA?AV?$_Vector_iterator@V?$_Vector_val@U?$_Simple_types@VCUnitStore@xlslib_core@@@std@@@std@@@0@V10@00@Z 1001e430 f i datast.obj
 0001:0001d4b0       ??$_Uninitialized_move_al_unchecked@PAVCUnitStore@xlslib_core@@PAV12@V?$allocator@VCUnitStore@xlslib_core@@@std@@@std@@YAPAVCUnitStore@xlslib_core@@PAV12@00AAU?$_Wrap_alloc@V?$allocator@VCUnitStore@xlslib_core@@@std@@@0@@Z 1001e4b0 f i datast.obj
 0001:0001d4b0       ??$_Uninitialized_move@PAVCUnitStore@xlslib_core@@PAV12@V?$allocator@VCUnitStore@xlslib_core@@@std@@@std@@YAPAVCUnitStore@xlslib_core@@PAV12@00AAU?$_Wrap_alloc@V?$allocator@VCUnitStore@xlslib_core@@@std@@@0@@Z 1001e4b0 f i datast.obj
 0001:0001d4d0       ??$_Destroy_range1@V?$allocator@VCUnitStore@xlslib_core@@@std@@PAVCUnitStore@xlslib_core@@@std@@YAXPAVCUnitStore@xlslib_core@@0AAU?$_Wrap_alloc@V?$allocator@VCUnitStore@xlslib_core@@@std@@@0@U?$integral_constant@_N$0A@@0@@Z 1001e4d0 f i datast.obj
 0001:0001d520       ??$construct@VCUnitStore@xlslib_core@@$$V@?$allocator@VCUnitStore@xlslib_core@@@std@@QAEXPAVCUnitStore@xlslib_core@@@Z 1001e520 f i datast.obj
 0001:0001d520       ??$construct@VCUnitStore@xlslib_core@@$$V@?$_Wrap_alloc@V?$allocator@VCUnitStore@xlslib_core@@@std@@@std@@QAEXPAVCUnitStore@xlslib_core@@@Z 1001e520 f i datast.obj
 0001:0001d550       ??$construct@VCUnitStore@xlslib_core@@V12@@?$_Wrap_alloc@V?$allocator@VCUnitStore@xlslib_core@@@std@@@std@@QAEXPAVCUnitStore@xlslib_core@@$$QAV23@@Z 1001e550 f i datast.obj
 0001:0001d550       ??$construct@VCUnitStore@xlslib_core@@V12@@?$allocator@VCUnitStore@xlslib_core@@@std@@QAEXPAVCUnitStore@xlslib_core@@$$QAV23@@Z 1001e550 f i datast.obj
 0001:0001d570       ??$_Unchecked@V?$_Vector_val@U?$_Simple_types@VCUnitStore@xlslib_core@@@std@@@std@@@std@@YAPAVCUnitStore@xlslib_core@@V?$_Vector_iterator@V?$_Vector_val@U?$_Simple_types@VCUnitStore@xlslib_core@@@std@@@std@@@0@@Z 1001e570 f i datast.obj
 0001:0001d570       ??$_Unchecked@V?$_Vector_val@U?$_Simple_types@PAVCOleProp@xlslib_core@@@std@@@std@@@std@@YAPAPAVCOleProp@xlslib_core@@V?$_Vector_iterator@V?$_Vector_val@U?$_Simple_types@PAVCOleProp@xlslib_core@@@std@@@std@@@0@@Z 1001e570 f i olefs.obj
 0001:0001d580       ??$_Rotate_unchecked@PAVCUnitStore@xlslib_core@@@std@@YAPAVCUnitStore@xlslib_core@@PAV12@00@Z 1001e580 f i datast.obj
 0001:0001d5e0       ??$destroy@VCUnitStore@xlslib_core@@@?$_Wrap_alloc@V?$allocator@VCUnitStore@xlslib_core@@@std@@@std@@QAEXPAVCUnitStore@xlslib_core@@@Z 1001e5e0 f i datast.obj
 0001:0001d5e0       ??$destroy@VCUnitStore@xlslib_core@@@?$allocator@VCUnitStore@xlslib_core@@@std@@QAEXPAVCUnitStore@xlslib_core@@@Z 1001e5e0 f i datast.obj
 0001:0001d620       ?_Rechecked@?$_Vector_iterator@V?$_Vector_val@U?$_Simple_types@VCUnitStore@xlslib_core@@@std@@@std@@@std@@QAEAAV12@PAVCUnitStore@xlslib_core@@@Z 1001e620 f i datast.obj
 0001:0001d630       ??$construct@VCUnitStore@xlslib_core@@$$V@?$allocator_traits@V?$allocator@VCUnitStore@xlslib_core@@@std@@@std@@SAXAAV?$allocator@VCUnitStore@xlslib_core@@@1@PAVCUnitStore@xlslib_core@@@Z 1001e630 f i datast.obj
 0001:0001d650       ??$construct@VCUnitStore@xlslib_core@@V12@@?$allocator_traits@V?$allocator@VCUnitStore@xlslib_core@@@std@@@std@@SAXAAV?$allocator@VCUnitStore@xlslib_core@@@1@PAVCUnitStore@xlslib_core@@$$QAV34@@Z 1001e650 f i datast.obj
 0001:0001d670       ??$_Rotate_unchecked1@PAVCUnitStore@xlslib_core@@@std@@YAPAVCUnitStore@xlslib_core@@PAV12@00Urandom_access_iterator_tag@0@@Z 1001e670 f i datast.obj
 0001:0001d6c0       ??$_Uninitialized_move_al_unchecked1@PAVCUnitStore@xlslib_core@@PAV12@V?$allocator@VCUnitStore@xlslib_core@@@std@@@std@@YAPAVCUnitStore@xlslib_core@@PAV12@00AAU?$_Wrap_alloc@V?$allocator@VCUnitStore@xlslib_core@@@std@@@0@U_General_ptr_iterator_tag@0@U_Any_tag@0@@Z 1001e6c0 f i datast.obj
 0001:0001d700       ??$destroy@VCUnitStore@xlslib_core@@@?$allocator_traits@V?$allocator@VCUnitStore@xlslib_core@@@std@@@std@@SAXAAV?$allocator@VCUnitStore@xlslib_core@@@1@PAVCUnitStore@xlslib_core@@@Z 1001e700 f i datast.obj
 0001:0001d740       ??$_Reverse_unchecked@PAVCUnitStore@xlslib_core@@@std@@YAXPAVCUnitStore@xlslib_core@@0@Z 1001e740 f i datast.obj
 0001:0001d7b0       ??_GCUnitStore@xlslib_core@@QAEPAXI@Z 1001e7b0 f i datast.obj
 0001:0001d7f0       ??$iter_swap@PAVCUnitStore@xlslib_core@@PAV12@@std@@YAXPAVCUnitStore@xlslib_core@@0@Z 1001e7f0 f i datast.obj
 0001:0001d7f0       ??$swap@VCUnitStore@xlslib_core@@X@std@@YAXAAVCUnitStore@xlslib_core@@0@Z 1001e7f0 f i datast.obj
 0001:0001d840       ?addItem@hpsf_doc_t@xlslib_core@@QAEXGG@Z 1001e840 f i docsumminfo.obj
 0001:0001d890       ?addItem@hpsf_doc_t@xlslib_core@@QAEXGABV?$basic_string@DU?$char_traits@D@std@@V?$allocator@D@2@@std@@@Z 1001e890 f i docsumminfo.obj
 0001:0001d960       ??0CDocSummaryInfo@xlslib_core@@QAE@XZ 1001e960 f   docsumminfo.obj
 0001:0001da30       ??_ECDocSummaryInfo@xlslib_core@@UAEPAXI@Z 1001ea30 f i * CIL library *:* CIL module *
 0001:0001da30       ??_GCDocSummaryInfo@xlslib_core@@UAEPAXI@Z 1001ea30 f i docsumminfo.obj
 0001:0001da70       ??1CDocSummaryInfo@xlslib_core@@UAE@XZ 1001ea70 f   docsumminfo.obj
 0001:0001da90       ?property@CDocSummaryInfo@xlslib_core@@QAE_NW4property_t@2@ABV?$basic_string@DU?$char_traits@D@std@@V?$allocator@D@2@@std@@@Z 1001ea90 f   docsumminfo.obj
 0001:0001dab0       ?DumpData@CSummaryInfo@xlslib_core@@QAEHAAVCDataStorage@2@@Z 1001eab0 f   summinfo.obj
 0001:0001dab0       ?DumpData@CDocSummaryInfo@xlslib_core@@QAEHAAVCDataStorage@2@@Z 1001eab0 f   docsumminfo.obj
 0001:0001db10       ?GetIsDouble@number_t@xlslib_core@@QBE_NXZ 1001eb10 f i number.obj
 0001:0001db10       ?GetErr@err_t@xlslib_core@@QBEEXZ 1001eb10 f i err.obj
 0001:0001db20       ??0err_t@xlslib_core@@AAE@AAVCGlobalRecords@1@IIW4errcode_t@1@PAVxf_t@1@@Z 1001eb20 f   err.obj
 0001:0001db60       ?GetData@err_t@xlslib_core@@UBEPAVCUnit@2@AAVCDataStorage@2@@Z 1001eb60 f   err.obj
 0001:0001dbc0       ??0CErr@xlslib_core@@IAE@AAVCDataStorage@1@ABVerr_t@1@@Z 1001ebc0 f   err.obj
 0001:0001dd00       ?dec@std@@YAAAVios_base@1@AAV21@@Z 1001ed00 f i extformat.obj
 0001:0001dd20       ?hex@std@@YAAAVios_base@1@AAV21@@Z 1001ed20 f i extformat.obj
 0001:0001dd40       ?GetIndex@format_t@xlslib_core@@QBEGXZ 1001ed40 f i extformat.obj
 0001:0001dd50       ??0xf_init_t@xlslib_core@@QAE@XZ 1001ed50 f   extformat.obj
 0001:0001ddf0       ??0xf_init_t@xlslib_core@@AAE@ABV01@@Z 1001edf0 f   extformat.obj
 0001:0001dec0       ??4xf_init_t@xlslib_core@@AAEAAV01@ABV01@@Z 1001eec0 f   extformat.obj
 0001:0001df00       ??8xf_init_t@xlslib_core@@QAE_NABV01@@Z 1001ef00 f   extformat.obj
 0001:0001dfc0       ?GetDefaultXFshadow@xf_t@xlslib_core@@CAABVxf_init_t@2@AAVCGlobalRecords@2@_N1@Z 1001efc0 f   extformat.obj
 0001:0001dfe0       ??0xf_t@xlslib_core@@AAE@AAVCGlobalRecords@1@_N11@Z 1001efe0 f   extformat.obj
 0001:0001e330       ??_Exf_t@xlslib_core@@EAEPAXI@Z 1001f330 f i * CIL library *:* CIL module *
 0001:0001e330       ??_Gxf_t@xlslib_core@@EAEPAXI@Z 1001f330 f i extformat.obj
 0001:0001e360       ??0xf_t@xlslib_core@@AAE@ABV01@@Z 1001f360 f   extformat.obj
 0001:0001e610       ??0xf_t@xlslib_core@@AAE@AAVCGlobalRecords@1@ABVxf_init_t@1@@Z 1001f610 f   extformat.obj
 0001:0001ea00       ??1xf_t@xlslib_core@@EAE@XZ 1001fa00 f   extformat.obj
 0001:0001ea10       ?SetFlag@xf_t@xlslib_core@@AAEXE@Z 1001fa10 f   extformat.obj
 0001:0001ea30       ?ClearFlag@xf_t@xlslib_core@@AAEXE@Z 1001fa30 f   extformat.obj
 0001:0001ea50       ?GetFlags@xf_t@xlslib_core@@ABEEXZ 1001fa50 f   extformat.obj
 0001:0001ea60       ?AtuneXF@xf_t@xlslib_core@@AAEXXZ 1001fa60 f   extformat.obj
 0001:0001ebe0       ?MarkUsed@xf_t@xlslib_core@@QAEXXZ 1001fbe0 f   extformat.obj
 0001:0001ebf0       ?UnMarkUsed@xf_t@xlslib_core@@QAEXXZ 1001fbf0 f   extformat.obj
 0001:0001ec40       ?Usage@xf_t@xlslib_core@@QBEIXZ 1001fc40 f   extformat.obj
 0001:0001ec50       ?SetParent@xf_t@xlslib_core@@QAEXPBV12@@Z 1001fc50 f   extformat.obj
 0001:0001ec70       ?GetParent@xf_t@xlslib_core@@QBEPBV12@XZ 1001fc70 f   extformat.obj
 0001:0001ec70       __is_c_termination_complete 1001fc70 f   MSVCRT:ucrt_stubs.obj
 0001:0001ec70       ___scrt_stub_for_is_c_termination_complete 1001fc70 f   MSVCRT:ucrt_stubs.obj
 0001:0001ec70       ___scrt_initialize_winrt   1001fc70 f   MSVCRT:utility_desktop.obj
 0001:0001ec70       ?GetNumberOfChilds@expression_node_t@xlslib_core@@UBEGXZ 1001fc70 f   formula_expr.obj
 0001:0001ec70       ?GetParentIndex@xf_t@xlslib_core@@QBEGXZ 1001fc70 f   extformat.obj
 0001:0001ec80       ?SetFont@xf_t@xlslib_core@@QAEXPAVfont_t@2@@Z 1001fc80 f   extformat.obj
 0001:0001ecc0       ?GetFontIndex@xf_t@xlslib_core@@QBEGXZ 1001fcc0 f   extformat.obj
 0001:0001ecd0       ?SetFormatIndex@xf_t@xlslib_core@@QAEXG@Z 1001fcd0 f   extformat.obj
 0001:0001ed10       ?SetFormat@xf_t@xlslib_core@@QAEXW4format_number_t@2@@Z 1001fd10 f   extformat.obj
 0001:0001ed60       ?SetFormat@xf_t@xlslib_core@@QAEXPAVformat_t@2@@Z 1001fd60 f   extformat.obj
 0001:0001edc0       ?Description@xf_t@xlslib_core@@ABE?AV?$basic_string@DU?$char_traits@D@std@@V?$allocator@D@2@@std@@XZ 1001fdc0 f   extformat.obj
 0001:0001f320       ??_D?$basic_ostringstream@DU?$char_traits@D@std@@V?$allocator@D@2@@std@@QAEXXZ 10020320 f i extformat.obj
 0001:0001f370       ?SetBorderStyle@xf_t@xlslib_core@@QAEXW4border_side_t@2@W4border_style_t@2@@Z 10020370 f   extformat.obj
 0001:0001f3c0       ?SetBorderColor@xf_t@xlslib_core@@QAEXW4border_side_t@2@W4color_name_t@2@@Z 100203c0 f   extformat.obj
 0001:0001f400       ?SetBorderColor@xf_t@xlslib_core@@QAEXW4border_side_t@2@E@Z 10020400 f   extformat.obj
 0001:0001f430       ?GetBorderStyle@xf_t@xlslib_core@@QBEEW4border_side_t@2@@Z 10020430 f   extformat.obj
 0001:0001f440       ?GetBorderColorIdx@xf_t@xlslib_core@@QBEGW4border_side_t@2@@Z 10020440 f   extformat.obj
 0001:0001f450       ??4xf_t@xlslib_core@@AAEAAV01@ABV01@@Z 10020450 f   extformat.obj
 0001:0001f470       ??8xf_t@xlslib_core@@QAE_NABV01@@Z 10020470 f   extformat.obj
 0001:0001f550       ?SetHAlign@xf_t@xlslib_core@@QAEXW4halign_option_t@2@@Z 10020550 f   extformat.obj
 0001:0001f580       ?SetVAlign@xf_t@xlslib_core@@QAEXW4valign_option_t@2@@Z 10020580 f   extformat.obj
 0001:0001f5b0       ?SetIndent@xf_t@xlslib_core@@QAEXW4indent_option_t@2@@Z 100205b0 f   extformat.obj
 0001:0001f5e0       ?SetTxtOrientation@xf_t@xlslib_core@@QAEXW4txtori_option_t@2@@Z 100205e0 f   extformat.obj
 0001:0001f610       ?SetFillFGColor@xf_t@xlslib_core@@QAEXW4color_name_t@2@@Z 10020610 f   extformat.obj
 0001:0001f640       ?SetFillFGColor@xf_t@xlslib_core@@QAEXE@Z 10020640 f   extformat.obj
 0001:0001f660       ?SetFillBGColor@xf_t@xlslib_core@@QAEXW4color_name_t@2@@Z 10020660 f   extformat.obj
 0001:0001f690       ?SetFillBGColor@xf_t@xlslib_core@@QAEXE@Z 10020690 f   extformat.obj
 0001:0001f6b0       ?SetFillStyle@xf_t@xlslib_core@@QAEXW4fill_option_t@2@@Z 100206b0 f   extformat.obj
 0001:0001f6e0       ?SetLocked@xf_t@xlslib_core@@QAEX_N@Z 100206e0 f   extformat.obj
 0001:0001f720       ?SetHidden@xf_t@xlslib_core@@QAEX_N@Z 10020720 f   extformat.obj
 0001:0001f760       ?SetWrap@xf_t@xlslib_core@@QAEX_N@Z 10020760 f   extformat.obj
 0001:0001f7b0       ?SetCellMode@xf_t@xlslib_core@@QAEX_N@Z 100207b0 f   extformat.obj
 0001:0001f7d0       ??0CExtFormat@xlslib_core@@IAE@AAVCDataStorage@1@PBVxf_t@1@@Z 100207d0 f   extformat.obj
 0001:0001fbe0       ?InitDummy@CExtFormat@xlslib_core@@AAEX_N@Z 10020be0 f   extformat.obj
 0001:0001fc10       ?IsCell@CExtFormat@xlslib_core@@QAE_NXZ 10020c10 f   extformat.obj
 0001:0001fc30       ?SetXFParent@CExtFormat@xlslib_core@@QAEXG@Z 10020c30 f   extformat.obj
 0001:0001fc80       ?SetFontIndex@CExtFormat@xlslib_core@@QAEHG@Z 10020c80 f   extformat.obj
 0001:0001fcd0       ?GetFontIndex@CExtFormat@xlslib_core@@QAEGXZ 10020cd0 f   extformat.obj
 0001:0001fcf0       ?SetFormatIndex@CExtFormat@xlslib_core@@QAEHG@Z 10020cf0 f   extformat.obj
 0001:0001fd40       ?GetFormatIndex@CExtFormat@xlslib_core@@QAEGXZ 10020d40 f   extformat.obj
 0001:0001fd60       ?SetLocked@CExtFormat@xlslib_core@@QAEX_N@Z 10020d60 f   extformat.obj
 0001:0001fdb0       ?SetHidden@CExtFormat@xlslib_core@@QAEX_N@Z 10020db0 f   extformat.obj
 0001:0001fe00       ?SetHorizAlign@CExtFormat@xlslib_core@@QAEXE@Z 10020e00 f   extformat.obj
 0001:0001fe40       ?SetVertAlign@CExtFormat@xlslib_core@@QAEXE@Z 10020e40 f   extformat.obj
 0001:0001fe80       ?SetWrap@CExtFormat@xlslib_core@@QAEX_N@Z 10020e80 f   extformat.obj
 0001:0001fec0       ?SetIndent@CExtFormat@xlslib_core@@QAEXE@Z 10020ec0 f   extformat.obj
 0001:0001ff30       ?SetTxtOrientation@CExtFormat@xlslib_core@@QAEXE@Z 10020f30 f   extformat.obj
 0001:0001ff70       ?SetFGColorIndex@CExtFormat@xlslib_core@@QAEXG@Z 10020f70 f   extformat.obj
 0001:0001ffc0       ?SetBGColorIndex@CExtFormat@xlslib_core@@QAEXG@Z 10020fc0 f   extformat.obj
 0001:00020010       ?SetFillPattern@CExtFormat@xlslib_core@@QAEXE@Z 10021010 f   extformat.obj
 0001:00020050       ?SetBorder@CExtFormat@xlslib_core@@QAEXW4border_side_t@2@GG@Z 10021050 f   extformat.obj
 0001:00020190       ?SetFlags@CExtFormat@xlslib_core@@QAEXE@Z 10021190 f   extformat.obj
 0001:000201d0       ?str@?$basic_ostringstream@DU?$char_traits@D@std@@V?$allocator@D@2@@std@@QBE?AV?$basic_string@DU?$char_traits@D@std@@V?$allocator@D@2@@2@XZ 100211d0 f i extformat.obj
 0001:000201f0       ??1?$basic_ostringstream@DU?$char_traits@D@std@@V?$allocator@D@2@@std@@UAE@XZ 100211f0 f i extformat.obj
 0001:00020240       ??0?$basic_ostringstream@DU?$char_traits@D@std@@V?$allocator@D@2@@std@@QAE@H@Z 10021240 f i extformat.obj
 0001:00020300       ??_G?$basic_ostringstream@DU?$char_traits@D@std@@V?$allocator@D@2@@std@@UAEPAXI@Z 10021300 f i extformat.obj
 0001:00020300       ??_E?$basic_ostringstream@DU?$char_traits@D@std@@V?$allocator@D@2@@std@@UAEPAXI@Z 10021300 f i * CIL library *:* CIL module *
 0001:00020370       ??Bsentry@?$basic_ostream@DU?$char_traits@D@std@@@std@@QBE_NXZ 10021370 f i extformat.obj
 0001:00020380       ??1sentry@?$basic_ostream@DU?$char_traits@D@std@@@std@@QAE@XZ 10021380 f i extformat.obj
 0001:000203f0       ??0sentry@?$basic_ostream@DU?$char_traits@D@std@@@std@@QAE@AAV12@@Z 100213f0 f i extformat.obj
 0001:00020480       ??1_Sentry_base@?$basic_ostream@DU?$char_traits@D@std@@@std@@QAE@XZ 10021480 f i extformat.obj
 0001:000204d0       ??0_Sentry_base@?$basic_ostream@DU?$char_traits@D@std@@@std@@QAE@AAV12@@Z 100214d0 f i extformat.obj
 0001:00020500       ??$?6U?$char_traits@D@std@@@std@@YAAAV?$basic_ostream@DU?$char_traits@D@std@@@0@AAV10@PBD@Z 10021500 f i extformat.obj
 0001:00020730       ??$endl@DU?$char_traits@D@std@@@std@@YAAAV?$basic_ostream@DU?$char_traits@D@std@@@0@AAV10@@Z 10021730 f i extformat.obj
 0001:0002075f       ??_E?$basic_ostringstream@DU?$char_traits@D@std@@V?$allocator@D@2@@std@@$4PPPPPPPM@A@AEPAXI@Z 1002175f f i extformat.obj
 0001:00020770       ??1font_t@xlslib_core@@EAE@XZ 10021770 f i font.obj
 0001:000207b0       ??_Efont_t@xlslib_core@@EAEPAXI@Z 100217b0 f i * CIL library *:* CIL module *
 0001:000207b0       ??_Gfont_t@xlslib_core@@EAEPAXI@Z 100217b0 f i font.obj
 0001:00020810       ??0font_t@xlslib_core@@AAE@AAVCGlobalRecords@1@@Z 10021810 f   font.obj
 0001:00020880       ??0font_t@xlslib_core@@AAE@ABV01@@Z 10021880 f   font.obj
 0001:00020960       ??0font_t@xlslib_core@@AAE@AAVCGlobalRecords@1@GABV?$basic_string@DU?$char_traits@D@std@@V?$allocator@D@2@@std@@GW4boldness_option_t@1@W4underline_option_t@1@W4script_option_t@1@W4color_name_t@1@GEE@Z 10021960 f   font.obj
 0001:00020a30       ??4font_t@xlslib_core@@AAEAAV01@ABV01@@Z 10021a30 f   font.obj
 0001:00020a70       ?MarkUsed@font_t@xlslib_core@@QAEXXZ 10021a70 f   font.obj
 0001:00020a80       ?UnMarkUsed@font_t@xlslib_core@@QAEXXZ 10021a80 f   font.obj
 0001:00020a90       ?Usage@font_t@xlslib_core@@QBEIXZ 10021a90 f   font.obj
 0001:00020a90       ?GetModifiedSecs@COleProp@xlslib_core@@QBEHXZ 10021a90 f   oleprop.obj
 0001:00020aa0       ?SetItalic@font_t@xlslib_core@@QAEX_N@Z 10021aa0 f   font.obj
 0001:00020ac0       ?SetStrikeout@font_t@xlslib_core@@QAEX_N@Z 10021ac0 f   font.obj
 0001:00020ae0       ?SetOutline@font_t@xlslib_core@@QAEX_N@Z 10021ae0 f   font.obj
 0001:00020b00       ?SetShadow@font_t@xlslib_core@@QAEX_N@Z 10021b00 f   font.obj
 0001:00020b20       ?SetIndex@font_t@xlslib_core@@AAEXG@Z 10021b20 f   font.obj
 0001:00020b30       ?GetIndex@font_t@xlslib_core@@QBEGXZ 10021b30 f   font.obj
 0001:00020b40       ?SetName@font_t@xlslib_core@@QAEXABV?$basic_string@DU?$char_traits@D@std@@V?$allocator@D@2@@std@@@Z 10021b40 f   font.obj
 0001:00020b60       ?SetHeight@font_t@xlslib_core@@QAEXG@Z 10021b60 f   font.obj
 0001:00020b70       ?SetBoldStyle@font_t@xlslib_core@@QAEXW4boldness_option_t@2@@Z 10021b70 f   font.obj
 0001:00020b90       ?_SetBoldStyle@font_t@xlslib_core@@AAEXG@Z 10021b90 f   font.obj
 0001:00020ba0       ?SetUnderlineStyle@font_t@xlslib_core@@QAEXW4underline_option_t@2@@Z 10021ba0 f   font.obj
 0001:00020bc0       ?SetScriptStyle@font_t@xlslib_core@@QAEXW4script_option_t@2@@Z 10021bc0 f   font.obj
 0001:00020be0       ?SetColor@font_t@xlslib_core@@QAEXW4color_name_t@2@@Z 10021be0 f   font.obj
 0001:00020c00       ?SetColor@font_t@xlslib_core@@QAEXE@Z 10021c00 f   font.obj
 0001:00020c10       ?SetFamily@font_t@xlslib_core@@QAEXE@Z 10021c10 f   font.obj
 0001:00020c20       ?GetFamily@font_t@xlslib_core@@QBEEXZ 10021c20 f   font.obj
 0001:00020c30       ?SetCharset@font_t@xlslib_core@@QAEXE@Z 10021c30 f   font.obj
 0001:00020c40       ?GetCharset@font_t@xlslib_core@@QBEEXZ 10021c40 f   font.obj
 0001:00020c50       ?GetItalic@font_t@xlslib_core@@QBE_NXZ 10021c50 f   font.obj
 0001:00020c60       ?GetStrikeout@font_t@xlslib_core@@QBE_NXZ 10021c60 f   font.obj
 0001:00020c70       ?GetOutline@font_t@xlslib_core@@QBE_NXZ 10021c70 f   font.obj
 0001:00020c80       ?GetShadow@font_t@xlslib_core@@QBE_NXZ 10021c80 f   font.obj
 0001:00020c90       ??0CFont@xlslib_core@@IAE@AAVCDataStorage@1@PBVfont_t@1@@Z 10021c90 f   font.obj
 0001:00020e20       ??4?$basic_string@DU?$char_traits@D@std@@V?$allocator@D@2@@std@@QAEAAV01@ABV01@@Z 10021e20 f i font.obj
 0001:00020e40       ?assign@?$basic_string@DU?$char_traits@D@std@@V?$allocator@D@2@@std@@QAEAAV12@ABV12@@Z 10021e40 f i font.obj
 0001:00020e60       ??$?8V?$allocator@_S@std@@V01@@std@@YA_NABU?$_Wrap_alloc@V?$allocator@_S@std@@@0@0@Z 10021e60 f i formula_estimate.obj
 0001:00020e60       ___acrt_thread_attach      10021e60 f i MSVCRT:ucrt_stubs.obj
 0001:00020e60       ___acrt_thread_detach      10021e60 f i MSVCRT:ucrt_stubs.obj
 0001:00020e60       ___acrt_uninitialize_critical 10021e60 f i MSVCRT:ucrt_stubs.obj
 0001:00020e60       ??$?8_S_S@std@@YA_NABV?$allocator@_S@0@0@Z 10021e60 f i formula_estimate.obj
 0001:00020e60       ___scrt_stub_for_acrt_initialize 10021e60 f i MSVCRT:ucrt_stubs.obj
 0001:00020e60       ___vcrt_uninitialize_critical 10021e60 f i MSVCRT:ucrt_stubs.obj
 0001:00020e60       ___vcrt_thread_attach      10021e60 f i MSVCRT:ucrt_stubs.obj
 0001:00020e60       ___acrt_initialize         10021e60 f i MSVCRT:ucrt_stubs.obj
 0001:00020e60       ___acrt_uninitialize       10021e60 f i MSVCRT:ucrt_stubs.obj
 0001:00020e60       ___vcrt_thread_detach      10021e60 f i MSVCRT:ucrt_stubs.obj
 0001:00020e60       ___scrt_stub_for_acrt_uninitialize_critical 10021e60 f i MSVCRT:ucrt_stubs.obj
 0001:00020e60       ___scrt_stub_for_acrt_thread_attach 10021e60 f i MSVCRT:ucrt_stubs.obj
 0001:00020e60       ___vcrt_uninitialize       10021e60 f i MSVCRT:ucrt_stubs.obj
 0001:00020e60       ___vcrt_initialize         10021e60 f i MSVCRT:ucrt_stubs.obj
 0001:00020e60       ___scrt_stub_for_acrt_uninitialize 10021e60 f i MSVCRT:ucrt_stubs.obj
 0001:00020e60       ??$?8V?$allocator@D@std@@V01@@std@@YA_NABU?$_Wrap_alloc@V?$allocator@D@std@@@0@0@Z 10021e60 f i font.obj
 0001:00020e60       ___scrt_stub_for_acrt_thread_detach 10021e60 f i MSVCRT:ucrt_stubs.obj
 0001:00020e60       ??$?8DD@std@@YA_NABV?$allocator@D@0@0@Z 10021e60 f i font.obj
 0001:00020e70       ??1format_t@xlslib_core@@EAE@XZ 10021e70 f i format.obj
 0001:00020ec0       ??_Gformat_t@xlslib_core@@EAEPAXI@Z 10021ec0 f i format.obj
 0001:00020ec0       ??_Eformat_t@xlslib_core@@EAEPAXI@Z 10021ec0 f i * CIL library *:* CIL module *
 0001:00020f20       ?format2index@format_t@xlslib_core@@SAGW4format_number_t@2@@Z 10021f20 f   format.obj
 0001:00020f40       ??0format_t@xlslib_core@@AAE@ABV01@@Z 10021f40 f   format.obj
 0001:00020fe0       ??0format_t@xlslib_core@@AAE@AAVCGlobalRecords@1@ABV?$basic_string@DU?$char_traits@D@std@@V?$allocator@D@2@@std@@@Z 10021fe0 f   format.obj
 0001:00021060       ??0format_t@xlslib_core@@AAE@AAVCGlobalRecords@1@ABV?$basic_string@_WU?$char_traits@_W@std@@V?$allocator@_W@2@@std@@@Z 10022060 f   format.obj
 0001:000210e0       ??0format_t@xlslib_core@@AAE@AAVCGlobalRecords@1@ABV?$basic_string@_SU?$char_traits@_S@std@@V?$allocator@_S@2@@std@@@Z 100220e0 f   format.obj
 0001:00021130       ??4format_t@xlslib_core@@AAEAAV01@ABV01@@Z 10022130 f   format.obj
 0001:00021170       ?MarkUsed@format_t@xlslib_core@@QAEXXZ 10022170 f   format.obj
 0001:00021180       ?UnMarkUsed@format_t@xlslib_core@@QAEXXZ 10022180 f   format.obj
 0001:00021190       ?Usage@format_t@xlslib_core@@QBEIXZ 10022190 f   format.obj
 0001:00021190       ?GetNextIndex@COleProp@xlslib_core@@QBEHXZ 10022190 f   oleprop.obj
 0001:000211a0       ??0CFormat@xlslib_core@@IAE@AAVCDataStorage@1@PBVformat_t@1@@Z 100221a0 f   format.obj
 0001:000212b0       ??0?$basic_string@_SU?$char_traits@_S@std@@V?$allocator@_S@2@@std@@QAE@XZ 100222b0 f i format.obj
 0001:000212d0       ?GetWorksheet@cell_t@xlslib_core@@QBEPAVworksheet@2@XZ 100222d0 f i formula.obj
 0001:000212e0       ?GetIndex@worksheet@xlslib_core@@QBEGXZ 100222e0 f i formula.obj
 0001:000212f0       ??0formula_t@xlslib_core@@QAE@AAVCGlobalRecords@1@PAVworksheet@1@@Z 100222f0 f   formula.obj
 0001:000214c0       ??_Gformula_t@xlslib_core@@UAEPAXI@Z 100224c0 f i formula.obj
 0001:000214c0       ??_Eformula_t@xlslib_core@@UAEPAXI@Z 100224c0 f i * CIL library *:* CIL module *
 0001:00021500       ??1formula_t@xlslib_core@@UAE@XZ 10022500 f   formula.obj
 0001:00021520       ?PushBoolean@formula_t@xlslib_core@@QAED_N@Z 10022520 f   formula.obj
 0001:00021550       ?PushError@formula_t@xlslib_core@@QAEDE@Z 10022550 f   formula.obj
 0001:00021580       ?PushInteger@formula_t@xlslib_core@@QAEDH@Z 10022580 f   formula.obj
 0001:00021620       ?PushFloatingPoint@formula_t@xlslib_core@@QAEDN@Z 10022620 f   formula.obj
 0001:00021660       ?PushOperator@formula_t@xlslib_core@@QAEDW4expr_operator_code_t@2@@Z 10022660 f   formula.obj
 0001:00021670       ?PushCellReference@formula_t@xlslib_core@@QAEDABVcell_t@2@W4cell_addr_mode_t@2@W4cell_op_class_t@2@@Z 10022670 f   formula.obj
 0001:000216a0       ?PushReference@formula_t@xlslib_core@@AAEDIIIW4cell_addr_mode_t@2@W4cell_op_class_t@2@@Z 100226a0 f   formula.obj
 0001:000217c0       ?PushCellAreaReference@formula_t@xlslib_core@@QAEDABVcell_t@2@0W4cell_addr_mode_t@2@W4cell_op_class_t@2@@Z 100227c0 f   formula.obj
 0001:00021800       ?PushAreaReference@formula_t@xlslib_core@@AAEDIIIIIIW4cell_addr_mode_t@2@W4cell_op_class_t@2@@Z 10022800 f   formula.obj
 0001:000219b0       ?PushFunction@formula_t@xlslib_core@@QAEDW4expr_function_code_t@2@W4cell_op_class_t@2@@Z 100229b0 f   formula.obj
 0001:00021a80       ?PushFunction@formula_t@xlslib_core@@QAEDW4expr_function_code_t@2@IW4cell_op_class_t@2@@Z 10022a80 f   formula.obj
 0001:00021b70       ?PushText@formula_t@xlslib_core@@QAEDABV?$basic_string@DU?$char_traits@D@std@@V?$allocator@D@2@@std@@@Z 10022b70 f   formula.obj
 0001:00021c10       ?PushText@formula_t@xlslib_core@@QAEDABV?$basic_string@_WU?$char_traits@_W@std@@V?$allocator@_W@2@@std@@@Z 10022c10 f   formula.obj
 0001:00021cc0       ?PushText@formula_t@xlslib_core@@QAEDABV?$basic_string@_SU?$char_traits@_S@std@@V?$allocator@_S@2@@std@@@Z 10022cc0 f   formula.obj
 0001:00021cf0       ?PushTextArray@formula_t@xlslib_core@@QAEDABV?$vector@V?$basic_string@DU?$char_traits@D@std@@V?$allocator@D@2@@std@@V?$allocator@V?$basic_string@DU?$char_traits@D@std@@V?$allocator@D@2@@std@@@2@@std@@@Z 10022cf0 f   formula.obj
 0001:00021f30       ?PushTextArray@formula_t@xlslib_core@@QAEDABV?$vector@V?$basic_string@_WU?$char_traits@_W@std@@V?$allocator@_W@2@@std@@V?$allocator@V?$basic_string@_WU?$char_traits@_W@std@@V?$allocator@_W@2@@std@@@2@@std@@@Z 10022f30 f   formula.obj
 0001:00022180       ?PushFloatingPointArray@formula_t@xlslib_core@@QAEDABV?$vector@NV?$allocator@N@std@@@std@@@Z 10023180 f   formula.obj
 0001:00022250       ?DumpData@formula_t@xlslib_core@@QBEXAAVCUnit@2@@Z 10023250 f   formula.obj
 0001:00022280       ?GetSize@formula_t@xlslib_core@@QBEIXZ 10023280 f   formula.obj
 0001:000222f0       ?GetResultEstimate@cell_deref_node_t@xlslib_core@@UBEXAAVestimated_formula_result_t@2@@Z 100232f0 f   formula_expr.obj
 0001:000222f0       ?GetResultEstimate@cellarea_deref_node_t@xlslib_core@@UBEXAAVestimated_formula_result_t@2@@Z 100232f0 f   formula_expr.obj
 0001:000222f0       ?GetResultEstimate@operator_basenode_t@xlslib_core@@UBEXAAVestimated_formula_result_t@2@@Z 100232f0 f   formula_expr.obj
 0001:000222f0       ?GetResultEstimate@formula_t@xlslib_core@@QBEXAAVestimated_formula_result_t@2@@Z 100232f0 f   formula.obj
 0001:00022330       ?NumberOfArgsForExcelFunction@xlslib_core@@YAIW4expr_function_code_t@1@@Z 10023330 f   formula.obj
 0001:00022380       ??A?$vector@NV?$allocator@N@std@@@std@@QBEABNI@Z 10023380 f i formula.obj
 0001:00022390       ??A?$vector@V?$basic_string@DU?$char_traits@D@std@@V?$allocator@D@2@@std@@V?$allocator@V?$basic_string@DU?$char_traits@D@std@@V?$allocator@D@2@@std@@@2@@std@@QBEABV?$basic_string@DU?$char_traits@D@std@@V?$allocator@D@2@@1@I@Z 10023390 f i formula.obj
 0001:00022390       ??A?$vector@V?$basic_string@_WU?$char_traits@_W@std@@V?$allocator@_W@2@@std@@V?$allocator@V?$basic_string@_WU?$char_traits@_W@std@@V?$allocator@_W@2@@std@@@2@@std@@QBEABV?$basic_string@_WU?$char_traits@_W@std@@V?$allocator@_W@2@@1@I@Z 10023390 f i formula.obj
 0001:000223b0       ?GetAST@formula_cell_t@xlslib_core@@ABEPBVexpression_node_t@2@XZ 100233b0 f i formula_cell.obj
 0001:000223c0       ?IsArrayFormula@formula_cell_t@xlslib_core@@QBE_NXZ 100233c0 f i formula_cell.obj
 0001:000223d0       ??0formula_cell_t@xlslib_core@@AAE@AAVCGlobalRecords@1@IIPAVexpression_node_t@1@_N2PAVxf_t@1@@Z 100233d0 f   formula_cell.obj
 0001:00022420       ??_Eformula_cell_t@xlslib_core@@EAEPAXI@Z 10023420 f i * CIL library *:* CIL module *
 0001:00022420       ??_Gformula_cell_t@xlslib_core@@EAEPAXI@Z 10023420 f i formula_cell.obj
 0001:00022450       ??0formula_cell_t@xlslib_core@@AAE@AAVCGlobalRecords@1@IIPAVformula_t@1@_NPAVxf_t@1@@Z 10023450 f   formula_cell.obj
 0001:000224a0       ??1formula_cell_t@xlslib_core@@EAE@XZ 100234a0 f   formula_cell.obj
 0001:00022540       ?GetResultEstimate@formula_cell_t@xlslib_core@@QBEXAAVestimated_formula_result_t@2@@Z 10023540 f   formula_cell.obj
 0001:00022590       ?GetSize@formula_cell_t@xlslib_core@@EBEIXZ 10023590 f   formula_cell.obj
 0001:000226f0       ?GetData@formula_cell_t@xlslib_core@@EBEPAVCUnit@2@AAVCDataStorage@2@@Z 100236f0 f   formula_cell.obj
 0001:00022750       ?DumpData@formula_cell_t@xlslib_core@@QBEXAAVCUnit@2@@Z 10023750 f   formula_cell.obj
 0001:00022820       ??0CFormula@xlslib_core@@IAE@AAVCDataStorage@1@ABVformula_cell_t@1@@Z 10023820 f   formula_cell.obj
 0001:00022ca0       ??0estimated_formula_result_t@xlslib_core@@QAE@AAVCGlobalRecords@1@@Z 10023ca0 f   formula_estimate.obj
 0001:00022cd0       ??_Gestimated_formula_result_t@xlslib_core@@UAEPAXI@Z 10023cd0 f i formula_estimate.obj
 0001:00022cd0       ??_Eestimated_formula_result_t@xlslib_core@@UAEPAXI@Z 10023cd0 f i * CIL library *:* CIL module *
 0001:00022d40       ??1estimated_formula_result_t@xlslib_core@@UAE@XZ 10023d40 f   formula_estimate.obj
 0001:00022da0       ??4estimated_formula_result_t@xlslib_core@@IAEAAV01@ABV01@@Z 10023da0 f   formula_estimate.obj
 0001:00022de0       ?clear_value@estimated_formula_result_t@xlslib_core@@IAEXW4estval_type_t@12@@Z 10023de0 f   formula_estimate.obj
 0001:00022e40       ??_G?$basic_string@_SU?$char_traits@_S@std@@V?$allocator@_S@2@@std@@QAEPAXI@Z 10023e40 f i formula_estimate.obj
 0001:00022e90       ?SetCalcOnLoad@estimated_formula_result_t@xlslib_core@@QAEXXZ 10023e90 f   formula_estimate.obj
 0001:00022ea0       ?SetCalcAlways@estimated_formula_result_t@xlslib_core@@QAEXXZ 10023ea0 f   formula_estimate.obj
 0001:00022eb0       ?GetOptionFlags@estimated_formula_result_t@xlslib_core@@QBEGXZ 10023eb0 f   formula_estimate.obj
 0001:00022ec0       ?SetBoolean@estimated_formula_result_t@xlslib_core@@QAE_N_N@Z 10023ec0 f   formula_estimate.obj
 0001:00022ef0       ?SetInteger@estimated_formula_result_t@xlslib_core@@QAEHH@Z 10023ef0 f   formula_estimate.obj
 0001:00022f20       ?SetFloatingPoint@estimated_formula_result_t@xlslib_core@@QAENN@Z 10023f20 f   formula_estimate.obj
 0001:00022f50       ?SetText@estimated_formula_result_t@xlslib_core@@QAEABV?$basic_string@_SU?$char_traits@_S@std@@V?$allocator@_S@2@@std@@ABV?$basic_string@DU?$char_traits@D@std@@V?$allocator@D@2@@4@@Z 10023f50 f   formula_estimate.obj
 0001:00022fa0       ?SetText@estimated_formula_result_t@xlslib_core@@QAEABV?$basic_string@_SU?$char_traits@_S@std@@V?$allocator@_S@2@@std@@ABV?$basic_string@_WU?$char_traits@_W@std@@V?$allocator@_W@2@@4@@Z 10023fa0 f   formula_estimate.obj
 0001:00022ff0       ?SetText@estimated_formula_result_t@xlslib_core@@QAEABV?$basic_string@_SU?$char_traits@_S@std@@V?$allocator@_S@2@@std@@ABV34@@Z 10023ff0 f   formula_estimate.obj
 0001:00023040       ?SetErrorCode@estimated_formula_result_t@xlslib_core@@QAE?AW4errcode_t@2@W432@@Z 10024040 f   formula_estimate.obj
 0001:00023070       ?GetEncodedValue@estimated_formula_result_t@xlslib_core@@QBE_KXZ 10024070 f   formula_estimate.obj
 0001:00023130       ?EncodedValueIsString@estimated_formula_result_t@xlslib_core@@QBE_NXZ 10024130 f   formula_estimate.obj
 0001:00023140       ?GetStringValue@estimated_formula_result_t@xlslib_core@@QBEPBV?$basic_string@_SU?$char_traits@_S@std@@V?$allocator@_S@2@@std@@XZ 10024140 f   formula_estimate.obj
 0001:00023150       ??4?$basic_string@_SU?$char_traits@_S@std@@V?$allocator@_S@2@@std@@QAEAAV01@ABV01@@Z 10024150 f i formula_estimate.obj
 0001:00023170       ?assign@?$basic_string@_SU?$char_traits@_S@std@@V?$allocator@_S@2@@std@@QAEAAV12@ABV12@@Z 10024170 f i formula_estimate.obj
 0001:00023190       ??0expression_node_t@xlslib_core@@QAE@AAVCGlobalRecords@1@@Z 10024190 f   formula_expr.obj
 0001:000231a0       ??_Eexpression_node_t@xlslib_core@@UAEPAXI@Z 100241a0 f i * CIL library *:* CIL module *
 0001:000231a0       ??_Emissing_arg_node_t@xlslib_core@@UAEPAXI@Z 100241a0 f i * CIL library *:* CIL module *
 0001:000231a0       ??_Gterminal_node_t@xlslib_core@@UAEPAXI@Z 100241a0 f i formula_expr.obj
 0001:000231a0       ??_Gexpression_node_t@xlslib_core@@UAEPAXI@Z 100241a0 f i formula_expr.obj
 0001:000231a0       ??_Gmissing_arg_node_t@xlslib_core@@UAEPAXI@Z 100241a0 f i formula_expr.obj
 0001:000231a0       ??_Eterminal_node_t@xlslib_core@@UAEPAXI@Z 100241a0 f i * CIL library *:* CIL module *
 0001:000231d0       ??1binary_op_node_t@xlslib_core@@UAE@XZ 100241d0 f   formula_expr.obj
 0001:000231d0       ??1error_value_node_t@xlslib_core@@UAE@XZ 100241d0 f   formula_expr.obj
 0001:000231d0       ??1cellarea_deref_node_t@xlslib_core@@UAE@XZ 100241d0 f   formula_expr.obj
 0001:000231d0       ??1operator_basenode_t@xlslib_core@@UAE@XZ 100241d0 f   formula_expr.obj
 0001:000231d0       ??1expression_node_t@xlslib_core@@UAE@XZ 100241d0 f   formula_expr.obj
 0001:000231d0       ??1unary_op_node_t@xlslib_core@@UAE@XZ 100241d0 f   formula_expr.obj
 0001:000231d0       ??1boolean_value_node_t@xlslib_core@@UAE@XZ 100241d0 f   formula_expr.obj
 0001:000231d0       ??1function_basenode_t@xlslib_core@@UAE@XZ 100241d0 f   formula_expr.obj
 0001:000231d0       ??1binary_func_node_t@xlslib_core@@UAE@XZ 100241d0 f   formula_expr.obj
 0001:000231d0       ??1integer_value_node_t@xlslib_core@@UAE@XZ 100241d0 f   formula_expr.obj
 0001:000231d0       ??1missing_arg_node_t@xlslib_core@@UAE@XZ 100241d0 f   formula_expr.obj
 0001:000231d0       ??1z_ary_func_node_t@xlslib_core@@UAE@XZ 100241d0 f   formula_expr.obj
 0001:000231d0       ??1cell_deref_node_t@xlslib_core@@UAE@XZ 100241d0 f   formula_expr.obj
 0001:000231d0       ??1unary_func_node_t@xlslib_core@@UAE@XZ 100241d0 f   formula_expr.obj
 0001:000231d0       ??1float_value_node_t@xlslib_core@@UAE@XZ 100241d0 f   formula_expr.obj
 0001:000231d0       ??1terminal_node_t@xlslib_core@@UAE@XZ 100241d0 f   formula_expr.obj
 0001:000231e0       ?GetChild@expression_node_t@xlslib_core@@UBEPAV12@G@Z 100241e0 f   formula_expr.obj
 0001:000231f0       ?DestroyAST@expression_node_t@xlslib_core@@UAEXXZ 100241f0 f   formula_expr.obj
 0001:00023230       ?GetResultEstimate@expression_node_t@xlslib_core@@UBEXAAVestimated_formula_result_t@2@@Z 10024230 f   formula_expr.obj
 0001:00023260       ?GetSize@expression_node_t@xlslib_core@@UBEI_N@Z 10024260 f   formula_expr.obj
 0001:00023290       ?DumpData@expression_node_t@xlslib_core@@UBEDAAVformula_t@2@_N@Z 10024290 f   formula_expr.obj
 0001:000232c0       ??0terminal_node_t@xlslib_core@@QAE@AAVCGlobalRecords@1@@Z 100242c0 f   formula_expr.obj
 0001:000232d0       ??0boolean_value_node_t@xlslib_core@@QAE@AAVCGlobalRecords@1@_N@Z 100242d0 f   formula_expr.obj
 0001:000232f0       ??_Gerror_value_node_t@xlslib_core@@UAEPAXI@Z 100242f0 f i formula_expr.obj
 0001:000232f0       ??_Eboolean_value_node_t@xlslib_core@@UAEPAXI@Z 100242f0 f i * CIL library *:* CIL module *
 0001:000232f0       ??_Gboolean_value_node_t@xlslib_core@@UAEPAXI@Z 100242f0 f i formula_expr.obj
 0001:000232f0       ??_Ginteger_value_node_t@xlslib_core@@UAEPAXI@Z 100242f0 f i formula_expr.obj
 0001:000232f0       ??_Einteger_value_node_t@xlslib_core@@UAEPAXI@Z 100242f0 f i * CIL library *:* CIL module *
 0001:000232f0       ??_Goperator_basenode_t@xlslib_core@@UAEPAXI@Z 100242f0 f i formula_expr.obj
 0001:000232f0       ??_Eoperator_basenode_t@xlslib_core@@UAEPAXI@Z 100242f0 f i * CIL library *:* CIL module *
 0001:000232f0       ??_Eerror_value_node_t@xlslib_core@@UAEPAXI@Z 100242f0 f i * CIL library *:* CIL module *
 0001:00023320       ?GetResultEstimate@boolean_value_node_t@xlslib_core@@UBEXAAVestimated_formula_result_t@2@@Z 10024320 f   formula_expr.obj
 0001:00023350       ?GetSize@error_value_node_t@xlslib_core@@UBEI_N@Z 10024350 f   formula_expr.obj
 0001:00023350       ?GetSize@boolean_value_node_t@xlslib_core@@UBEI_N@Z 10024350 f   formula_expr.obj
 0001:00023360       ?DumpData@boolean_value_node_t@xlslib_core@@UBEDAAVformula_t@2@_N@Z 10024360 f   formula_expr.obj
 0001:00023390       ??0integer_value_node_t@xlslib_core@@QAE@AAVCGlobalRecords@1@H@Z 10024390 f   formula_expr.obj
 0001:000233b0       ?GetResultEstimate@integer_value_node_t@xlslib_core@@UBEXAAVestimated_formula_result_t@2@@Z 100243b0 f   formula_expr.obj
 0001:000233e0       ?GetSize@integer_value_node_t@xlslib_core@@UBEI_N@Z 100243e0 f   formula_expr.obj
 0001:00023400       ?DumpData@integer_value_node_t@xlslib_core@@UBEDAAVformula_t@2@_N@Z 10024400 f   formula_expr.obj
 0001:00023420       ??0float_value_node_t@xlslib_core@@QAE@AAVCGlobalRecords@1@N@Z 10024420 f   formula_expr.obj
 0001:00023440       ??_Gunary_func_node_t@xlslib_core@@UAEPAXI@Z 10024440 f i formula_expr.obj
 0001:00023440       ??_Eunary_func_node_t@xlslib_core@@UAEPAXI@Z 10024440 f i * CIL library *:* CIL module *
 0001:00023440       ??_Ebinary_op_node_t@xlslib_core@@UAEPAXI@Z 10024440 f i * CIL library *:* CIL module *
 0001:00023440       ??_Efloat_value_node_t@xlslib_core@@UAEPAXI@Z 10024440 f i * CIL library *:* CIL module *
 0001:00023440       ??_Gbinary_op_node_t@xlslib_core@@UAEPAXI@Z 10024440 f i formula_expr.obj
 0001:00023440       ??_Gfloat_value_node_t@xlslib_core@@UAEPAXI@Z 10024440 f i formula_expr.obj
 0001:00023470       ?GetResultEstimate@float_value_node_t@xlslib_core@@UBEXAAVestimated_formula_result_t@2@@Z 10024470 f   formula_expr.obj
 0001:000234b0       ?GetSize@cellarea_deref_node_t@xlslib_core@@UBEI_N@Z 100244b0 f   formula_expr.obj
 0001:000234b0       ?GetSize@float_value_node_t@xlslib_core@@UBEI_N@Z 100244b0 f   formula_expr.obj
 0001:000234c0       ?DumpData@float_value_node_t@xlslib_core@@UBEDAAVformula_t@2@_N@Z 100244c0 f   formula_expr.obj
 0001:00023510       ??0error_value_node_t@xlslib_core@@QAE@AAVCGlobalRecords@1@W4errcode_t@1@@Z 10024510 f   formula_expr.obj
 0001:00023530       ?GetResultEstimate@error_value_node_t@xlslib_core@@UBEXAAVestimated_formula_result_t@2@@Z 10024530 f   formula_expr.obj
 0001:00023560       ?DumpData@error_value_node_t@xlslib_core@@UBEDAAVformula_t@2@_N@Z 10024560 f   formula_expr.obj
 0001:00023590       ??0missing_arg_node_t@xlslib_core@@QAE@AAVCGlobalRecords@1@@Z 10024590 f   formula_expr.obj
 0001:000235a0       ?GetResultEstimate@missing_arg_node_t@xlslib_core@@UBEXAAVestimated_formula_result_t@2@@Z 100245a0 f   formula_expr.obj
 0001:000235d0       ?GetSize@missing_arg_node_t@xlslib_core@@UBEI_N@Z 100245d0 f   formula_expr.obj
 0001:000235e0       ?DumpData@missing_arg_node_t@xlslib_core@@UBEDAAVformula_t@2@_N@Z 100245e0 f   formula_expr.obj
 0001:00023600       ??0text_value_node_t@xlslib_core@@QAE@AAVCGlobalRecords@1@ABV?$basic_string@DU?$char_traits@D@std@@V?$allocator@D@2@@std@@@Z 10024600 f   formula_expr.obj
 0001:00023680       ??_Gtext_value_node_t@xlslib_core@@UAEPAXI@Z 10024680 f i formula_expr.obj
 0001:00023680       ??_Etext_value_node_t@xlslib_core@@UAEPAXI@Z 10024680 f i * CIL library *:* CIL module *
 0001:000236e0       ??0text_value_node_t@xlslib_core@@QAE@AAVCGlobalRecords@1@ABV?$basic_string@_WU?$char_traits@_W@std@@V?$allocator@_W@2@@std@@@Z 100246e0 f   formula_expr.obj
 0001:00023760       ??0text_value_node_t@xlslib_core@@QAE@AAVCGlobalRecords@1@ABV?$basic_string@_SU?$char_traits@_S@std@@V?$allocator@_S@2@@std@@@Z 10024760 f   formula_expr.obj
 0001:000237e0       ??1text_value_node_t@xlslib_core@@UAE@XZ 100247e0 f   formula_expr.obj
 0001:00023830       ??4text_value_node_t@xlslib_core@@AAEAAV01@ABV01@@Z 10024830 f   formula_expr.obj
 0001:00023870       ?GetResultEstimate@text_value_node_t@xlslib_core@@UBEXAAVestimated_formula_result_t@2@@Z 10024870 f   formula_expr.obj
 0001:000238c0       ?GetSize@text_value_node_t@xlslib_core@@UBEI_N@Z 100248c0 f   formula_expr.obj
 0001:00023930       ?DumpData@text_value_node_t@xlslib_core@@UBEDAAVformula_t@2@_N@Z 10024930 f   formula_expr.obj
